Oi:_glClearStencil
w3d:__ZN35AssemblyCompanyAttribute_t90925751210set_name_0EP8String_t
Ixh:_UInt16_System_IConvertible_ToChar_m2096055221_AdjustorThunk
Keh:_Array_TrueForAll_TisRuntimeObject_m1084992726_gshared
Hai:__ZN19X509Crl_t114876738816set_extensions_7EP34X509ExtensionCollection_t609554709
bfg:__Z25Il2CppCodeGenWriteBarrierI27CompressedStack_t1202932761EvPPT_S2_
RRj:__ZN6il2cpp2vm5Array13GetByteLengthEP11Il2CppArray
EKi:_KeyBuilder_get_Rng_m3373220441
gXc:__ZN15DownloadHandler7OnAbortEv
Xca:__ZN9Scripting11UnityEngine38ExcludeFromObjectFactoryAttributeProxy12CleanupProxyEv
cuh:__Z35GenericComparer_1__ctor_m3652072706P29GenericComparer_1_t2877759089PK10MethodInfo
mvc:__ZN9Scripting11UnityEngine19ContactPoint2DProxy9InitProxyEv
Ala:__Z30GetIntermediateRendererManagerv
OJd:_MonoMethodMessage_GetArg_m2932717642
Caa:__ZN9Scripting11UnityEngine9Profiling13RecorderProxy9InitProxyEv
nzd:_LifetimeServices_get_SponsorshipTimeout_m1857544448
JEa:__Z21SourceMipLevelForBlitiiii
JAa:__Z23SetSpriteMeshIndexCountP14SharedMeshDataj
dWg:__ZNK21Dictionary_2_t338474112get_count_10Ev
O2b:__ZN9ShaderLab9SubShader15FindNamedPassesERKN4core12basic_stringIcNS1_20StringStorageDefaultIcEEEER13dynamic_arrayIPNS_4PassELj0EE
Ufk:__ZNK26PlayableHandle_t109585380315get_m_Version_1Ev
cZk:__ZL63PlayableOutputHandle_t4208053793_CustomAttributesCacheGeneratorP21CustomAttributesCache
JJ:__ZN11UnityEngine15CloudWebService26CloudServiceEventWithParam12ToJsonStringER9JSONWrite
BRf:_UnmanagedMemoryStream_Write_m930787521
h7i:__ZNK15dense_hashtableINSt3__24pairIK10KeyWrapperIPK19Il2CppGenericMethodEPK26Il2CppGenericMethodIndicesEES6_N6il2cpp8metadata23Il2CppGenericMethodHashEN14dense_hash_mapIS6_SA_SE_NS6_14EqualsComparerINSD_26Il2CppGenericMethodCompareEEENS0_9allocatorISB_EEE9SelectKeyESI_SK_E10test_emptyEj
ubc:__Z59Register_UnityEngine_PlayerConnectionInternal_DisconnectAllv
Iwk:__ZL66RuntimeArray_CustomAttributesCacheGenerator_Array_Sort_m3287581440P21CustomAttributesCache
DNi:_AnalyticsEventTracker_SendEvent_m1365958832
lO:__ZdlPv
uRk:__ZL54Application_t1852185770_CustomAttributesCacheGeneratorP21CustomAttributesCache
ur:__ZN11UnityEngine9Animation28GenericAnimationBindingCacheD2Ev
aph:_UTF8Encoding_GetHashCode_m641510078
_2h:__ZN26X509Certificate_t48924302513set_m_until_3E20DateTime_t3738529785
wbi:_X509Store_LoadCrl_m1881903843
Wue:_CaseInsensitiveComparer__ctor_m2101975011
cai:__ZNK22X509Stores_t137393623716get__storePath_0Ev
$fi:__Z67RuntimeInvoker_Byte_t1134296376_Int32_t2950945753_Int32_t2950945753PFvvEPK10MethodInfoPvPS4_
srh:__ZNK32RegisteredWaitHandle_t152953845415get__callback_2Ev
Bei:__Z53RuntimeInvoker_UInt32_t2560061978_Decimal_t2948259380PFvvEPK10MethodInfoPvPS4_
bUb:__Z18RestoreRenderStateR20CameraRenderOldStateR17ShaderPassContext
Mgb:__Z18Transfer_BlittableI24GenerateTypeTreeTransferLb0E11ColorRGBA32EvRK29SerializationCommandArgumentsR31RuntimeSerializationCommandInfo
daa:__ZN9Scripting11UnityEngine9Rendering23GraphicsDeviceTypeProxy12CleanupProxyEv
anb:__Z25scripting_class_from_name17ScriptingImagePtrPKcS1_
Ojh:_Array_InternalArray__Insert_TisSingle_t1397266774_m3161726127_gshared
wzj:__ZN14dense_hash_mapI10KeyWrapperINSt3__24pairIPK12PropertyInfoP11Il2CppClassEEEj17ReflectionMapHashIS8_ENS9_14EqualsComparerINS1_8equal_toIS8_EEEENS1_9allocatorINS2_IKS9_jEEEEE15set_deleted_keyERSH_
Tob:__Z29scripting_class_enum_basetype17ScriptingClassPtr
lFj:__ZN6il2cpp2vm22EmbeddedResourceRecordC2EOS1_
$Tj:__GLOBAL__sub_I_Console_cpp
jdc:__Z18RegisterUnityClassI11TimeManagerEvPKc
vka:__ZNK12BaseRenderer18GetRenderNodeCountEv
Yxc:__ZN16PhysicsManager2D7RaycastERK3RayfiR12RaycastHit2D
yRi:__ZN30GenericInterfaceActionInvoker1IP24SingleU5BU5D_t1444911251E6InvokeEPK10MethodInfoP12Il2CppObjectS1_
pad:_PropertyBuilder_get_CanWrite_m2657562188
S0g:__ZN47MSCompatUnicodeTableUtil_t88013251_StaticFields12set_Level3_4EP28CodePointIndexer_t4134431086
BIh:_Enumerator__ctor_m2827156589_AdjustorThunk
Z_a:__ZNK20LocalFileSystemPosix6ParentERK13FileEntryDataRN4core12basic_stringIcNS3_20StringStorageDefaultIcEEEE
sWe:__ZN26HttpWebRequest_t166943651519set_certificates_11EP37X509CertificateCollection_t3399372417
Osd:__ZNK29ProcessMessageRes_t371054714517get_arrResponse_0Ev
L3f:__ZNK35DSASignatureDeformatter_t36779551729get_dsa_0Ev
V_g:_ContractionComparer__ctor_m3439667810
R$d:_MonoType_IsPrimitiveImpl_m2401722705
m7f:_SHA1CryptoServiceProvider__ctor_m4195188793
nsk:__ZN39UnitySynchronizationContext_t188745378620set_m_MainThreadID_2Ei
UMk:__ZL64MissingFieldException_t1989070983_CustomAttributesCacheGeneratorP21CustomAttributesCache
dAj:__GLOBAL__sub_I_Thread_cpp
t1d:_NumberFormatter_NumberToString_m264078176
cYf:__ZN25TypeTagU5BU5D_t156391866414SetAtUncheckedEjh
Myb:__ZN7ApiGLES17CopyBufferSubDataEjjlll
Yih:_Array_InternalArray__ICollection_CopyTo_TisUInt64_t4134040092_m691431926_gshared
HYe:_IPAddress_ToString_m1181734207
gvg:_InternalEnumerator_1_System_Collections_IEnumerator_Reset_m1223176161_gshared
zsc:__ZN5Unity9rapidjson15GenericDocumentINS0_4UTF8IcEE13JSONAllocatorS4_E11ParseStreamILj1ES3_NS0_25GenericInsituStringStreamIS3_EEEERS5_RT1_
D3i:__ZNSt3__26vectorIPK10Il2CppTypeNS_9allocatorIS3_EEE7reserveEj
hfg:__ZN37SecurityCriticalAttribute_t227932284412set__scope_0Ei
dme:_Array_GetValue_m116098292
UXe:__ZNK20IPAddress_t24177759015get_m_Numbers_2Ev
hye:_Kernel_modInverse_m652700340
uJa:__ZNK14Texture2DArray26CanReuploadDataToGfxDeviceEv
pWh:_U3CCreateWhereIteratorU3Ec__Iterator1D_1_System_Collections_Generic_IEnumeratorU3CTSourceU3E_get_Current_m1909387290_gshared
Sia:__ZN17GlobalGameManager23VirtualRedirectTransferER17RemapPPtrTransfer
I$h:__ZNK28SslHandshakeHash_t210758177217get_innerPadMD5_8Ev
Pvg:_InternalEnumerator_1_MoveNext_m3200332883_gshared
aoa:__ZNK15dense_hashtableINSt3__24pairIKN9ShaderLab7Program23ShaderKeywordSetAndHashEPKNS2_10SubProgramEEES4_NS3_24ShaderKeywordHashFunctorEN14dense_hash_mapIS4_S8_SA_NS0_8equal_toIS4_EE13stl_allocatorIS9_L18MemLabelIdentifier67ELi16EEE9SelectKeyESD_SG_E23find_position_with_hashERS5_j
DUh:__ZN32ReadOnlyCollection_1_t150044199710set_list_0EP12Il2CppObject
Yzf:_CompareInfo_Finalize_m404687489
Wib:__Z18Transfer_BlittableI19StreamedBinaryWriteLb0E11ColorRGBA32EvRK29SerializationCommandArgumentsR31RuntimeSerializationCommandInfo
dph:_UTF8Decoder_GetChars_m1236346907
Onk:_Quaternion_GetHashCode_m2636680144_AdjustorThunk
_Bg:__ZN32InternalEnumerator_1_t281129360011set_array_0EP11Il2CppArray
j0k:__ZL99AudioSource_t3935305588_CustomAttributesCacheGenerator_AudioSource_t3935305588____clip_PropertyInfoP21CustomAttributesCache
$Wj:__ZN6il2cpp8metadata13GenericMethod9GetMethodEPK19Il2CppGenericMethod
Wp:__ZNSt3__26vectorIN4core12basic_stringIcNS1_20StringStorageDefaultIcEEEENS_9allocatorIS5_EEE7reserveEj
Jkk:__Z31UnityAction_1__ctor_m1210528642P25UnityAction_1_t1755411925P12Il2CppObjectiPK10MethodInfo
a5d:_Default_SelectProperty_m1220817815
ZNd:_RemotingConfiguration_IsRemotelyActivatedClientType_m4117048589
guh:_TimeSpan_get_Hours_m550761902
Hub:__ZN13GfxDeviceGLES11SetViewportERK5RectTIiE
uf:_emscripten_glDepthRange
N0h:_SslStreamBase_BeginNegotiateHandshake_m4180435790
dXb:__ZNSt3__26vectorINS_4pairIN4core12basic_stringIcNS2_20StringStorageDefaultIcEEEES6_EE13stl_allocatorIS7_L18MemLabelIdentifier38ELi16EEE12__move_rangeEPS7_SC_SC_
t$b:__Z14resize_trimmedINSt3__26vectorIN9ShaderLab20SerializedSubProgram12UAVParameterENS0_9allocatorIS4_EEEEEvRT_j
Ssc:__ZN5Unity9rapidjson13GenericReaderINS0_4UTF8IcEES3_13JSONAllocatorE11ParseObjectILj1ENS0_25GenericInsituStringStreamIS3_EENS0_15GenericDocumentIS3_S4_S4_EEEEvRT0_RT1_
kp:__ZN6Object23VirtualRedirectTransferER19StreamedBinaryWrite
sAg:__ZN32InternalEnumerator_1_t126723150811set_array_0EP11Il2CppArray
fEf:__ZNK27NumberFormatInfo_t43587713821get_perMilleSymbol_28Ev
ava:__Z28EnsureRenderTextureIsCreatedP13RenderTexture
K1h:_SslStreamBase_EndWrite_m4073224031
pX:__ZNSt3__218__insertion_sort_3IRNS_6__lessI14ObjectLoadDataS2_EEPS2_EEvT0_S6_T_
Opf:__ZN20Delegate_t118839281317set_method_info_6EP12MethodInfo_t
O_h:__ZN23InterfaceActionInvoker4IP12Il2CppObjectS1_S1_S1_E6InvokeEjP11Il2CppClassS1_S1_S1_S1_S1_
gEa:__ZN4crndL20crnd_default_reallocEPvjPjbS0_
Twi:__Z54RuntimeInvoker_CustomAttributeNamedArgument_t287865710PFvvEPK10MethodInfoPvPS4_
YZk:__ZL122SupportedRenderingFeatures_t353898663_CustomAttributesCacheGenerator_U3CrendererSupportsReflectionProbesU3Ek__BackingFieldP21CustomAttributesCache
YBa:__ZN18SpriteAtlasManager19AddRequestingSpriteE4PPtrI6SpriteE
DZh:_UnityAction_1__ctor_m483887086_gshared
JQc:__ZNSt3__26__treeINS_12__value_typeIN4core12basic_stringIcNS2_20StringStorageDefaultIcEEEE14CallbackArray3IRKS6_R8JSONReadbEEENS_19__map_value_compareIS6_SD_NS_4lessIS6_EELb1EEE13stl_allocatorISD_L18MemLabelIdentifier6ELi16EEE25__emplace_unique_key_argsIS6_JNS_4pairIS6_SC_EEEEENSN_INS_15__tree_iteratorISD_PNS_11__tree_nodeISD_PvEEiEEbEERKT_DpOT0_
gTb:__ZN23ScriptableRenderContextC2Ev
MLh:_List_1_CheckIndex_m581273900_gshared
i5k:_strtox_763
stk:_WaitForSeconds_t1699091251_marshal_pinvoke
k1g:__ZNK26SimpleCollator_t287783472918get_unsafeFlags_12Ev
_ob:__Z26BuildSerializationCacheFor17ScriptingClassPtrRb
GYi:__ZL25UnresolvedVirtualCall_102P12Il2CppObject28StreamingContext_t3711869237PK10MethodInfo
GAb:__ZN7ApiGLES15BlitFramebufferEN2gl6HandleILNS0_10ObjectTypeE9EEENS0_15FramebufferReadES3_S3_iiiiiiiiNS0_15FramebufferTypeE
Xmj:_il2cpp_class_get_name
epi:__Z112RuntimeInvoker_RuntimeObject_RuntimeObject_RuntimeObject_RuntimeObject_RuntimeObject_RuntimeObject_RuntimeObjectPFvvEPK10MethodInfoPvPS4_
kzk:__ZL70AssemblyVersionCompatibility_t766556580_CustomAttributesCacheGeneratorP21CustomAttributesCache
CYk:__ZL60ReadOnlyAttribute_t3518714744_CustomAttributesCacheGeneratorP21CustomAttributesCache
Wle:_Array_SetValue_m3998268557
Krc:__ZN8JSONRead8TransferI8Vector4fEEvRT_PKc17TransferMetaFlagsb
$ti:__Z59RuntimeInvoker_Boolean_t97287965_X509ChainStatus_t133602714PFvvEPK10MethodInfoPvPS4_
Zqi:__Z52RuntimeInvoker_Boolean_t97287965_Vector3_t3722313464PFvvEPK10MethodInfoPvPS4_
lbd:__ZN23TypeBuilder_t107394815414set_methods_14EP31MethodBuilderU5BU5D_t3705301900
evb:__ZN13GfxDeviceGLES35InitializeGPUSkinPoseBufferInternalEP17GPUSkinPoseBuffer
$ag:_ToBase64Transform_InternalTransformFinalBlock_m360524956
YJk:__ZL63ThreadStateException_t3003788475_CustomAttributesCacheGeneratorP21CustomAttributesCache
_ij:__ZN6il2cpp6icalls8mscorlib6SystemL8IsStaticEPK12PropertyInfo
Arb:__Z9InitInputv
nyj:__ZN30dense_hashtable_const_iteratorINSt3__24pairIK10KeyWrapperIPK22Il2CppGenericParameterEPK24MonoGenericParameterInfoEES6_N6il2cpp5utils11PointerHashIS4_EEN14dense_hash_mapIS6_SA_SF_NS6_14EqualsComparerINS0_8equal_toIS5_EEEENS0_9allocatorISB_EEE9SelectKeyESK_SM_E30advance_past_empty_and_deletedEv
Zja:__ZN17TransformInternal36OnScaleChangedCalculateTransformTypeE15TransformAccess
hze:__ZN16VirtFuncInvoker2IP22BigInteger_t2902905090iP12Il2CppObjectE6InvokeEjS3_iS3_
Xjb:__Z29Transfer_Blittable_ArrayFieldI19StreamedBinaryWrite8Vector4fEvRT_R9ArrayInfoRK23StaticTransferFieldInfo
Ryf:__ZN30DateTimeFormatInfo_t240585370140set__UniversalSortableDateTimePattern_24EP8String_t
V2a:__ZN16MemoryFileSystem6DeleteER13FileEntryDatab
sji:__Z81RuntimeInvoker_Void_t1185182177_RuntimeObject_Int64_t3736567304_Int32_t2950945753PFvvEPK10MethodInfoPvPS4_
gOg:__ZN22Enumerator_t195756751624get_address_of_current_3Ev
QMh:_List_1_set_Item_m1979164443_gshared
Doe:_Boolean_System_IConvertible_ToUInt16_m3465173538_AdjustorThunk
nHk:__ZL56HashAlgorithm_t1432317219_CustomAttributesCacheGeneratorP21CustomAttributesCache
Jcb:__Z29Transfer_Blittable_ArrayFieldI14SafeBinaryReadyEvRT_R9ArrayInfoRK23StaticTransferFieldInfo
BBd:__ZN23AsyncResult_t419430957219set_call_message_12EP29MonoMethodMessage_t2807636944
oAi:_Match__ctor_m2425511580
YNc:__ZN9Scripting11UnityEngine18CharacterInfoProxy9InitProxyEv
oAk:__ZL63FileNotFoundException_t225391025_CustomAttributesCacheGeneratorP21CustomAttributesCache
Qgd:_MonoMethod__ctor_m3792454563
q1a:__ZNK25MultiBlocksMemoryFileData5CloneEv
dod:__ZN38InternalsVisibleToAttribute_t92289363418set_assemblyName_0EP8String_t
u2j:_GC_add_ext_descriptor
apj:__ZNK15dense_hashtableINSt3__24pairIK10KeyWrapperINS1_IPK14Il2CppAssemblyP11Il2CppClassEEEjEES9_17ReflectionMapHashIS8_EN14dense_hash_mapIS9_jSD_NS9_14EqualsComparerINS0_8equal_toIS8_EEEENS0_9allocatorISB_EEE9SelectKeyESI_SK_E23find_position_with_hashERSA_j
j6h:__ZN18PKCS12_t410153306114set__keyBags_2EP21ArrayList_t2718874744
n4j:__ZN6il2cpp2os14WindowsRuntime22GetRestrictedErrorInfoEv
Axf:__Z25Il2CppCodeGenWriteBarrierI26SimpleCollator_t2877834729EvPPT_S2_
$0f:_CryptoConfig_CreateFromName_m1538277313
y9c:__ZN31OpCodes_t126150456_StaticFields15set_Prefix7_191E17OpCode_t123070264
A0a:__ZN17ArchiveFileSystem11CreateAsDirER13FileEntryData
Abl:dynCall_iiiiiiiiiiii
SJj:__ZNK24dense_hashtable_iteratorINSt3__24pairIK10KeyWrapperIP14Il2CppIUnknownEjEES5_N6il2cpp5utils11PointerHashIS3_EEN14dense_hash_mapIS5_jSB_NS5_14EqualsComparerINS0_8equal_toIS4_EEEENS0_9allocatorIS7_EEE9SelectKeyESG_SI_EneERKSL_
XPc:__ZN18UnityConnectClient16IsServiceEnabledEv
Rzf:__ZN27NumberFormatInfo_t43587713821set_perMilleSymbol_28EP8String_t
t3a:__ZN22VertexDeclarationCacheD0Ev
hGd:_MethodResponse_InitMethodProperty_m3208531417
B3:__ZN6prcoreL17RemapGenericFloatI16TexFormatRGFloat17TexFormatRGBAHalfEEvPKNS_9InnerInfoE
Tnk:__ZNK22Quaternion_t23019283317get_z_2Ev
TB:__ZN12AudioManager22CreateFMODSoundFromWWWEP10IWWWStream15FMOD_SOUND_TYPE17FMOD_SOUND_FORMATjjbbP10SampleClip
L9b:__ZNK32RendererMaterialAnimationBinding15GenerateBindingERKN4core12basic_stringIcNS0_20StringStorageDefaultIcEEEEbRN11UnityEngine9Animation14GenericBindingE
Fjd:_TargetException__ctor_m4172127019
eGk:__ZL58BinaryFormatter_t3197753202_CustomAttributesCacheGeneratorP21CustomAttributesCache
_Nc:__GLOBAL__sub_I_TilemapScriptingClasses_cpp
Qba:__ZN9Scripting11UnityEngine21GradientAlphaKeyProxy9InitProxyEv
BV:__ZN8Remapper23GetOrGenerateInstanceIDERK26SerializedObjectIdentifier
KZa:__ZN17FileSystemHandler10AtomicMoveER13FileEntryDataS1_
Tfi:__Z85RuntimeInvoker_Void_t1185182177_Int32_t2950945753_Int32_t2950945753_Int32_t2950945753PFvvEPK10MethodInfoPvPS4_
jRd:_BinaryFormatter_get_SurrogateSelector_m2111882017
mij:__ZNSt3__26__treeIP11Il2CppClassNS_4lessIS2_EENS_9allocatorIS2_EEE12__find_equalIS2_EERPNS_16__tree_node_baseIPvEERPNS_15__tree_end_nodeISC_EERKT_
eP:__ZN9profiling21GetProfilerManagerPtrEv
APc:__ZN9Scripting11UnityEngine25RemoteConfigSettingsProxy9InitProxyEv
JVd:_CustomInfo__ctor_m426096741
Bxh:__ZNK26TypedReference_t149110811910get_type_0Ev
bBa:__ZN6Sprite8TransferI24GenerateTypeTreeTransferEEvRT_
jee:__ZN19SafeBag_t396124819911set__asn1_1EP16ASN1_t2114160832
wMd:_SoapTypeAttribute_get_IsInteropXmlType_m629667929
r7d:_ConstructorBuilder_get_IsCompilerContext_m3364441562
XCg:_InternalEnumerator_1_System_Collections_IEnumerator_get_Current_m694606607_gshared
gBa:__ZN7SubMesh8TransferI24GenerateTypeTreeTransferEEvRT_
As:__ZN9Scripting11UnityEngine31AnimatorOverrideControllerProxy12CleanupProxyEv
k_j:__ZN14Il2CppIMarshalC2Ev
gHi:_Literal_IsComplex_m4067122560
ZJk:__ZL47Timer_t716671026_CustomAttributesCacheGeneratorP21CustomAttributesCache
Gpb:__ZN19GfxThreadableDevice20SetShadersThreadableEPP10GpuProgramPPK20GpuProgramParametersPKPKh
Shj:__ZN6il2cpp6icalls8mscorlib6SystemL16CheckMemberMatchI9FieldInfoNS_5utils10functional6FilterINSt3__212basic_stringIcNS8_11char_traitsIcEENS8_9allocatorIcEEEENS5_13VmStringUtils23CaseInsensitiveComparerEEEEEbPKT_PK11Il2CppClassSN_iRKT0_
iKi:__ZNK14Uri_t10023632421get_cachedToString_14Ev
RIf:_DirectoryInfo__ctor_m126519516
ked:_MethodBase_GetMethodFromIntPtr_m3014201362
gGi:_Reference_get_CapturingGroup_m3861468528
zfi:__Z40RuntimeInvoker_TypeAttributes_t113483779PFvvEPK10MethodInfoPvPS4_
TBg:_InternalEnumerator_1_Dispose_m726871561_AdjustorThunk
qoc:__ZN9JSONWrite8TransferI13dynamic_arrayIaLj0EEEEvRT_PKc17TransferMetaFlags
fsd:_ChannelServices_IsLocalCall_m3035930722
Bcf:_Enumerator_MoveNext_m635366482
lhe:_X509Extension_Equals_m1222951829
Qxi:__Z37RuntimeInvoker_Enumerator_t1789501480PFvvEPK10MethodInfoPvPS4_
ENj:__ZN6il2cpp8metadata15GenericMetadata15GetGenericClassEiPK17Il2CppGenericInst
F4g:__ZN22BigInteger_t290290508910set_data_1EP24UInt32U5BU5D_t2770800703
lbb:__Z18Transfer_BlittableI14SafeBinaryReadLb0E10Matrix4x4fEvRK29SerializationCommandArgumentsR31RuntimeSerializationCommandInfo
qob:__Z24GetFixedBehaviourManagerv
rvk:__ZL69IntPtr_t_CustomAttributesCacheGenerator_IntPtr_op_Equality_m408849716P21CustomAttributesCache
ihj:__ZN6il2cpp2vm10ThreadPool4WaitEP17Il2CppAsyncResultPPv
ige:_PKCS12_Encrypt_m2617413749
fbi:_X509Crl_VerifySignature_m1377612461
uje:_Activator_CreateInstance_m94526014
Cze:__ZN16ASN1_t211416083312set_m_nTag_0Eh
z5k:_vfprintf
xff:_DateTime_get_Month_m1566006993
adf:_Stack_Clear_m2010200235
LP:__ZNSt3__26__treeI19RepeatingLogMessageNS_4lessIS1_EE13stl_allocatorIS1_L18MemLabelIdentifier74ELi16EEE12__find_equalIS1_EERPNS_16__tree_node_baseIPvEERPNS_15__tree_end_nodeISC_EERKT_
nqi:__Z68RuntimeInvoker_Void_t1185182177_UInt16_t2177724958_SByte_t1669577662PFvvEPK10MethodInfoPvPS4_
Fzh:_UInt64_System_IConvertible_ToChar_m2074245892
lJb:__ZN20DynamicPropertySheetD0Ev
k3k:__ZNK27ContactFilter2D_t380520344121get_maxNormalAngle_10Ev
Cpd:_SafeHandle_Dispose_m4229010569
hXb:__ZN14SafeBinaryRead17RegisterConverterEPKcS1_PFbPvRS_E
_ki:__Z35RuntimeInvoker_CipherMode_t84635067PFvvEPK10MethodInfoPvPS4_
R9d:_FieldBuilder_SetValue_m828035213
Wza:__ZN15NameToObjectMapI6ShaderNSt3__23mapI4PPtrIS0_EN4core12basic_stringIcNS5_20StringStorageDefaultIcEEEENS1_4lessIS4_EENS1_9allocatorINS1_4pairIKS4_S9_EEEEEENS1_8multimapIS9_S4_NSA_IS9_EENSC_INSD_IKS9_S4_EEEEEEE4FindERSK_
YHk:__ZL66IUnrestrictedPermission_t3525915666_CustomAttributesCacheGeneratorP21CustomAttributesCache
XDd:_CallContext__ctor_m383148220
cBg:__Z40InternalEnumerator_1_Dispose_m1063909490P32InternalEnumerator_1_t1765566171PK10MethodInfo
Qvk:__ZL72Enum_t4135868527_CustomAttributesCacheGenerator_Enum_ToObject_m121962870P21CustomAttributesCache
uMh:__ZN23InterfaceActionInvoker2IP24ObjectU5BU5D_t2843939325iE6InvokeEjP11Il2CppClassP12Il2CppObjectS1_i
Dnk:__ZN22Quaternion_t23019283317set_y_1Ef
Dkc:__Z21Object_CUSTOM_DestroyP12Il2CppObjectf
qSk:__ZL99SetupCoroutine_t2062820429_CustomAttributesCacheGenerator_SetupCoroutine_InvokeMoveNext_m3199342729P21CustomAttributesCache
yFb:__ZN8Material26ResetAllCachedMaterialDataEP6Shader
L9h:__ZN20X509Chain_t86378360011set_roots_0EP37X509CertificateCollection_t1542168550
p9c:__ZN31OpCodes_t126150456_StaticFields15set_Mul_Ovf_182E17OpCode_t123070264
q9:__ZN9Scripting11UnityEngine3U2D23SpriteAtlasManagerProxy9InitProxyEv
QOe:__ZNK29HttpsClientStream_t116055256114get__status_21Ev
RLg:_Comparer_1__cctor_m3761458313_gshared
_nf:_DateTimeOffset_CompareTo_m1350732322_AdjustorThunk
Z:invoke_diddi
sek:_PersistentCall__ctor_m1217622171
_9i:__ZN30dense_hashtable_const_iteratorINSt3__24pairIK10KeyWrapperIN6il2cpp5utils13dynamic_arrayIPK10Il2CppTypeLj4EEEEPFvvEEESA_NS3_8metadata19Il2CppSignatureHashEN14dense_hash_mapISA_SD_SG_NSA_14EqualsComparerINSF_22Il2CppSignatureCompareEEENS0_9allocatorISE_EEE9SelectKeyESK_SM_EC2EPK15dense_hashtableISE_SA_SG_SO_SK_SM_EPKSE_SV_b
sGh:__ZN26KeyValuePair_2_t25302173199set_key_0EP12Il2CppObject
Gce:_StrongName_get_TokenAlgorithm_m1794722022
aEh:__ZN36RijndaelManagedTransform_t41026010149set__st_0EP28RijndaelTransform_t631222241
wab:__Z18Transfer_BlittableI14SafeBinaryReadLb0EiEvRK29SerializationCommandArgumentsR31RuntimeSerializationCommandInfo
Ydj:__ZN6il2cpp2vm13MetadataCache30GetPropertyDefinitionFromIndexEi
G_d:__Z25Il2CppCodeGenWriteBarrierI23IntComparer_t3812095803EvPPT_S2_
$$i:_StaticAccessorAttribute__ctor_m2905272167
RQc:__ZN22BaseUnityConnectClient17InitializeSessionERKN4core12basic_stringIcNS0_20StringStorageDefaultIcEEEES6_N19CloudServiceHandler13InitModeFlagsE
yyk:__ZL56KeyCollection_t4251528776_CustomAttributesCacheGeneratorP21CustomAttributesCache
ARf:__ZNK33UnmanagedMemoryStream_t423411766912get_Closed_8Ev
Ksi:__Z74RuntimeInvoker_RuntimeObject_Int32_t2950945753_RuntimeObject_RuntimeObjectPFvvEPK10MethodInfoPvPS4_
YUg:__ZN24Dictionary_2_t144469424912set_count_10Ei
ZKd:_ReturnMessage_get_Exception_m3375728265
B8g:__ZNK22DSAManaged_t280026018216get_m_disposed_3Ev
LOd:__ZN41RemotingServices_t1401195504_StaticFields29set__serializationFormatter_1EP27BinaryFormatter_t3197753202
Xgl:_emscripten_glDeleteBuffers__wrapper
gDg:_InternalEnumerator_1_MoveNext_m3664960764_AdjustorThunk
rhc:__ZN13MonoBehaviour34StopCoroutineFromEnumeratorManagedE18ScriptingObjectPtr
ct:__ZN9Scripting11UnityEngine10Animations36AnimationMotionXToDeltaPlayableProxy12CleanupProxyEv
wSk:__ZL57DebugLogHandler_t826086171_CustomAttributesCacheGeneratorP21CustomAttributesCache
dxd:__ZN21InterfaceFuncInvoker0IP20Identity_t1873279371E6InvokeEjP11Il2CppClassP12Il2CppObject
FOh:_List_1__ctor_m1345008423_gshared
WSg:__Z30Transform_1_Invoke_m4084479750P23Transform_1_t4218749037P12Il2CppObjectbPK10MethodInfo
aqh:__ZN37Thread_t2300836069_ThreadStaticFields10set__ec_44EP28ExecutionContext_t1748372627
aSd:__ZNK31OpCodes_t126150456_StaticFields14get_Brfalse_56Ev
Eff:_DateTimeOffset__ctor_m2084804982
jab:__ZN9profiling17ScriptingProfiler31UpdateRegisteredScriptingEventsEv
Kgc:__ZL34GetComponentsImplementationRecurseILb1ELi0ELi2EEbR10GameObjectbRK17CompareParametersRK39GetComponentsImplementation_ReturnValue
GGc:__ZN10ClipperLib7Clipper24InsertLocalMinimaIntoAELEx
eLd:__ZN25ReturnMessage_t137698560814set__outArgs_0EP24ObjectU5BU5D_t2843939325
HIa:__ZN13ScreenManager22SetResolutionImmediateEii14FullscreenModei
Cdi:__Z64RuntimeInvoker_RuntimeObject_Int32_t2950945753_Int16_t2552820387PFvvEPK10MethodInfoPvPS4_
O1b:__ZN9ShaderLab14SerializedPass8TransferI18StreamedBinaryReadEEvRT_
jAj:__ZN6il2cpp2gc9AllocatorIP12Il2CppThreadEC2Ev
EWi:_RemoteSettings_RemoteSettingsBeforeFetchFromServer_m4228537265
D6:__ZL47__ManagedRegistrationHelperFunction_CameraProxyPv
W6g:_ASN1_get_Length_m1923878580
WZg:_EqualityComparer_1__cctor_m4244842342_gshared
fmd:__Z23il2cpp_codegen_get_typePFvvEP8String_tbPKc
tqk:_SendMouseEvents_DoSendMouseEvents_m2140870850
LTc:__ZN14UnityAnalyticsD0Ev
cub:__Z18IsCompressedFormat14GraphicsFormat
UZf:_SerializationEntry_get_Name_m1530029541_AdjustorThunk
AUe:_TypeConverterAttribute_GetHashCode_m948291090
Auh:__Z33il2cpp_codegen_check_add_overflowxx
ms:__ZN9Scripting11UnityEngine12Experimental10Animations20AnimationStreamProxy12CleanupProxyEv
ss:__ZN9Scripting11UnityEngine15AvatarMaskProxy12CleanupProxyEv
r7h:__ZNK26X509Certificate_t48924302521get_m_keyalgoparams_7Ev
sYd:_InvalidOperationException__ctor_m1685032583
_aj:__ZN14dense_hash_mapI10KeyWrapperIN6il2cpp5utils13dynamic_arrayIPK10Il2CppTypeLj4EEEEPFvvENS1_8metadata19Il2CppSignatureHashENS8_14EqualsComparerINSB_22Il2CppSignatureCompareEEENSt3__29allocatorINSG_4pairIKS8_SA_EEEEE15set_deleted_keyERSJ_
eQi:__Z33Dictionary_2_get_Item_m3214317455P24Dictionary_2_t1354619006P8String_tPK10MethodInfo
kvh:_TimeSpan_op_Subtraction_m3592306516
Uwj:__ZN13ReflectionMapINSt3__24pairIPK10MethodInfoP11Il2CppClassEEP22Il2CppReflectionMethodEC2Ev
MGe:__ZNK23CipherSuite_t341474457516get_cipherMode_7Ev
iKa:__ZN26EnlightenSystemInformation8TransferI14SafeBinaryReadEEvRT_
U0k:__ZL67ContactFilter2D_t3805203441_CustomAttributesCacheGenerator_maxDepthP21CustomAttributesCache
Htb:__ZN22VertexDeclarationCacheC2Ev
gaa:__ZN9Scripting11UnityEngine9Rendering18CommandBufferProxy9InitProxyEv
Vma:__ZN27PerObjectLightCullingOutputD2Ev
gzi:_IntervalCollection_GetMetaCollection_m4029522214
mD:__ZN12AudioManager35GetCurrentSpatializerDefinitionNameEv
TOf:__ZN24StreamWriter_t126637890422set_internalEncoding_2EP20Encoding_t1523322056
oSf:_Int16_CompareTo_m3705372115
ITi:__Z25Il2CppCodeGenWriteBarrierI18List_1_t2069970928EvPPT_S2_
uxj:__ZNK15dense_hashtableINSt3__24pairIK10KeyWrapperIPK14Il2CppAssemblyEPK22Il2CppMonoAssemblyNameEES6_N6il2cpp5utils11PointerHashIS4_EEN14dense_hash_mapIS6_SA_SF_NS6_14EqualsComparerINS0_8equal_toIS5_EEEENS0_9allocatorISB_EEE9SelectKeyESK_SM_E8min_sizeEjj
_l:_utime
aZk:__ZL56PlayableGraph_t3515989261_CustomAttributesCacheGeneratorP21CustomAttributesCache
Amh:__ZN15StringBuilder_t17set__cached_str_3EP8String_t
t5e:__ZN27X509ChainPolicy_t242692287013set_timeout_5E19TimeSpan_t881159249
Qlj:__ZNSt3__26vectorIN6il2cpp2vm17TypeNameParseInfoENS_9allocatorIS3_EEE8allocateEj
o0h:__ZNK31InternalAsyncResult_t350428282012get_locker_0Ev
kXk:__ZL101Texture2DArray_t4044506685_CustomAttributesCacheGenerator_Texture2DArray__ctor_m2627654179____linear5P21CustomAttributesCache
cAi:_Mark_get_Index_m3048692661_AdjustorThunk
f4h:_TlsServerSettings_get_CertificateRequest_m842655670
eoi:__Z128RuntimeInvoker_Void_t1185182177_RuntimeObject_BooleanU26_t4125257963_SByte_t1669577662_Int32U26_t1369213839_Int32U26_t1369213839PFvvEPK10MethodInfoPvPS4_
ao:FUNCTION_TABLE_viiiiif
bo:FUNCTION_TABLE_viiiiii
cTd:_Int32_System_IConvertible_ToType_m3009233912_AdjustorThunk
Fff:_DateTimeOffset__ctor_m74032857
S2j:__ZN6il2cpp6icalls8mscorlib6System10Reflection4Emit13ModuleBuilder17set_wrappers_typeEP29Il2CppReflectionModuleBuilderP20Il2CppReflectionType
vwh:_Type_type_is_assignable_from_m76737532
zCj:__ZNK10KeyWrapperIP11Il2CppClassE8isNormalEv
lTa:__ZNSt3__26vectorIN4core12basic_stringIcNS1_20StringStorageDefaultIcEEEE13stl_allocatorIS5_L18MemLabelIdentifier13ELi16EEE8__appendEj
FK:__ZN19CloudServiceHandler20StartEventDispatcherERKN11UnityEngine15CloudWebService18CloudServiceConfigERNS1_23WebRequestRestHeaderMapE
kzc:__ZN24b2ChainAndCapsuleContact8EvaluateEP10b2ManifoldRK11b2TransformS4_
S4h:_ValidationResult_get_ErrorCode_m1533688152
eqh:_EventWaitHandle__ctor_m3773182490
Sjb:__Z29Transfer_Blittable_ArrayFieldI19StreamedBinaryWrite8BitFieldEvRT_R9ArrayInfoRK23StaticTransferFieldInfo
sOg:_Enumerator_get_CurrentValue_m3103267885_gshared
RAf:_CultureInfo_get_Parent_m672689885
rmi:__Z50RuntimeInvoker_Int64_t3736567304_SByte_t1669577662PFvvEPK10MethodInfoPvPS4_
P1e:_X509Certificate2_GetValueAsString_m1348462142
L0h:_SslStreamBase_NegotiateHandshake_m2455724401
ikc:__Z37RenderTexture_CUSTOM_SetSRGBReadWriteP12Il2CppObjecth
Yil:_glGetShaderInfoLog__wrapper
YVf:_ObjectReader_ReadObjectGraph_m340866276
TSg:_Transform_1_EndInvoke_m2716226219_gshared
og:_emscripten_glGetTexParameteriv
Ooi:__Z240RuntimeInvoker_RuntimeObject_Int16_t2552820387_RuntimeObject_Int32_t2950945753_Int32_t2950945753_Int32_t2950945753_SByte_t1669577662_SByte_t1669577662_SByte_t1669577662_SByte_t1669577662_Int16_t2552820387_SByte_t1669577662_SByte_t1669577662PFvvEPK10MethodInfoPvPS4_
LBj:__ZN15dense_hashtableINSt3__24pairIK10KeyWrapperINS1_IP11Il2CppClassjEEES4_EES6_N6il2cpp8metadata14ArrayClassHashEN14dense_hash_mapIS6_S4_SB_NS6_14EqualsComparerINSA_17ArrayClassCompareEEENS0_9allocatorIS8_EEE9SelectKeyESF_SH_EC2EjRKSB_RKSF_RKSJ_
Zce:__ZN22StrongName_t409384937720set_tokenAlgorithm_3EP8String_t
Hph:_UnicodeEncoding_GetHashCode_m354003420
Q$b:__ZN9ShaderLab20SerializedSubProgram14ConstantBufferaSERKS1_
rJi:__ZN27Uri_t100236324_StaticFields20set_UriSchemeFile_18EP8String_t
Ptf:_Enum_Equals_m3617313991
$ri:__Z98RuntimeInvoker_Boolean_t97287965_PlayableOutputHandle_t4208053793_PlayableOutputHandle_t4208053793PFvvEPK10MethodInfoPvPS4_
A3k:_ContactFilter2D_SetLayerMask_m3440334821
bm:emscriptenWebGLGetBufferBinding
u9i:__ZNK26InteropDataToTypeConverterclERK17Il2CppInteropData
o1h:_SslStreamBase_get_KeyExchangeStrength_m217695965
Smh:_StringBuilder_get_Length_m3238060835
Gki:__Z60RuntimeInvoker_Void_t1185182177_StreamingContext_t3711869237PFvvEPK10MethodInfoPvPS4_
yea:__ZN9Scripting5Unity11Collections49NativeDisableParallelForRestrictionAttributeProxy9InitProxyEv
tRg:__ZNK24KeyCollection_t19306021216get_dictionary_0Ev
nTc:__ZN22BaseUnityConnectClient38PrepareConfigRequestOnMainThreadStaticEPS_
K9b:__ZNK32RendererMaterialAnimationBinding12GetPPtrValueERKN11UnityEngine9Animation10BoundCurveE
Rlg:_ASCIIEncoding_GetString_m58523364
S8k:__ZNSt3__212basic_stringIcNS_11char_traitsIcEENS_9allocatorIcEEE21__grow_by_and_replaceEjjjjjjPKc
L4h:_TlsStream_Flush_m3793197834
MZa:__ZN22LocalFileSystemHandler9MakeLocalER13FileEntryDatab
_Zi:__ZL25UnresolvedVirtualCall_176P12Il2CppObject20DateTime_t3738529785S1_PK10MethodInfo
eZj:__ZN6il2cpp2vm8Profiler10AllocationEP12Il2CppObjectP11Il2CppClass
ESf:_MemberTypeMetadata__ctor_m2376841411
Zkc:___cxx_global_var_init_2898
S2:__Z13FormatOrderedPKcz
Q$h:__ZNK28SslHandshakeHash_t210758177212get_secret_7Ev
oJg:_InternalEnumerator_1_get_Current_m1506120701_AdjustorThunk
sQa:__ZN11TimeManager23VirtualRedirectTransferER18StreamedBinaryRead
s3e:_X509Chain_GetAuthorityKeyIdentifier_m614536199
TJe:_TlsServerFinished__ctor_m1445633918
WTd:_NumberFormatter_FastIntegerToString_m390846811
mYj:__ZN6il2cpp2vm6String21InitializeEmptyStringEP11Il2CppClass
KPa:__ZN14CompressedMesh10GetQualityE15MeshCompression
ZPb:__ZN25DeferredRenderLoopScratchD0Ev
sXi:__ZL24UnresolvedVirtualCall_34P12Il2CppObjectPK10MethodInfo
V7:__ZL54__ManagedRegistrationHelperFunction_PlayableAssetProxyPv
iri:__Z83RuntimeInvoker_Void_t1185182177_RuntimeObject_Single_t1397266774_Single_t1397266774PFvvEPK10MethodInfoPvPS4_
uch:__ZNK30SymmetricTransform_t380259184213get_workout_6Ev
$va:__ZNK13RenderTexture21GetShadowSamplingModeEv
jsk:_UnityException__ctor_m1456865679
K0:__ZN14PlayableOutput26ClearInvalidSourcePlayableEv
lKe:__ZNK33SendRecordAsyncResult_t371835246721get__asyncException_3Ev
Okj:__ZN6il2cpp2osL14FindFileHandleERK4stat
I$e:__ZNK54X509EnhancedKeyUsageExtension_t4189149453_StaticFields28get_U3CU3Ef__switchU24mapE_6Ev
b$b:__ZN15dense_hashtableINSt3__24pairIKiN4core17string_with_labelILi1EEEEEi18SInt32HashFunctionN14dense_hash_mapIiS5_S7_NS0_8equal_toIiEE13stl_allocatorIS6_L18MemLabelIdentifier1ELi16EEE9SelectKeyESA_SD_E9copy_fromERKSG_j
cQ:__Z34UnregisterCreateThreadCallbackImplPFvPK23UnityProfilerThreadDescPvES2_
R5d:_CustomAttributeNamedArgument_GetHashCode_m2317130892
ETa:__ZN15ResourceManagerD0Ev
g1e:__ZNK27X509Certificate2_t71404912612get__cert_13Ev
d8h:__ZN36DeriveBytes_t1492915136_StaticFields20set_keyDiversifier_0EP22ByteU5BU5D_t4116647657
R6j:__ZN6il2cpp6icalls8mscorlib6System10Reflection4Emit15AssemblyBuilder10basic_initEP47mscorlib_System_Reflection_Emit_AssemblyBuilder
moa:__ZN22CreateGpuProgramOutputD2Ev
mHk:__ZL52HMACSHA512_t923916539_CustomAttributesCacheGeneratorP21CustomAttributesCache
Bhi:__Z81RuntimeInvoker_Void_t1185182177_RuntimeObject_SByte_t1669577662_SByte_t1669577662PFvvEPK10MethodInfoPvPS4_
NLc:__Z50Physics2D_CUSTOM_RaycastNonAlloc_Internal_InjectedRK8Vector2fS1_fRK13ContactFilterP11Il2CppArray
ASc:__ZN11UnityEngine9Analytics18ConnectSessionInfo8TransferER9JSONWrite
g2b:__ZN9ShaderLab14SerializedPass8TransferI19StreamedBinaryWriteEEvRT_
x7f:_SHA1CryptoServiceProvider_Finalize_m1793183797
hMk:__ZL78Convert_t2465617642_CustomAttributesCacheGenerator_Convert_ToUInt64_m409548990P21CustomAttributesCache
VCe:_EncryptedPrivateKeyInfo_get_EncryptedData_m491452551
_Za:__ZN12HandlerChain4OpenER13FileEntryData14FilePermission16FileAutoBehavior
fih:_Array_InternalArray__ICollection_Add_TisPlayerLoopSystem_t105772105_m1930641144_gshared
JLk:__ZL79Convert_t2465617642_CustomAttributesCacheGenerator_Convert_ToUInt16_m1147931813P21CustomAttributesCache
Yrj:__ZN15dense_hashtableINSt3__24pairIK10KeyWrapperINS1_IPK10MethodInfoP11Il2CppClassEEEjEES9_17ReflectionMapHashIS8_EN14dense_hash_mapIS9_jSD_NS9_14EqualsComparerINS0_8equal_toIS8_EEEENS0_9allocatorISB_EEE9SelectKeyESI_SK_E6insertERKSB_
Ule:_Array_SetValue_m394135409
tTe:__Z25Il2CppCodeGenWriteBarrierI26KeysCollection_t1318642398EvPPT_S2_
vu:__ZN9Scripting11UnityEngine2XR5Tango14GridIndexProxy9InitProxyEv
VVa:__ZN13RendererScene23UpdatePreviousFrameDataEii
qIf:_BinaryWriter_Write_m973309864
qjg:_String_Remove_m562998446
Pjc:__Z50Register_UnityEngine_CullingGroup_FinalizerFailurev
Kcg:_SecurityPermission_IsSubsetOf_m545000671
xna:__ZNK4PPtrI5FlareEcvPS0_Ev
Frd:__ZN40ChannelServices_t3942013484_StaticFields24set_registeredChannels_0EP21ArrayList_t2718874744
dkc:__Z36Texture3D_CUSTOM_Internal_CreateImplP12Il2CppObjectiii14GraphicsFormat20TextureCreationFlags
rij:__ZN6il2cpp6icalls8mscorlib6SystemL20GetMethodsByNameImplINS_5utils10functional6FilterINSt3__212basic_stringIcNS7_11char_traitsIcEENS7_9allocatorIcEEEENS4_13VmStringUtils23CaseInsensitiveComparerEEEEEP11Il2CppArrayPK10Il2CppTypejRKT_
ZVk:__ZL65ClearImmediateRenderers_t365505584_CustomAttributesCacheGeneratorP21CustomAttributesCache
t8h:__ZN29X501_t1758824426_StaticFields14set_surname_12EP22ByteU5BU5D_t4116647657
qJc:__ZN14EdgeCollider2D12SetPolygon2DEP9Polygon2D
K3b:__ZN12ShaderErrors11ShaderErrorC2EOS0_
Pfd:__ZNK24MonoEventInfo_t34686661811get_attrs_6Ev
L8k:__ZNKSt3__221__basic_string_commonILb1EE20__throw_out_of_rangeEv
kgi:__Z78RuntimeInvoker_Boolean_t97287965_RuntimeObject_RuntimeObject_Int32_t2950945753PFvvEPK10MethodInfoPvPS4_
fv:__GLOBAL__sub_I_Runtime_Video_0_cpp
mWk:__ZL69TriggerEndOfFrameCallbacks_t2165224221_CustomAttributesCacheGeneratorP21CustomAttributesCache
k7k:___ofl_add
wRi:__ZNK21AudioClip_t368088966525get_m_PCMReaderCallback_4Ev
FJj:__ZNK15dense_hashtableINSt3__24pairIK10KeyWrapperIP14Il2CppIUnknownEjEES5_N6il2cpp5utils11PointerHashIS3_EEN14dense_hash_mapIS5_jSB_NS5_14EqualsComparerINS0_8equal_toIS4_EEEENS0_9allocatorIS7_EEE9SelectKeyESG_SI_E12test_deletedERK24dense_hashtable_iteratorIS7_S5_SB_SK_SG_SI_E
oIf:__ZNK24BinaryWriter_t399259504214get_disposed_4Ev
S7:__ZL57__ManagedRegistrationHelperFunction_PlayerConnectionProxyPv
xxf:__ZNK23CultureInfo_t415784306815get_cultureID_8Ev
iyj:__ZNK15dense_hashtableINSt3__24pairIK10KeyWrapperIPK22Il2CppGenericParameterEPK24MonoGenericParameterInfoEES6_N6il2cpp5utils11PointerHashIS4_EEN14dense_hash_mapIS6_SA_SF_NS6_14EqualsComparerINS0_8equal_toIS5_EEEENS0_9allocatorISB_EEE9SelectKeyESK_SM_E3endEv
hZe:__ZN43ServicePointManager_t170559685_StaticFields22set_maxServicePoints_4Ei
PCf:__ZNK30DateTimeFormatInfo_t240585370127get_allShortTimePatterns_34Ev
$wh:_Type_get_ContainsGenericParameters_m3456799426
Fsb:__ZNK4PPtrI23ShaderVariantCollectionEcvPS0_Ev
bA:__ZN5audio5mixer22UpdateAudioMixerMemoryERKNS0_18AudioMixerConstantERNS0_16AudioMixerMemoryEfPN4FMOD6SystemEf
Xi:_glCopyTexSubImage2D
S9b:__ZNK24RendererAnimationBinding13GetFloatValueERKN11UnityEngine9Animation10BoundCurveE
GMi:__ZNK31AnalyticsEventParam_t248012192823get_m_RequirementType_0Ev
xsk:_UnitySynchronizationContext_ExecuteTasks_m1310741010
OOi:__ZN27AnalyticsTracker_t73102137812set_m_Dict_5EP24Dictionary_2_t2865362463
h7f:_RIPEMD160Managed_CompressFinal_m497690796
Rpb:__ZN18ScreenManagerWebGL13SetShowCursorEb
Zug:_InternalEnumerator_1_MoveNext_m1773160976_gshared
CDb:__ZN13DrawImmediateC2ER9GfxDevice
Q5k:_frexp
G5k:_fmt_x
Eye:_Kernel_MultiplyMod2p32pmod_m451690680
hbb:__Z18Transfer_BlittableI14SafeBinaryReadLb0E5RectTIfEEvRK29SerializationCommandArgumentsR31RuntimeSerializationCommandInfo
AXd:_NumberFormatter_NumberToString_m2562899600
vag:_SymmetricAlgorithm_get_FeedbackSize_m3666584308
I5k:_fmt_u
ewk:__ZL70RuntimeArray_CustomAttributesCacheGenerator_Array_GetValue_m1062368071P21CustomAttributesCache
mhl:_emscripten_glGenVertexArrays__wrapper
H5k:_fmt_o
SBh:_Version_Clone_m1749041863
Jlb:__ZL22Transfer_ManagedObjectI18StreamedBinaryReadLb1EEvRK29SerializationCommandArgumentsR31RuntimeSerializationCommandInfo
qSg:_ShimEnumerator_get_Key_m4155849607_gshared
b_e:__ZN20WebProxy_t201676054219set_bypassOnLocal_1Eb
qDa:__ZN6prcoreL21CreateRemapAnyBlitterE13TextureFormatS0_
vEe:_RSAManaged_ExportParameters_m1754454264
Poe:_Boolean_Equals_m535526264_AdjustorThunk
KUc:__ZN13dynamic_arrayIiLj0EE6insertEPiPKiS3_
JOe:__ZNK25SslStreamBase_t166741340717get_inputBuffer_4Ev
ESi:__ZNK46AudioExtensionManager_t3220897493_StaticFields50get_m_SourceAmbisonicDecoderExtensionDefinitions_2Ev
Djf:_Convert_ToUInt16_m3116648921
fgc:__ZL12HashLen0to16PKcj
cBc:__ZN14Raycast2DQuery8RunQueryEb
k$a:__ZN20LocalFileSystemPosix4LockER13FileEntryData12FileLockMode
kMa:__ZN8Renderer24SetupNewRendererForSceneEv
owh:_Type_internal_from_name_m1721940673
Gsk:__ZN19Vector2_t215622952318get_address_of_x_0Ev
uWb:__ZN13ModuleManager4LoadEv
_tf:_Environment_get_TickCount_m2088073110
nHd:_RemotingServices_GetMethodBaseFromName_m3194612939
Upc:__Z35Transfer_Blittable_FixedBufferFieldI8JSONReadtEvRK29SerializationCommandArgumentsR31RuntimeSerializationCommandInfo
tna:__ZN4PPtrI7TextureE8TransferI14SafeBinaryReadEEvRT_
reg:__ZNK40SecurityElement_t1046076091_StaticFields23get_invalid_tag_chars_4Ev
nAa:__ZNK6Sprite22GetTypeVirtualInternalEv
l8c:__ZN31OpCodes_t126150456_StaticFields15set_Ldsflda_124E17OpCode_t123070264
h_c:__ZN13RuntimeStaticINSt3__26vectorI23UnityVRDeviceDefinition13stl_allocatorIS2_L18MemLabelIdentifier90ELi16EEEELb0EE13StaticDestroyEPv
nn:FUNCTION_TABLE_iiiiiiiiiiiiii
J$i:_NativePropertyAttribute__ctor_m2033094153
qUc:__ZN19UnityConnectService18OnPlayerQuitStaticEPS_
HIg:_InternalEnumerator_1_System_Collections_IEnumerator_get_Current_m2358118467_gshared
Slb:__Z29Transfer_Blittable_ArrayFieldI18StreamedBinaryReaddEvRT_R9ArrayInfoRK23StaticTransferFieldInfo
FRe:_SslClientStream_RaiseServerCertificateValidation_m3477149273
Mhb:__Z29Transfer_Blittable_ArrayFieldI24GenerateTypeTreeTransfer5RectTIiEEvRT_R9ArrayInfoRK23StaticTransferFieldInfo
Xsa:__ZN16ReflectionProbes8ScheduleEN18ReflectionProbeJob7JobTypeEP15ReflectionProbei
OKe:_ClientSessionInfo_KeepAlive_m1020179566
Q6h:__ZNK23DeriveBytes_t149291513611get__salt_6Ev
vzk:__ZL51Calendar_t1661121569_CustomAttributesCacheGeneratorP21CustomAttributesCache
$Oj:___cxx_global_var_init_1_11169
SX:__ZN16MessageForwarder13HandleMessageEPviR11MessageData
z$a:__Z18IsDirectoryCreatedRKN4core12basic_stringIcNS_20StringStorageDefaultIcEEEE
zIi:__ZNK27Uri_t100236324_StaticFields21get_UriSchemeHttps_22Ev
scg:_String_FormatHelper_m3913915042
KUe:__ZNK43ServicePointManager_t170559685_StaticFields20get_server_cert_cb_9Ev
e5d:_ConstructorInfo__cctor_m1016079270
f5i:__ZN15dense_hashtableINSt3__24pairIK10KeyWrapperIPKcEP11Il2CppClassEES5_N6il2cpp5utils11StringUtils12StringHasherIS4_EEN14dense_hash_mapIS5_S8_SE_NS5_14EqualsComparerINSB_13VmStringUtils21CaseSensitiveComparerEEENS0_9allocatorIS9_EEE9SelectKeyESJ_SL_E15set_deleted_keyERKS9_
fje:_AttrListImpl_get_Names_m977594476
nGk:__ZL53IFormatter_t3549834567_CustomAttributesCacheGeneratorP21CustomAttributesCache
OLi:__ZN24AesTransform_t29571236119set_Nr_14Ei
Tfg:__ZN25SecurityFrame_t142246247513set__assert_2EP24PermissionSet_t223948603
fjd:_Pointer_Box_m389276611
G9a:__ZNK17InstancingBatcher15RenderInstancesERK19ShaderPropertySheetRKNS_22RenderInstancesConfigsERK11MeshBuffersRK16DrawBuffersRange16VertexInputMasks
Qrf:_StackTrace_get_FrameCount_m344690939
cRf:_UnexceptionalStreamWriter_Write_m363195622
ZNc:__ZN9Scripting11UnityEngine18CharacterInfoProxy12CleanupProxyEv
O$d:_MonoType_IsArrayImpl_m3283552941
FG:__ZNSt3__26__treeINS_12__value_typeIN19CloudServiceHandler11ServiceTypeEPS2_EENS_19__map_value_compareIS3_S5_NS_4lessIS3_EELb1EEE13stl_allocatorIS5_L18MemLabelIdentifier88ELi16EEE12__find_equalIS3_EERPNS_16__tree_node_baseIPvEENS_21__tree_const_iteratorIS5_PNS_11__tree_nodeIS5_SG_EEiEERPNS_15__tree_end_nodeISI_EESJ_RKT_
sQg:__ZN21Enumerator_t18556172532get_address_of_host_enumerator_0Ev
Q3k:_Physics2D_Raycast_m1700114981
OGf:_Guid_Equals_m3683678873_AdjustorThunk
Tph:_Thread_GetCompressedStack_m2923422412
JFe:__ZN28GenericInterfaceFuncInvoker2IbP26X509Certificate_t713131622P22Int32U5BU5D_t385246372E6InvokeEPK10MethodInfoP12Il2CppObjectS1_S3_
due:_SynchronizedArrayListWrapper_CopyTo_m4207791406
U$e:_X509BasicConstraintsExtension_ToString_m1809935297
C3a:__ZN9GfxDevice20SetMaxBufferedFramesEi
aNg:__Z36KeyValuePair_2_get_Value_m1669764045P26KeyValuePair_2_t3842366416PK10MethodInfo
skg:__ZN20Encoding_t152332205614set_codePage_0Ei
TXi:__ZL24UnresolvedVirtualCall_61P12Il2CppObjectsPK10MethodInfo
xyj:__ZN10KeyWrapperIPK10Il2CppTypeE14EqualsComparerIN6il2cpp8metadata26Il2CppTypeEqualityComparerEEC2ES7_
Jvc:__ZN10Collider2D19WakeAllBodyContactsEv
_z:__ZN24AudioScriptBufferManagerD2Ev
m7c:__ZN31OpCodes_t126150456_StaticFields15set_Ldind_I2_71E17OpCode_t123070264
nFf:__ZN20TextInfo_t381042552221set_m_listSeparator_0EP8String_t
v8h:__ZN29X501_t1758824426_StaticFields14set_initial_14EP22ByteU5BU5D_t4116647657
dZd:_MethodAccessException__ctor_m3542088436
CYb:__Z23ConvertIntegerToTypePtrIsEbPvR14SafeBinaryRead
wxc:__ZN12b2MouseJoint11ShiftOriginERK6b2Vec2
J3i:__ZN6il2cpp2vm5Class12HasAttributeEP11Il2CppClassS3_
Ose:_ArrayListWrapper_get_Capacity_m51087796
TUa:__ZN18AwakeFromLoadQueue5ClearEv
gab:__ZN15SerializeTraitsI11MonoManagerE8TransferI18StreamedBinaryReadEEvRS0_RT_
XYg:_EqualityComparer_1_System_Collections_IEqualityComparer_GetHashCode_m2230215241_gshared
u6d:__ZNK26AssemblyBuilder_t3598852509get_sn_43Ev
Ird:__ZN40ChannelServices_t3942013484_StaticFields21set_CrossContextUrl_3EP8String_t
hxe:_Hashtable_Contains_m2145146412
abf:__ZNK17Queue_t363752339317get__growFactor_4Ev
Q5:__ZN6prcoreL29inner_stretch_rgb565_bilinearEPKNS_9InnerInfoE
GMg:_Enumerator__ctor_m1195706188_AdjustorThunk
B2c:_TypeBuilder__ctor_m3644689907
jrj:__ZNK10KeyWrapperIPK10Il2CppTypeEcvRKS2_Ev
Zfk:_MaterialEffectPlayable_Equals_m3750885802
Spa:__Z26TransformVerticesInnerLoopILb0ELb0ELb1EEvPhRK10Matrix4x4fRK10Matrix3x3fjPKhiS8_ii25GfxTransformVerticesFlagsj
Sai:__ZNK19X509Crl_t114876738816get_hash_value_9Ev
iCj:__ZNK15dense_hashtableINSt3__24pairIK10KeyWrapperIP11Il2CppClassES4_EES5_N6il2cpp8metadata16SZArrayClassHashEN14dense_hash_mapIS5_S4_SA_NS5_14EqualsComparerINS9_19SZArrayClassCompareEEENS0_9allocatorIS7_EEE9SelectKeyESE_SG_E12bucket_countEv
FTd:_Int32_FindCurrency_m3541026887
_yi:_Interval_CompareTo_m3282557545
w7c:__ZN31OpCodes_t126150456_StaticFields15set_Stind_I1_81E17OpCode_t123070264
ePb:__ZNK14RenderSettings19GetFlatAmbientColorEv
RCa:__ZN6prcoreL10inner_flipILj4EEEvPhS1_j
Wsj:__ZN6il2cpp2gc19AppendOnlyGCHashMapINSt3__24pairIPK11Il2CppImageP11Il2CppClassEEP22Il2CppReflectionModule17ReflectionMapHashIS9_ENS2_8equal_toIS9_EEE11TryGetValueERKS9_PSB_
oae:_GenericTypeParameterBuilder_IsPrimitiveImpl_m1952010459
_Uh:_ReadOnlyCollection_1_CopyTo_m3474153465_gshared
xch:__ZNK30SymmetricTransform_t380259184211get__rng_11Ev
wEh:_RijndaelManagedTransform_TransformBlock_m1610137419
oIk:__ZL94WindowsIdentity_t2948242406_CustomAttributesCacheGenerator_WindowsIdentity_Dispose_m3466258450P21CustomAttributesCache
CJa:__ZN14Texture2DArray17UploadToGfxDeviceEv
NDf:__ZNK27NumberFormatInfo_t43587713827get_numberGroupSeparator_18Ev
Ry:__Z14FMODMemoryFreePvjPKc
fyi:_InterpreterFactory_NewInstance_m2792693614
Xdk:_NetFxCoreExtensions_GetMethodInfo_m444570327
yfe:_X509CertificateEnumerator_MoveNext_m2269241175
E_k:__ZL63SpriteBone_t303320096_CustomAttributesCacheGenerator_m_RotationP21CustomAttributesCache
qqe:_Char_System_IConvertible_ToDecimal_m3534906463
kyk:__ZL86MSCompatUnicodeTable_t1453885583_CustomAttributesCacheGenerator_U3CU3Ef__switchU24map4P21CustomAttributesCache
okd:_TypeDelegator_IsPointerImpl_m458295709
yIc:__ZNK13BoxCollider2D22GetTypeVirtualInternalEv
xyc:__Z6b2FreePv10MemLabelId
FCi:__ZNK17Regex_t365730985320get_machineFactory_1Ev
grk:_StackTraceUtility_SetProjectFolder_m830524047
sLe:_ClientSessionInfo_Finalize_m2165787049
n2i:__ZN6il2cpp2vmL15GetBitmapNoInitEP11Il2CppClassPjRjj
cJe:_ClientContext_Clear_m1774063253
v0e:__ZN21PublicKey_t377958268413set__params_2EP25AsnEncodedData_t382354011
dnf:_DateTime_AddSeconds_m332574389_AdjustorThunk
Trk:_RequestAtlasCallback_Invoke_m378128467
_Xf:__ZNK24TypeMetadata_t313952326017get_MemberInfos_3Ev
rpe:_Byte_System_IConvertible_ToSByte_m1869482168
WEj:__GLOBAL__sub_I_Assembly_cpp
_Ta:__ZN15SerializeTraitsI13dynamic_arrayIN15ResourceManager10DependencyELj0EEE8TransferI24GenerateTypeTreeTransferEEvRS3_RT_
Inb:__ZN10MonoScript8TransferI19StreamedBinaryWriteEEvRT_
Xvg:__Z37InternalEnumerator_1__ctor_m819716934P32InternalEnumerator_1_t1291559127P11Il2CppArrayPK10MethodInfo
exi:__Z44RuntimeInvoker_MonoWin32Resource_t1904229483PFvvEPK10MethodInfoPvPS4_
shk:_GameObject_Internal_AddComponentWithType_m3797731663
Cg:_emscripten_glIsTexture
vg:_emscripten_glHint
ELi:_Check_SourceAndPredicate_m2332465641
sJi:__ZN27Uri_t100236324_StaticFields19set_UriSchemeFtp_19EP8String_t
Wvk:__ZL70RuntimeArray_CustomAttributesCacheGenerator_Array_get_Length_m21610649P21CustomAttributesCache
Xje:__ZN40AppDomain_t1571427825_ThreadStaticFields30set_type_resolve_in_progress_3EP21Hashtable_t1853889766
zeg:_String_op_Inequality_m215368492
Yeg:__ZN27SecurityContext_t243544204414set__capture_0Eb
KIf:__ZN24BinaryWriter_t399259504222set_maxCharsPerRound_6Ei
qZc:__ZL58__ManagedRegistrationHelperFunction_VideoClipPlayableProxyPv
Uyh:_UInt32_System_IConvertible_ToInt64_m2261037378
fd:_SDL_UpperBlit
Osa:__Z35GetTextureDecodeValuesWithIntensity16TextureUsageMode17TextureColorSpace10ColorSpacef
TDi:_Parser_ParseRepetitionBounds_m1246581246
mca:__ZN9Scripting11UnityEngine12Experimental9Rendering16CullResultsProxy9InitProxyEv
mzj:__ZN15dense_hashtableINSt3__24pairIK10KeyWrapperINS1_IPK9EventInfoP11Il2CppClassEEEjEES9_17ReflectionMapHashIS8_EN14dense_hash_mapIS9_jSD_NS9_14EqualsComparerINS0_8equal_toIS8_EEEENS0_9allocatorISB_EEE9SelectKeyESI_SK_E15set_deleted_keyERKSB_
jlc:__ZL55__ManagedRegistrationHelperFunction_GUIScrollGroupProxyPv
sxc:__ZNK12b2MouseJoint10GetAnchorAEv
gMj:__ZN6il2cpp2vm5Image20EmbeddedResourceDataC2ENS0_22EmbeddedResourceRecordEPv
hzf:_GregorianCalendar__ctor_m979779718
YQe:_SslClientStream__ctor_m2402546929
myd:__ZNK40SynchronizedContextReplySink_t377092265010get__att_2Ev
zob:__ZN14SafeBinaryRead20OverrideRootTypeNameEPKc
USe:_DictionaryNodeEnumerator_get_Entry_m2309234501
L0i:__ZNK10KeyWrapperIPK22Il2CppGenericParameterE14EqualsComparerINSt3__28equal_toIS2_EEEclERKS3_SA_
JFg:__ZN30InternalEnumerator_1_t837023449set_idx_1Ei
OW:__ZN14FileCacherRead16UnlockCacheBlockEj
Fxg:_InternalEnumerator_1_System_Collections_IEnumerator_Reset_m521819017_AdjustorThunk
Guf:_IsolatedStorageException__ctor_m1022659452
_wi:__Z31RuntimeInvoker_Slot_t3975888750PFvvEPK10MethodInfoPvPS4_
RQ:__ZN10InstancingL21OnGraphicsCapsChangedEv
tDk:__ZL61ClassInterfaceType_t4029497327_CustomAttributesCacheGeneratorP21CustomAttributesCache
Hth:_WaitHandle_get_Handle_m3260446580
fh:_emscripten_glUniform1f
sbf:_SortedList__ctor_m1261191695
OAj:__ZN6il2cpp2vm6Thread28GetThreadStaticDataForThreadEiP12Il2CppThread
hh:_emscripten_glUniform1i
Gtc:__ZN9Scripting11UnityEngine27ParticleSystemRendererProxy12CleanupProxyEv
igb:__Z18Transfer_BlittableI24GenerateTypeTreeTransferLb1EN4math12int3_storageEEvRK29SerializationCommandArgumentsR31RuntimeSerializationCommandInfo
sQ:__Z33UnregisterDeviceEventCallbackImplPFv23UnityGfxDeviceEventTypeE
vH:__ZN11UnityEngine15CloudWebService16SessionContainer20RestoreSessionHeaderERKN4core12basic_stringIcNS2_20StringStorageDefaultIcEEEES8_RNS0_13SessionHeaderE
nXc:__ZN22UnityWebRequestManager13BackendRetainEv
Qec:__ZN8Material28ApplyMaterialPropertyDrawersEv
C5j:__ZN6il2cpp2os12Cryptography23GetCryptographyProviderEv
E0d:__ZNK19MulticastDelegate_t15get_kpm_next_10Ev
L1i:__ZN24dense_hashtable_iteratorINSt3__24pairIK10KeyWrapperIPK22Il2CppGenericParameterEP11Il2CppClassEES6_N6il2cpp5utils11PointerHashIS4_EEN14dense_hash_mapIS6_S9_SE_NS6_14EqualsComparerINS0_8equal_toIS5_EEEENS0_9allocatorISA_EEE9SelectKeyESJ_SL_E30advance_past_empty_and_deletedEv
v$f:_SByte_System_IConvertible_ToByte_m2268214252_AdjustorThunk
Vii:__Z151RuntimeInvoker_RuntimeObject_Int32_t2950945753_RuntimeObject_ObjectU5BU5DU26_t712384779_RuntimeObject_RuntimeObject_RuntimeObject_ObjectU26_t2146539884PFvvEPK10MethodInfoPvPS4_
NSc:__ZN8JSONRead19TransferSTLStyleMapINSt3__23mapIN4core12basic_stringIcNS3_20StringStorageDefaultIcEEEEN11UnityEngine9Analytics16LimitEventConfigENS1_4lessIS7_EE13stl_allocatorINS1_4pairIKS7_SA_EEL18MemLabelIdentifier6ELi16EEEEEEvRT_17TransferMetaFlags
p1h:_TlsServerSettings_get_Certificates_m3981837031
oNi:__ZN24EventTrigger_t252745169518set_m_ApplyRules_3Eb
VU:__ZN14MessageHandler3GetEv
FVa:__ZL19BlendLightProbesJobP19BlendProbesJobInputj
Zyg:__Z74InternalEnumerator_1_System_Collections_IEnumerator_get_Current_m548105685P32InternalEnumerator_1_t1747214298PK10MethodInfo
Qgk:_SupportedRenderingFeatures_FallbackMixedLightingModeByRef_m3859171964
Fe:_emscripten_glAttachShader
YN:__Z40DebugStringToFilePostprocessedStacktraceRK21DebugStringToFileData
Crh:_SendOrPostCallback_EndInvoke_m2485163446
f1b:__ZNSt3__26vectorIN4core12basic_stringIcNS1_20StringStorageDefaultIcEEEENS_9allocatorIS5_EEE6assignIPS5_EENS_9enable_ifIXaasr21__is_forward_iteratorIT_EE5valuesr16is_constructibleIS5_NS_15iterator_traitsISC_E9referenceEEE5valueEvE4typeESC_SC_
yLa:__ZThn32_N8Renderer15AddAsRenderNodeER15RenderNodeQueueRK20DeprecatedSourceData
wNc:__ZN9Scripting11UnityEngine12TerrainProxy9InitProxyEv
uAb:__ZN13dynamic_arrayIN18GlslGpuProgramGLES9GLProgramELj0EE6insertEPS1_jRKS1_
BMg:_Enumerator__ctor_m1195706188_gshared
g5h:__ZN37BasicConstraintsExtension_t24621952788set_cA_3Eb
Ouk:__ZL76String_t_CustomAttributesCacheGenerator_String_Concat_m1809518182____values0P21CustomAttributesCache
Qab:__Z18Transfer_BlittableI14SafeBinaryReadLb0E11QuaternionfEvRK29SerializationCommandArgumentsR31RuntimeSerializationCommandInfo
vIc:__ZN13BoxCollider2D16CheckConsistencyEv
prb:__Z21BeginSplashScreenFadev
zYa:__ZN12ImmediatePtrI9TransformE8TransferI18StreamedBinaryReadEEvRT_
FN:_tlsf_walk_heap
uii:__Z49RuntimeInvoker_Void_t1185182177_OpCode_t123070264PFvvEPK10MethodInfoPvPS4_
tDj:__ZNK15dense_hashtableINSt3__24pairIK10KeyWrapperIP11Il2CppClassES4_EES5_N6il2cpp8metadata16SZArrayClassHashEN14dense_hash_mapIS5_S4_SA_NS5_14EqualsComparerINS9_19SZArrayClassCompareEEENS0_9allocatorIS7_EEE9SelectKeyESE_SG_E10test_emptyERK24dense_hashtable_iteratorIS7_S5_SA_SI_SE_SG_E
qRi:__ZN21AudioClip_t368088966530set_m_PCMSetPositionCallback_5EP34PCMSetPositionCallback_t1059417452
lri:__Z69RuntimeInvoker_Void_t1185182177_Int32_t2950945753_HitInfo_t3229609740PFvvEPK10MethodInfoPvPS4_
akf:_Convert_ToUInt32_m3592050311
kb:invoke_vif
Kt:__ZN4PPtrI10MonoScriptE8TransferI19StreamedBinaryWriteEEvRT_
ib:invoke_vid
AGg:_InternalEnumerator_1__ctor_m2202456613_AdjustorThunk
sLi:__ZNK30SymmetricTransform_t380259184311get__rng_11Ev
sb:invoke_vii
iIb:__ZNK12ImageFilters8DoRenderER17ShaderPassContextP13RenderTextureS3_RKNSt3__26vectorI11ImageFilterNS4_9allocatorIS6_EEEE
TDe:__ZNK22RSAManaged_t17570938208get_e_13Ev
Eha:__ZN12TLSAllocatorI14StackAllocatorE16ThreadInitializeEP13BaseAllocator
Eki:__Z82RuntimeInvoker_Boolean_t97287965_SByte_t1669577662_RuntimeObject_SByte_t1669577662PFvvEPK10MethodInfoPvPS4_
N3a:__ZN9GfxDevice32UpdateStereoViewProjectionMatrixE21MonoOrStereoscopicEye
IQa:__ZN12InputManager23VirtualRedirectTransferER18StreamedBinaryRead
iUj:__ZN6il2cpp5utils13dynamic_arrayIPNS_2os6ThreadELj4EE9owns_dataEv
OJ:__Z29GetCloudWebServicesModuleSpecv
r$d:_MonoType_GetConstructorImpl_m441167626
jWj:__ZN6il2cpp6icalls8mscorlib6System13GlobalizationL24string_invariant_compareEP12Il2CppStringiiS5_iii
vkk:__Z39UnityEvent_1_RemoveListener_m1448056678P24UnityEvent_1_t2052235288P25UnityAction_1_t1755411925PK10MethodInfo
bRh:__ZN19Queue_1_t120077810611set__head_1Ei
eaf:__ZNK21HashValues_t61838744510get_host_0Ev
Z1a:__ZN25SingleBlockMemoryFileDataD0Ev
Mu:__ZNSt3__26vectorI14ConstantStringNS_9allocatorIS1_EEE6assignINS_11__wrap_iterIPS1_EEEENS_9enable_ifIXaasr21__is_forward_iteratorIT_EE5valuesr16is_constructibleIS1_NS_15iterator_traitsISA_E9referenceEEE5valueEvE4typeESA_SA_
Y1k:__ZL68TrackableField_t1772682203_CustomAttributesCacheGenerator_m_EnumTypeP21CustomAttributesCache
hH:__ZN11UnityEngine15CloudWebService16SessionContainer21ConvertFromFolderTimeERKN4core12basic_stringIcNS2_20StringStorageDefaultIcEEEEPjPt
Suc:__Z18RegisterUnityClassI27PerformanceReportingManagerEvPKc
SCf:__ZNK30DateTimeFormatInfo_t240585370124get_yearMonthPatterns_37Ev
amb:__Z19TransferField_ArrayI18StreamedBinaryRead27Converter_SimpleNativeClassI17AnimationCurveTplIfEEEvRK23StaticTransferFieldInfoR31RuntimeSerializationCommandInfoRT0_
Acb:__ZNSt3__26vectorI8GUIStyle13stl_allocatorIS1_L18MemLabelIdentifier1ELi16EEE7reserveEj
OOa:__ZN4Mesh23VirtualRedirectTransferER18StreamedBinaryRead
bjh:_Array_InternalArray__ICollection_CopyTo_TisKeyframe_t4206410242_m2132255743_gshared
WFj:__ZN6il2cpp6icalls8mscorlib6System9Threading6Thread27GetSerializedCurrentCultureEP12Il2CppThread
TLe:_Context_set_ReadSequenceNumber_m2154909392
jEh:_RijndaelTransform_SubByte_m3037693507
KTk:__ZL70Mesh_t3648964284_CustomAttributesCacheGenerator_Mesh__ctor_m2533762929P21CustomAttributesCache
U4b:__Z31CalculateHierarchyTransformType23TransformAccessReadOnly
py:__ZN4FMOD8ChannelI11setPositionEjj
qTk:__ZL59LightmapBakeType_t1497855756_CustomAttributesCacheGeneratorP21CustomAttributesCache
UFc:__ZN10Collider2D12SetPolygon2DEP9Polygon2D
GGh:__ZN22Enumerator_t34586065847set_l_0EP18List_1_t1569362707
g0j:_GC_set_fl_marks
Q3a:__ZN9GfxDevice17SetStereoViewportE15StereoscopicEyeRK5RectTIiE
l2:__ZN17BaseObjectManager13StaticDestroyEPv
qDe:__ZN25RSAParameters_t17284066138set_DQ_4EP22ByteU5BU5D_t4116647657
UL:__GLOBAL__sub_I_Runtime_Graphics_Mesh_1_cpp
vod:_ClassInterfaceAttribute__ctor_m637338123
pCc:__ZN27b2UpdateTriggerContactsTask8FinalizeEv
zC:__ZN12AudioManager14UpdateListenerERK8Vector3fS2_S2_S2_
Yvk:__ZL70RuntimeArray_CustomAttributesCacheGenerator_Array_get_Rank_m3448755881P21CustomAttributesCache
l9d:_EnumBuilder_GetEvent_m4074915332
bMf:_FileSystemInfo_get_FullName_m3468398407
rw:__ZN4FMOD6Reverb13setPropertiesEPK22FMOD_REVERB_PROPERTIES
pca:__ZN9Scripting11UnityEngine12Experimental9Rendering21CoreCameraValuesProxy12CleanupProxyEv
UJb:__ZN9DepthPass13PrepareSubsetEjRK10RenderNodeifRK17ShaderReplaceData
wig:_String_IndexOf_m3406607758
$0i:__ZNK30dense_hashtable_const_iteratorINSt3__24pairIK10KeyWrapperIPK22Il2CppGenericParameterEP11Il2CppClassEES6_N6il2cpp5utils11PointerHashIS4_EEN14dense_hash_mapIS6_S9_SE_NS6_14EqualsComparerINS0_8equal_toIS5_EEEENS0_9allocatorISA_EEE9SelectKeyESJ_SL_EneERKSO_
uvd:__ZNK20Identity_t187327937130get__serverDynamicProperties_4Ev
Y$b:__ZN9ShaderLab20SerializedSubProgram16TextureParameter8TransferI14SafeBinaryReadEEvRT_
PCe:__ZN34EncryptedPrivateKeyInfo_t86211683616set__algorithm_0EP8String_t
bga:__ZN5Unity9Component8TransferI19StreamedBinaryWriteEEvRT_
Bze:_ASN1__ctor_m3517592395
EMc:__ZN9Scripting11UnityEngine26ControllerColliderHitProxy12CleanupProxyEv
Szf:__ZN27NumberFormatInfo_t43587713829set_positiveInfinitySymbol_29EP8String_t
J7a:__Z22GetRenderTextureFormat14GraphicsFormat
Khh:_Array_InternalArray__ICollection_Add_TisCustomAttributeNamedArgument_t287865710_m4157175270_gshared
rOd:__ZNK37WellKnownServiceTypeEntry_t256152718013get_obj_uri_3Ev
Qp:__ZN4core20StringStorageDefaultIcE6assignEPKcj
FVb:__ZN23TextureStreamingManager6UpdateEv
nib:__Z15Transfer_StringI19StreamedBinaryWriteLb0EEvRK29SerializationCommandArgumentsR31RuntimeSerializationCommandInfo
Pye:_BigInteger_ModPow_m3776562770
g4f:_KeyedHashAlgorithm_get_Key_m1843505301
$Pj:__ZN15dense_hashtableINSt3__24pairIK10KeyWrapperIP12Il2CppObjectEN6il2cpp2gc9CachedCCWEEES5_NS7_5utils11PointerHashIS3_EEN14dense_hash_mapIS5_S9_SD_NS5_14EqualsComparerINS0_8equal_toIS4_EEEENS0_9allocatorISA_EEE9SelectKeyESI_SK_E3endEv
Yaa:__ZN9Scripting11UnityEngine9Playables22PlayableBehaviourProxy9InitProxyEv
YTd:__ZN46NumberFormatter_t1182924621_ThreadStaticFields28set_threadNumberFormatter_25EP27NumberFormatter_t1182924621
JPe:_RecordProtocol_ProcessChangeCipherSpec_m15839975
dse:_ArrayList_IndexOf_m305368842
oJc:__ZNK14EdgeCollider2D22GetCompositeCapabilityEv
zkj:__ZN6il2cpp2vm7Runtime33CreateUnhandledExceptionEventArgsEP15Il2CppException
PTb:__ZN6Camera6SetFarEf
HQd:_FormatterConverter_ToBoolean_m1680758923
A5:__ZN6prcoreL12RemapGenericI17TexFormatABGR888817TexFormatARGB8888EEvPKNS_9InnerInfoE
bia:__ZN11GameManager17MainThreadCleanupEv
_cf:_Stack_get_Count_m2258661097
g5e:_X509Chain__ctor_m2674663382
NQj:__ZN6il2cpp2vm27StacktraceSentryMethodStackC2Ev
X7g:__ZNK22DSAManaged_t280026018219get_KeyGenerated_14Ev
lKg:_InternalEnumerator_1_System_Collections_IEnumerator_Reset_m1775752715_AdjustorThunk
FCg:__ZNK32InternalEnumerator_1_t139145510411get_array_0Ev
c2i:__ZL19GetEncodedIndexTypej
J3k:_Physics2D_Raycast_m2082490717
nVk:__ZL61AIUpdatePostScript_t1991765663_CustomAttributesCacheGeneratorP21CustomAttributesCache
Vhe:__ZNK25SmallXmlParser_t97378783915get_xmlSpaces_3Ev
OFc:__ZN10Collider2D12AddToManagerEv
OTf:_SerializationCallbacks_GetSerializationCallbacks_m2939476649
A8a:__ZNSt3__26vectorIN20GpuProgramParameters19AtomicCounterBufferENS_9allocatorIS2_EEE21__push_back_slow_pathIRKS2_EEvOT_
fFb:__ZZ23InitPlayerLoopCallbacksvEN41PostLateUpdateUpdateResolutionRegistrator7ForwardEv
BRg:_KeyCollection_GetEnumerator_m1168803204_gshared
cnb:__Z25scripting_array_class_get17ScriptingClassPtrj
Unc:__ZL22Transfer_ManagedObjectI9JSONWriteLb1EEvRK29SerializationCommandArgumentsR31RuntimeSerializationCommandInfo
tB:__ZNK10SampleClip22GetTypeVirtualInternalEv
K4a:__ZN9GfxDevice20DestroyRenderSurfaceER12ObjectHandleI17RenderSurface_TagP17RenderSurfaceBaseE
Ucf:_Stack__ctor_m2602729586
Io:__ZN9Scripting11UnityEngine2AI12NavMeshProxy12CleanupProxyEv
OKk:__ZL81Convert_t2465617642_CustomAttributesCacheGenerator_Convert_ToDateTime_m1031474510P21CustomAttributesCache
Ome:_Array_slow_swapper_m4116724811
HSb:__ZN12_GLOBAL__N_15qAsinEff
Nck:_Display__ctor_m3105658851
ewg:_InternalEnumerator_1_System_Collections_IEnumerator_get_Current_m2629988057_AdjustorThunk
Fha:__ZN12TLSAllocatorI14StackAllocatorE13ThreadCleanupEv
eWg:_Dictionary_2_get_Item_m2136868513_gshared
nMa:__ZN14SafeBinaryRead21TransferSTLStyleArrayI13dynamic_arrayI8Vector4fLj0EEEEvRT_17TransferMetaFlags
zy:__Z18GetAudioManagerPtrv
sOf:__ZNK24StreamReader_t400993589917get_buffer_size_5Ev
txg:_InternalEnumerator_1_Dispose_m2043273260_AdjustorThunk
RYj:__ZThn4_N6il2cpp2vm13ComObjectBase16MarshalInterfaceEP13Il2CppIStreamRK10Il2CppGuidPvjS7_j
$af:_Queue_Clone_m178259971
VZb:__Z27FindActiveTransformWithPathPKc
yyh:_UInt16_ToString_m3020002356
ska:__ZN12BaseRendererD0Ev
zcd:__ZN30MarshalAsAttribute_t352257197815set_SizeConst_5Ei
tYb:__Z29StdTemplateConversionFunctionIbyEbPvR14SafeBinaryRead
YDh:_RijndaelManaged_GenerateKey_m1736287430
ESe:__ZNK26ListDictionary_t162449231011get_count_0Ev
igg:__ZNK33Encoding_t1523322056_StaticFields22get_unicodeEncoding_22Ev
t7f:_SHA1Internal_Initialize_m499810128
$hk:__ZNK17Logger_t27403245540get_U3CfilterLogTypeU3Ek__BackingField_2Ev
ZLb:__ZNK6Camera7GetNearEv
$9d:_GenericTypeParameterBuilder_GetConstructorImpl_m863833310
ZQg:_Enumerator_get_Current_m3687673883_AdjustorThunk
JZa:__ZN17FileSystemHandler11SetReadOnlyER13FileEntryDatab
bAb:__ZN7ApiGLES11UnmapBufferEjN2gl12BufferTargetE
mZj:__ZN6il2cpp5utilsL24Utf32CharToSurrogatePairEjRA2_Ds
RFa:__Z25GetNextAllowedTextureSizeib13TextureFormat
$pb:__ZN20LocalFileSystemWebGL4CopyER13FileEntryDataS1_
M$h:__ZNK28SslHandshakeHash_t210758177218get_innerPadSHA_10Ev
O8:__ZL68__ManagedRegistrationHelperFunction_UnitySynchronizationContextProxyPv
vK:__ZN19CloudServiceHandler6RetainEv
I7j:__ZN6il2cpp2os9Semaphore4WaitEb
twc:__ZN15b2FrictionJointD0Ev
pUh:_ReadOnlyCollection_1_System_Collections_IList_IndexOf_m198887188_gshared
unh:_UTF32Encoding_GetBytes_m3180303867
Uic:__Z51GraphicsFormatUtility_CUSTOM_GetRenderTextureFormat14GraphicsFormat
WWa:__Z34scripting_liveness_calculation_endPv
jUj:__ZN6il2cpp2os6ThreadC2Ev
aqg:_U3CGetEnumeratorU3Ec__Iterator0_System_Collections_Generic_IEnumeratorU3CTU3E_get_Current_m1566629109_gshared
v8b:__ZN28ReflectionProbeAnchorManager7CleanupEv
mxf:__ZNK36CompareInfo_t1092934962_StaticFields15get_collators_6Ev
nof:_DateTimeOffset_get_UtcDateTime_m1021718282_AdjustorThunk
juj:__ZN14dense_hash_mapI10KeyWrapperINSt3__24pairIPK12PropertyInfoP11Il2CppClassEEEj17ReflectionMapHashIS8_ENS9_14EqualsComparerINS1_8equal_toIS8_EEEENS1_9allocatorINS2_IKS9_jEEEEE6insertERKSI_
f2f:__ZNK24DESTransform_t408890549918get_keySchedule_16Ev
yjb:__ZL22Transfer_ManagedObjectI19StreamedBinaryWriteLb0EEvRK29SerializationCommandArgumentsR31RuntimeSerializationCommandInfo
IRj:__ZNK6il2cpp2os10SocketImpl12GetLastErrorEv
aSe:_HybridDictionary_get_Count_m1166314536
wpc:__Z18Transfer_BlittableI8JSONReadLb0E8Vector3fEvRK29SerializationCommandArgumentsR31RuntimeSerializationCommandInfo
kAj:__ZN6il2cpp2vm6Thread6DetachEP12Il2CppThread
I5h:_GeneralNames_get_DNSNames_m3788548987
tMh:_List_1_AddCollection_m2026039026_gshared
K5e:_X509ChainStatus_get_Status_m2572005749_AdjustorThunk
zQi:__Z29Enumerator_Dispose_m536244888P22Enumerator_t2125101616PK10MethodInfo
_Hd:__ZN32DictionaryEnumerator_t251672955220set__hashtableEnum_1EP12Il2CppObject
jRi:_AudioMixerPlayable_GetHandle_m57919556
QZf:_SerializationEntry_t648286436_marshal_pinvoke
rzd:__ZNK41LifetimeServices_t3061370510_StaticFields25get__sponsorshipTimeout_3Ev
Yqd:__ZN23ChannelData_t335362997222set__clientProviders_5EP21ArrayList_t2718874744
VYd:_Math_Round_m3018379666
Dli:__Z41RuntimeInvoker_Boolean_t97287965_IntPtr_tPFvvEPK10MethodInfoPvPS4_
tVj:__ZN6il2cpp2os10ThreadImpl5SleepEjb
iXh:__ZN28GenericInterfaceFuncInvoker1IbbE6InvokeEPK10MethodInfoP12Il2CppObjectb
rUh:_ReadOnlyCollection_1_System_Collections_IList_Remove_m1965826685_gshared
HAi:__ZN27MatchCollection_t139536372010set_list_1EP21ArrayList_t2718874744
fGb:__ZN10GUITexture18AlignPointToDeviceERK8Vector2fRS0_
Vee:__ZN34X509ExtensionCollection_t60955470814set_readOnly_1Eb
Xpf:_Delegate_CreateDelegate_m1051651521
lfe:__ZNK29X501_t1758824425_StaticFields12get_title_11Ev
Ogl:_glBindSampler__wrapper
Yvg:_InternalEnumerator_1_System_Collections_IEnumerator_Reset_m4202665280_gshared
lEb:__ZNSt3__26vectorIN20ArchiveStorageHeader12StorageBlockE13stl_allocatorIS2_L18MemLabelIdentifier55ELi16EEE8__appendEj
XEj:___cxx_global_var_init_10597
bi:_emscripten_set_mouseup_callback
xik:_Mathf_Clamp_m3350697880
A6a:__ZN9GfxDevice27SetRandomWriteTargetTextureEi9TextureID
lHf:__ZN24BinaryReader_t242807729314set_m_stream_0EP18Stream_t1273022909
UVg:_Dictionary_2_System_Collections_Generic_ICollectionU3CSystem_Collections_Generic_KeyValuePairU3CTKeyU2CTValueU3EU3E_Contains_m3033743418_gshared
Tki:__Z165RuntimeInvoker_Void_t1185182177_UInt32U26_t3735378166_Int32_t2950945753_UInt32U26_t3735378166_Int32_t2950945753_Int32_t2950945753_Int32_t2950945753_Int32_t2950945753PFvvEPK10MethodInfoPvPS4_
kMh:_List_1_System_Collections_IList_Remove_m3140917266_gshared
Llg:_Encoding_get_DecoderFallback_m1525880676
HFk:__ZL59ITrackingHandler_t1244553475_CustomAttributesCacheGeneratorP21CustomAttributesCache
ZDi:_CompositeExpression__ctor_m2434860303
F3f:_DSASignatureDeformatter__ctor_m2759753186
B5e:_X509ChainElementCollection_System_Collections_IEnumerable_GetEnumerator_m3829089536
Upb:__ZNK18ScreenManagerWebGL8GetWidthEv
Oxg:_InternalEnumerator_1_Dispose_m3716424577_gshared
Zok:_ReflectionProbe_CallReflectionProbeEvent_m1520775591
Udj:__ZN6il2cpp2vm13MetadataCache33GetFieldDefaultValueDataFromIndexEi
qB:__ZN10SampleClipD2Ev
LXe:__ZNK26HttpWebRequest_t166943651514get_version_21Ev
gRf:_UnmanagedMemoryStream_get_CanSeek_m2636857629
qWa:__Z13GetGISettingsv
fK:__ZN11UnityEngine15CloudWebService20WebRequestRestClientC2Ev
$Wh:_Nullable_1_GetHashCode_m4232053575_gshared
ldh:_Array_InternalArray__ICollection_Contains_TisRuntimeObject_m4067783231_gshared
gyb:__ZNSt3__214__split_bufferINS_4pairIj16TextureDimensionEERNS_9allocatorIS3_EEE9push_backEOS3_
RW:__ZN14FileCacherRead13GetFileLengthEv
ZPi:_ValueProperty_IsValid_m3724034537
Yvd:_Context_ToString_m1073616138
nr:__ZL22GetComponentsInParentsRK10GameObjectPFbRKN5Unity9ComponentEERN4core8hash_setIPS3_NS8_4hashISA_EENSt3__28equal_toISA_EEEE
svj:__ZN15dense_hashtableINSt3__24pairIK10KeyWrapperINS1_IPK9EventInfoP11Il2CppClassEEEjEES9_17ReflectionMapHashIS8_EN14dense_hash_mapIS9_jSD_NS9_14EqualsComparerINS0_8equal_toIS8_EEEENS0_9allocatorISB_EEE9SelectKeyESI_SK_E12resize_deltaEjj
pfd:_MonoCMethod_Invoke_m2700167622
jaf:_KeyMarker__cctor_m2590194914
B5j:__ZN6il2cpp8metadata14Il2CppTypeHash4HashEPK10Il2CppType
J6j:__ZN6il2cpp2os13SemaphoreImplC2Eii
ABh:_Version__ctor_m872301635
tHc:__ZNSt3__26vectorIN10ClipperLib8IntPointENS_9allocatorIS2_EEE21__push_back_slow_pathIS2_EEvOT_
Ija:__ZN10GameObject21EnsureUniqueTransformEv
Tlc:__ZL58__ManagedRegistrationHelperFunction_NativeInputSystemProxyPv
Ewj:__ZN6il2cpp2vm10Reflection27GetCustomAttributesCacheForEPK10MethodInfo
dNh:_List_1_System_Collections_Generic_ICollectionU3CTU3E_get_IsReadOnly_m507350231_gshared
Axb:__ZN11ContextGLES6CreateEi
vPh:_List_1_set_Capacity_m3382070520_gshared
uti:__Z68RuntimeInvoker_Boolean_t97287965_RuntimeObject_ObjectU26_t2146539884PFvvEPK10MethodInfoPvPS4_
wpf:_Decimal_CompareTo_m3502307243_AdjustorThunk
N1k:__ZL72AnalyticsEventParam_t2480121928_CustomAttributesCacheGenerator_m_GroupIDP21CustomAttributesCache
Zha:__ZN14StackAllocator16FrameMaintenanceEb
YHa:__Z18ReadStringFromFilePN4core17string_with_labelILi1EEERKNS_12basic_stringIcNS_20StringStorageDefaultIcEEEE
poc:__ZN9JSONWrite8TransferI13dynamic_arrayIjLj0EEEEvRT_PKc17TransferMetaFlags
zX:__ZNK10GameObject20QueryComponentByTypeEPKN5Unity4TypeE
Sof:_Decimal_System_IConvertible_ToInt32_m1488426794_AdjustorThunk
Rla:__ZN6Camera8TransferI19StreamedBinaryWriteEEvRT_
FZd:_MonoCustomAttrs_IsUserCattrProvider_m2878058089
DMe:_Context_EndSwitchingSecurityParameters_m4148956166
zbj:__ZNK14dense_hash_setI10KeyWrapperIPK19Il2CppGenericMethodEN6il2cpp8metadata23Il2CppGenericMethodHashENS4_14EqualsComparerINS6_26Il2CppGenericMethodCompareEEENSt3__29allocatorIS4_EEE3endEv
cFa:__ZN11TextureData5ResetEv
i1k:__ZL67ContactPoint2D_t3390240644_CustomAttributesCacheGenerator_m_EnabledP21CustomAttributesCache
lje:_ActivationContext_Dispose_m2038725770
leb:__Z35Transfer_Blittable_FixedBufferFieldI17RemapPPtrTransferiEvRK29SerializationCommandArgumentsR31RuntimeSerializationCommandInfo
HS:__ZL30InitializeCoreScriptingClassesv
BFg:_InternalEnumerator_1_Dispose_m630370856_AdjustorThunk
Hi:_glBlitFramebuffer
K0a:__ZN17ArchiveFileSystem5TouchER13FileEntryData
KRg:_KeyCollection_System_Collections_Generic_IEnumerableU3CTKeyU3E_GetEnumerator_m818204647_gshared
geb:__Z35Transfer_Blittable_SingleValueFieldI14SafeBinaryReadhEvRT_R17GeneralMonoObjectRK23StaticTransferFieldInfo
Juh:_TimeSpan_Duration_m2963553230
ymk:__ZNK26PlayableOutput_t317989410514get_m_Handle_0Ev
pCa:__ZNK12CubemapArray22GetTypeVirtualInternalEv
I6h:__ZNK31PKCS12_t4101533061_StaticFields29get_U3CU3Ef__switchU24map6_13Ev
An:FUNCTION_TABLE_vif
yn:FUNCTION_TABLE_vid
In:FUNCTION_TABLE_vii
fXa:__Z40scripting_liveness_calculation_from_root18ScriptingObjectPtrPv
TZf:_SerializationEntry__ctor_m1411687997_AdjustorThunk
qbg:__ZN29TripleDESTransform_t9641690609set_E2_16EP24DESTransform_t4088905499
LEk:__ZL65IContributeDynamicSink_t2255997386_CustomAttributesCacheGeneratorP21CustomAttributesCache
yHb:__ZNK23AsyncGPUReadbackRequest23InvokeScriptingCallbackE18ScriptingObjectPtr
wgc:__ZN17Gradient_Bindings4InitEv
LUc:__ZN11UnityEngine9Analytics18ConnectSessionInfoC2Ev
cxa:__ZN7Texture23VirtualRedirectTransferER24GenerateTypeTreeTransfer
J9b:__ZNK32RendererMaterialAnimationBinding12SetPPtrValueERKN11UnityEngine9Animation10BoundCurveEi
lNa:__ZN14SpriteRenderer16CheckConsistencyEv
fdk:__ZNK32Display_t1387065949_StaticFields23get_onDisplaysUpdated_3Ev
rgl:_glDeleteFramebuffers__wrapper
wgi:__Z220RuntimeInvoker_Boolean_t97287965_RuntimeObject_Int32U26_t1369213839_Int32_t2950945753_Int32_t2950945753_Int32_t2950945753_RuntimeObject_SByte_t1669577662_Int32_t2950945753_ContractionU26_t961830454_ContextU26_t3937453398PFvvEPK10MethodInfoPvPS4_
Xwe:__ZN16VirtFuncInvoker2IbP12Il2CppObjectS1_E6InvokeEjS1_S1_S1_
Yph:__ZN28ExecutionContext_t17483726279set__sc_0EP27SecurityContext_t2435442044
g7g:_BitConverterLE_GetUIntBytes_m949779219
Xjj:__ZN6il2cpp2vm7Runtime17GetDelegateInvokeEP11Il2CppClass
SZe:_WebHeaderCollection_ToString_m1263025316
Lwi:__Z59RuntimeInvoker_ContactPoint2D_t3390240644_Int32_t2950945753PFvvEPK10MethodInfoPvPS4_
pji:__Z91RuntimeInvoker_Void_t1185182177_RuntimeObject_RuntimeObject_RuntimeObject_Int32_t2950945753PFvvEPK10MethodInfoPvPS4_
mid:_GetterAdapter_Invoke_m3767885970
ZYf:_InstanceComparer__ctor_m2655670473
P0c:_MethodBuilder_get_ReflectedType_m3038768129
nkc:__Z44Register_UnityEngine_RenderTexture_set_widthv
blg:_String_CreateString_m2818852475
GJh:_Enumerator_get_Current_m335492761_AdjustorThunk
Hcc:__Z22GenerateBoxTilingShapeP22GenerateTilingAreaInfo
jKa:__ZN28EnlightenRendererInformation8TransferI14SafeBinaryReadEEvRT_
a2h:__ZNK25SslStreamBase_t166741340716get_ownsStream_7Ev
SPa:__ZN14SharedMeshData14GetBoneWeightsEi
P9j:_AsyncOperation_InvokeCompletionEvent_m1410305036
vZa:__ZNK15Lz4Decompressor16DecompressMemoryEPKvPjPvS2_
esj:__ZN15dense_hashtableINSt3__24pairIK10KeyWrapperINS1_IPK10MethodInfoP11Il2CppClassEEEjEES9_17ReflectionMapHashIS8_EN14dense_hash_mapIS9_jSD_NS9_14EqualsComparerINS0_8equal_toIS8_EEEENS0_9allocatorISB_EEE9SelectKeyESI_SK_E13clear_deletedER30dense_hashtable_const_iteratorISB_S9_SD_SM_SI_SK_E
cZd:_MemberAccessException__ctor_m3713703094
Vs:__ZN9Scripting11UnityEngine10Animations21ConstraintSourceProxy9InitProxyEv
hma:__Z11IsCoroutine18ScriptingMethodPtrRK22CommonScriptingClasses
XAk:__ZL117GenericTypeParameterBuilder_t1988827940_CustomAttributesCacheGenerator_GenericTypeParameterBuilder_Equals_m3260957994P21CustomAttributesCache
qcc:__ZN4core8hash_mapINS_12basic_stringIcNS_20StringStorageDefaultIcEEEE10vector_setI4PPtrI11SpriteAtlasENSt3__24lessIS8_EE13stl_allocatorIS8_L18MemLabelIdentifier81ELi16EEENS_4hashIS4_EENS9_8equal_toIS4_EEEixERKS4_
MJc:__ZN11Rigidbody2D8TransferI24GenerateTypeTreeTransferEEvRT_
FXi:__ZL24UnresolvedVirtualCall_47P12Il2CppObject20DateTime_t3738529785PK10MethodInfo
z8f:__ZN23SHA384Managed_t741585759set_H6_13Ey
vza:__Z35UnityPropertySheet_MakeSortedColorsRKNSt3__23mapIN9ShaderLab16FastPropertyNameE10ColorRGBAfNS_4lessIS2_EENS_9allocatorINS_4pairIKS2_S3_EEEEEER10vector_mapIS2_S3_S5_NS6_INS7_IS2_S3_EEEEE
fOk:__ZL72PKCS12_t4101533061_CustomAttributesCacheGenerator_U3CU3Ef__switchU24map8P21CustomAttributesCache
_nh:__ZNK24UTF7Encoding_t264410847921get_allowOptionals_28Ev
suf:__ZN24StreamReader_t400993589914set_encoding_7EP20Encoding_t1523322056
Cdb:__Z29Transfer_Blittable_ArrayFieldI14SafeBinaryRead8Vector4fEvRT_R9ArrayInfoRK23StaticTransferFieldInfo
iSj:__GLOBAL__sub_I_BoehmGC_cpp
Qrj:__ZN6il2cpp2gc19AppendOnlyGCHashMapINSt3__24pairIPK10MethodInfoP11Il2CppClassEEP22Il2CppReflectionMethod17ReflectionMapHashIS9_ENS2_8equal_toIS9_EEE3AddERKS9_SB_
T4d:_Default_check_arguments_m3882727959
sib:__Z18Transfer_BlittableI19StreamedBinaryWriteLb1EN4math12int3_storageEEvRK29SerializationCommandArgumentsR31RuntimeSerializationCommandInfo
Uoh:_UTF8Encoding_GetMaxCharCount_m3762459613
y_f:_StreamingContext_get_Context_m541495931_AdjustorThunk
n0c:_ModuleBuilder_RegisterToken_m4166846047
YSj:__ZNSt3__218uninitialized_fillIPNS_4pairIK10KeyWrapperIPcES3_EES6_EEvT_S8_RKT0_
YEb:__ZZ23InitPlayerLoopCallbacksvEN51PostLateUpdateUpdateCustomRenderTexturesRegistrator7ForwardEv
bel:_glClientWaitSync__wrapper
k$i:__ZN43AssetFileNameExtensionAttribute_t136124116442set_U3CotherExtensionsU3Ek__BackingField_1EP12Il2CppObject
l0j:_GC_print_finalization_stats
aii:__Z74RuntimeInvoker_MonoFileType_t221779374_IntPtr_t_MonoIOErrorU26_t1548853198PFvvEPK10MethodInfoPvPS4_
Mej:__ZN6il2cpp2vm13MetadataCache25GetStringLiteralFromIndexEi
cke:_Hashtable_ToPrime_m33531354
X7:__ZL54__ManagedRegistrationHelperFunction_PlayableGraphProxyPv
rE:__ZN11AudioModule6UpdateEv
uRg:_KeyCollection_System_Collections_Generic_ICollectionU3CTKeyU3E_Remove_m2555909644_gshared
aYj:__ZN4utf88internal19is_code_point_validIjEEbT_
FSj:__ZN15dense_hashtableINSt3__24pairIK10KeyWrapperIPcES3_EES4_N6il2cpp5utils15PassThroughHashIS3_EEN14dense_hash_mapIS4_S3_SA_NS4_14EqualsComparerINS0_8equal_toIS3_EEEENS0_9allocatorIS6_EEE9SelectKeyESF_SH_E5clearEv
_Ld:__ZN31SoapMethodAttribute_t193500931020set__returnElement_5EP8String_t
Egh:_Array_InternalArray__IndexOf_TisInt32_t2950945753_m738632427_gshared
Lxd:__ZN36SynchronizationAttribute_t394666125418set__ownerThread_5EP18Thread_t2300836069
ku:__ZL65__ManagedRegistrationHelperFunction_MeshReconstructionServerProxyPv
kJ:__ZN11UnityEngine15CloudWebService23WebRequestUploadHandler17ConsumeUploadDataEj
Sgj:__ZNSt3__214__split_bufferI6pollfdRNS_9allocatorIS1_EEEC2EjjS4_
vsd:_CrossAppDomainData_get_DomainID_m3516796532
BMf:_MemoryStream_set_Position_m3169779190
JSb:__ZN13RenderManager29SetCurrentCameraAndStackStateEP6CameraP25CameraStackRenderingState
yia:__ZNSt3__26__treeINS_12__value_typeIjN4core12basic_stringIcNS2_20StringStorageDefaultIcEEEEEENS_19__map_value_compareIjS7_NS_4lessIjEELb1EEE13stl_allocatorIS7_L18MemLabelIdentifier7ELi16EEE7destroyEPNS_11__tree_nodeIS7_PvEE
NYi:__ZL25UnresolvedVirtualCall_109P12Il2CppObject19Decimal_t2948259380PK10MethodInfo
oSd:__ZNK31OpCodes_t126150456_StaticFields14get_Ldflda_121Ev
LIg:__ZNK29InternalEnumerator_1_t233746511get_array_0Ev
Oc:_JS_WebRequest_Release
TH:__ZN11UnityEngine15CloudWebService14DataErrorEventD0Ev
YHj:__ZN6il2cpp6icalls8mscorlib6System4Type20internal_from_handleEi
csh:__ZNK18Thread_t230083606924get_in_currentculture_50Ev
tSi:__ZNK32AudioSourceExtension_t306490883419get_m_audioSource_4Ev
YIk:__ZL46StringBuilder_t_CustomAttributesCacheGeneratorP21CustomAttributesCache
Kud:_Context__ctor_m254302079
_Dj:__ZN6il2cpp2vm9Exception25RaiseOutOfMemoryExceptionERKNS_5utils10StringViewIDsEEP19Il2CppSequencePoint
Nbh:_KeyGeneratedEventHandler_EndInvoke_m3057317531
SKa:__ZN19ShaderPropertySheet16SetArrayPropertyEN9ShaderLab16FastPropertyNameENS_12PropertyTypeEPKvj
sHa:__ZN23TextureStreamingManager17SetFeatureEnabledEb
tPj:__ZN15dense_hashtableINSt3__24pairIK10KeyWrapperIP12Il2CppObjectEN6il2cpp2gc9CachedCCWEEES5_NS7_5utils11PointerHashIS3_EEN14dense_hash_mapIS5_S9_SD_NS5_14EqualsComparerINS0_8equal_toIS4_EEEENS0_9allocatorISA_EEE9SelectKeyESI_SK_E16reset_thresholdsEv
pXf:__ZN18VirtActionInvoker3IxixE6InvokeEjP12Il2CppObjectxix
Fid:_ParameterInfo_get_ParameterType_m4197803362
GSe:__ZN25DictionaryNode_t41771946511set_value_1EP12Il2CppObject
xhi:__Z91RuntimeInvoker_Void_t1185182177_Int32U26_t1369213839_Int32U26_t1369213839_Int32_t2950945753PFvvEPK10MethodInfoPvPS4_
a0i:_StaticAccessorAttribute_set_Type_m2333258271
HDk:__ZL91SafeHandle_t3273388951_CustomAttributesCacheGenerator_SafeHandle_DangerousAddRef_m614714386P21CustomAttributesCache
TRc:__ZN11UnityEngine15PlatformWrapper16GetApplicationIdEv
edi:__Z49RuntimeInvoker_Char_t3634460470_Int16_t2552820387PFvvEPK10MethodInfoPvPS4_
sOi:_AnalyticsEventTracker_OnDestroy_m3032713758
Bte:_SimpleEnumerator__cctor_m2844299657
uYd:_LocalDataStoreSlot__ctor_m4104083971
AZg:__ZNK43EqualityComparer_1_t1249878500_StaticFields14get__default_0Ev
kSi:_AudioSource_ReadExtensionName_m725112169
A9h:_X509CertificateEnumerator_System_Collections_IEnumerator_Reset_m2039524926
gNf:__ZN21MonoIOStat_t59253398710set_Name_0EP8String_t
lNb:__Z20SetupObjectLightmapsRK26SharedLightmapSettingsDataRK15LightmapIndicesR17ShaderPassContextb
kxa:__ZN7Texture21GetMasterTextureLimitEv
jAe:__ZN30SymmetricAlgorithm_t425422308720set_BlockSizeValue_0Ei
TQa:__ZN13dynamic_arrayI9InputAxisLj0EE18resize_initializedEj12ResizePolicy
BUb:__Z12CanAddScriptR10GameObject17ScriptingClassPtrPS1_S2_
oPi:_FieldWithTarget_get_paramName_m3501478659
JGh:__Z25Il2CppCodeGenWriteBarrierI18List_1_t1569362707EvPPT_S2_
Swg:__Z44InternalEnumerator_1_get_Current_m2128158355P32InternalEnumerator_1_t3855323497PK10MethodInfo
BR:__ZN9ShaderLabL25StaticInitializeShaderLabEPv
Q:Math_max
cud:__ZNK25ConfigHandler_t419243721620get_currentChannel_2Ev
uba:__ZN9Scripting11UnityEngine8LODProxy9InitProxyEv
aVf:__ZNK23Int16U5BU5D_t368684017814GetAtUncheckedEj
$qk:_HitInfo_SendMessage_m1343099429_AdjustorThunk
nwa:__ZNK13RenderTexture16ExtractImageImplEP14ImageReference13ImageBlitModebi
gai:__ZN21X509Store_t277741528310set__crl_3Eb
pbk:__ZNK31Camera_t4157153871_StaticFields18get_onPostRender_6Ev
Nrf:_StackTrace_get_trace_m1194606084
pTi:__Z26List_1_set_Item_m845928814P17List_1_t242016280iP32AudioSourceExtension_t3064908834PK10MethodInfo
rhg:_Single_CompareTo_m2785801815_AdjustorThunk
BUj:__ZN6il2cpp2os6Thread16GetCurrentThreadEv
T8c:__ZN31OpCodes_t126150456_StaticFields17set_Stelem_R8_158E17OpCode_t123070264
jcc:__ZN10GameObject13ComponentPair15SetComponentPtrEPN5Unity9ComponentE
Pfj:_CertificateHandler_ValidateCertificateNative_m2315002656
yib:__Z18Transfer_BlittableI19StreamedBinaryWriteLb1E11QuaternionfEvRK29SerializationCommandArgumentsR31RuntimeSerializationCommandInfo
yce:__ZNK22StrongName_t409384937715get_publicKey_1Ev
VBa:__ZN13sorted_vectorI4PPtrI11SpriteAtlasENSt3__24lessIS2_EE13stl_allocatorIS2_L18MemLabelIdentifier1ELi16EEE21sort_clear_duplicatesEv
knk:_PropertyNameUtils_PropertyNameFromString_Injected_m1259736140
F4k:__ZNK22RockSpawner_t89182904720get_pf_magentaRock_6Ev
slc:__ZN9Scripting11UnityEngine15TextEditorProxy9InitProxyEv
oqe:_Char_System_IConvertible_ToDateTime_m3564102661
XYi:__ZL25UnresolvedVirtualCall_119P12Il2CppObjectS0_S0_iiPK10MethodInfo
sqj:__ZN15dense_hashtableINSt3__24pairIK10KeyWrapperINS1_IPK9FieldInfoP11Il2CppClassEEEjEES9_17ReflectionMapHashIS8_EN14dense_hash_mapIS9_jSD_NS9_14EqualsComparerINS0_8equal_toIS8_EEEENS0_9allocatorISB_EEE9SelectKeyESI_SK_E16reset_thresholdsEv
jv:__ZN13RuntimeStaticINSt3__26vectorI12WebCamDeviceNS0_9allocatorIS2_EEEELb0EE13StaticDestroyEPv
lAa:__ZN6Sprite17MainThreadCleanupEv
csa:__ZN4PPtrI23ShaderVariantCollectionE8TransferI18StreamedBinaryReadEEvRT_
aAk:__ZL55BinaryWriter_t3992595042_CustomAttributesCacheGeneratorP21CustomAttributesCache
Pil:_glBlendFuncSeparate__wrapper
Rei:__Z37RuntimeInvoker_RuntimeObject_IntPtr_tPFvvEPK10MethodInfoPvPS4_
wxh:_TypeLoadException_GetObjectData_m2127700107
V_k:__ZL116PlayerConnectionInternal_t3892293164_CustomAttributesCacheGenerator_PlayerConnectionInternal_SendMessage_m2378413408P21CustomAttributesCache
rA:__ZN10AudioMixer14UpdateMuteSoloEv
IV:__Z17GetMonoManagerPtrv
vHh:__ZNK22Enumerator_t20172970767get_l_0Ev
vGh:__ZNK26KeyValuePair_2_t25302173199get_key_0Ev
Dna:__ZN12BaseRenderer25FlattenSharedMaterialDataILb0EEEbRKS_R22PerThreadPageAllocatorR10RenderNode
mHf:__ZN24BinaryReader_t242807729316set_m_encoding_1EP20Encoding_t1523322056
KQg:__Z28Enumerator__ctor_m2471152669P21Enumerator_t314722136P23Dictionary_2_t132545152PK10MethodInfo
Vja:__ZN9Transform35SetLocalPositionWithoutNotificationERKN4math7_float3Ey
Pni:__Z69RuntimeInvoker_UInt64_t4134040092_Int32_t2950945753_SByte_t1669577662PFvvEPK10MethodInfoPvPS4_
ac:_JS_Eval_ClearTimeout
qNk:__ZL64ThreadStaticAttribute_t3840787420_CustomAttributesCacheGeneratorP21CustomAttributesCache
W8a:__ZN7ApiGLES16SetPatchVerticesEi
uwe:__ZNK21Hashtable_t185388976612get_hcpRef_9Ev
JGi:_CharacterClass_Compile_m3296067317
ITj:__ZN6il2cpp2gc16GarbageCollector16InvokeFinalizersEv
qpe:_Byte_System_IConvertible_ToInt64_m285584218_AdjustorThunk
v1i:__ZN6il2cpp2vm5Class20FromGenericParameterEPK22Il2CppGenericParameter
TK:__ZN19CloudServiceHandler11FlushEventsEv
bjd:__Z25Il2CppCodeGenWriteBarrierI25BooleanU5BU5D_t2897418192EvPPT_S2_
A1:__ZN15GlobalCallbacksC2Ev
t2h:__ZN21TlsStream_t236545396513set_canRead_1Eb
EHd:_MethodCall_System_Runtime_Remoting_Messaging_IInternalMessage_set_Uri_m1919576807
fZf:__ZN25ObjectManager_t165306432517set__finalFixup_5Eb
Kxc:__ZN7b2World10CreateBodyEPK9b2BodyDef
Ola:__ZN6Camera8TransferI18StreamedBinaryReadEEvRT_
eni:__Z74RuntimeInvoker_DateTime_t3738529785_DateTime_t3738529785_Int32_t2950945753PFvvEPK10MethodInfoPvPS4_
Ijb:__Z29Transfer_Blittable_ArrayFieldI19StreamedBinaryWriteyEvRT_R9ArrayInfoRK23StaticTransferFieldInfo
mKg:__Z69InternalEnumerator_1_System_Collections_IEnumerator_Reset_m1775752715P32InternalEnumerator_1_t3186646106PK10MethodInfo
E9:__ZN9Scripting11UnityEngine19SetupCoroutineProxy9InitProxyEv
Wtk:__ZL52IComparable_t36111218_CustomAttributesCacheGeneratorP21CustomAttributesCache
$If:_MonoIO_GetFileStat_m678141354
X2c:__Z15CastclassSealedP12Il2CppObjectP11Il2CppClass
Scc:__ZN15ApplicationInfo14GetSandboxTypeEv
neb:__Z18Transfer_BlittableI17RemapPPtrTransferLb1EhEvRK29SerializationCommandArgumentsR31RuntimeSerializationCommandInfo
mpf:_Decimal_IsZero_m4250358244_AdjustorThunk
dRf:_UnmanagedMemoryStream_get_CanRead_m3770815400
pTb:__ZN16ReflectionProbes40UpdateRealtimeReflectionProbesTimeslicedEv
BAa:__ZN14SafeBinaryRead21TransferSTLStyleArrayI13dynamic_arrayI8Vector2fLj0EEEEvRT_17TransferMetaFlags
ARi:__ZN23InterfaceActionInvoker1IP24SingleU5BU5D_t1444911251E6InvokeEjP11Il2CppClassP12Il2CppObjectS1_
zef:_Decimal_u64_m3374804932
JSa:__ZNK30RuntimeInitializeOnLoadManager22GetTypeVirtualInternalEv
U9i:__ZN15dense_hashtableINSt3__24pairIK10KeyWrapperIN6il2cpp5utils13dynamic_arrayIPK10Il2CppTypeLj4EEEEPFvvEEESA_NS3_8metadata19Il2CppSignatureHashEN14dense_hash_mapISA_SD_SG_NSA_14EqualsComparerINSF_22Il2CppSignatureCompareEEENS0_9allocatorISE_EEE9SelectKeyESK_SM_E12resize_deltaEjj
d9b:__ZN16ReflectionProbes15InitializeClassEv
Tvk:__ZL71Enum_t4135868527_CustomAttributesCacheGenerator_Enum_Format_m2588135982P21CustomAttributesCache
Nwc:__ZNK12b2WheelJoint17GetReactionTorqueEf
mcj:__ZNK15dense_hashtableINSt3__24pairIK10KeyWrapperIPK11Il2CppClassEPKcEES6_N6il2cpp5utils11PointerHashIS3_EEN14dense_hash_mapIS6_S9_SE_NS6_14EqualsComparerINS0_8equal_toIS5_EEEENS0_9allocatorISA_EEE9SelectKeyESJ_SL_E12test_deletedEj
cxk:__ZL107ArrayReadOnlyList_1_t221793636_CustomAttributesCacheGenerator_ArrayReadOnlyList_1_GetEnumerator_m2012327150P21CustomAttributesCache
BHd:_MethodCall__ctor_m2820791328
mKj:__ZN6il2cpp2vm5Image9GetCorlibEv
RQj:__ZN6il2cpp2vm11MethodStack17GetStackFramesRawEv
KCk:__ZL50Pointer_t2088917139_CustomAttributesCacheGeneratorP21CustomAttributesCache
c1j:_GC_reclaim_uninit
gwf:__ZNK11Exception_t21get_inner_exception_1Ev
k$:__ZN16LightmapSettings11UnshareDataEv
JY:__ZN13RuntimeStaticINSt3__23mapIN4core12basic_stringIcNS2_20StringStorageDefaultIcEEEES6_NS0_4lessIS6_EE13stl_allocatorINS0_4pairIKS6_S6_EEL18MemLabelIdentifier13ELi16EEEELb0EE13StaticDestroyEPv
Fbk:_Coroutine_ReleaseCoroutine_m947702340
R2k:__Z33il2cpp_codegen_string_new_wrapperPKc
SOi:__ZN27AnalyticsTracker_t73102137815set_m_Trigger_8Ei
W5f:_MD5CryptoServiceProvider_ProcessFinalBlock_m2241588515
pk:_glIsVertexArray
lie:_SmallXmlParser_Read_m3485223434
sSf:_Int16_Parse_m2276856944
UEg:_InternalEnumerator_1__ctor_m3443175323_AdjustorThunk
aIh:__ZNK22Enumerator_t21464574877get_l_0Ev
iCk:__ZL131CustomAttributeData_t1084486650_CustomAttributesCacheGenerator_CustomAttributeData_t1084486650____ConstructorArguments_PropertyInfoP21CustomAttributesCache
ga:invoke_fff
y7k:_mbsinit
Deh:_Array_InternalArray__ICollection_Remove_TisContactPoint2D_t3390240644_m284878234_gshared
Pcl:b14
m8i:__ZN14dense_hash_setI10KeyWrapperIPK19Il2CppGenericMethodEN6il2cpp8metadata23Il2CppGenericMethodHashENS4_14EqualsComparerINS6_26Il2CppGenericMethodCompareEEENSt3__29allocatorIS4_EEED2Ev
B8e:_RepeatContext_get_Expression_m255006542
a8e:__ZN22MarkU5BU5D_t364542240221GetAddressAtUncheckedEj
Qcl:b15
t5:__ZN6prcoreL12RemapGenericI17TexFormatARGB155517TexFormatRGBA8888EEvPKNS_9InnerInfoE
TTg:__ZN28GenericInterfaceFuncInvoker2I27DictionaryEntry_t3123975638P12Il2CppObjectS2_E6InvokeEPK10MethodInfoS2_S2_S2_
Rbd:_TypeBuilder_HasElementTypeImpl_m1871001960
X5:__ZL50__ManagedRegistrationHelperFunction_AllocatorProxyPv
w$:__ZN4core8hash_setINS_4pairIKiP16LightmapSettingsLb0EEENS_9hash_pairINS_4hashIiEES2_S4_EENS_10equal_pairINSt3__28equal_toIiEES2_S4_EEE4growEi
Tsj:__ZNK30dense_hashtable_const_iteratorINSt3__24pairIK10KeyWrapperINS1_IPK10MethodInfoP11Il2CppClassEEEjEES9_17ReflectionMapHashIS8_EN14dense_hash_mapIS9_jSD_NS9_14EqualsComparerINS0_8equal_toIS8_EEEENS0_9allocatorISB_EEE9SelectKeyESI_SK_EeqERKSN_
o9a:__ZN7ApiGLES13CreateProgramEv
Aua:__ZN11HaloManager7AddHaloEv
AEe:__ZNK25RSAParameters_t17284066138get_DQ_4Ev
Mcl:b11
kAe:__ZNK30SymmetricAlgorithm_t425422308720get_BlockSizeValue_0Ev
OMg:_Enumerator_VerifyState_m4003066746_gshared
Ulf:__ZN33DateTime_t3738529785_StaticFields16set_daysmonth_11EP22Int32U5BU5D_t385246372
fEa:__ZN4crnd12crn_unpackerD2Ev
$g:_emscripten_glTexImage2D
eCf:__ZNK30DateTimeFormatInfo_t240585370119get_amDesignator_11Ev
ULg:_Comparer_1_System_Collections_IComparer_Compare_m2537217645_gshared
ypa:__ZN16MeshVertexFormat20GetVertexDeclarationER9GfxDevice16VertexInputMasksPKS_
wS:__ZN18ScriptingArguments9AddStringEPKc
HPd:__ZNK20TypeInfo_t320417835816get_Attributes_0Ev
mre:_Char_ToString_m3588025615
ack:__ZN24CullingGroup_t209631876822set_m_OnStateChanged_1EP24StateChanged_t2136737110
wSh:_Collection_1_get_Count_m2853642267_gshared
Ukf:__ZNK33CurrentSystemTimeZone_t399835225529get_m_CachedDaylightChanges_5Ev
aal:runPostSets
MFk:__ZL53IEnvoyInfo_t2180778907_CustomAttributesCacheGeneratorP21CustomAttributesCache
U7g:_CryptoConvert_ToCapiKeyBlob_m3371450375
XCa:__ZL23stbir__resize_arbitraryPvPKviiiS_iiiffffPfiij14stbir_datatype12stbir_filterS4_10stbir_edgeS5_16stbir_colorspace
UM:__Z15strcpy_truncatePcPKcjj
Fgb:__Z18Transfer_BlittableI24GenerateTypeTreeTransferLb1E8Vector4fEvRK29SerializationCommandArgumentsR31RuntimeSerializationCommandInfo
Il:_pthread_detach
_aa:__ZN9Scripting11UnityEngine9Playables18PlayableAssetProxy9InitProxyEv
jpj:__ZN10KeyWrapperINSt3__24pairIPK14Il2CppAssemblyP11Il2CppClassEEEC2Ev
hab:__ZN11MonoManager8TransferI19StreamedBinaryWriteEEvRT_
C1k:__ZL64AnalyticsEventTracker_t2285229262_CustomAttributesCacheGeneratorP21CustomAttributesCache
Tmb:__ZNSt3__213__stable_sortIRN10vector_mapI17ScriptingClassPtrPKN5Unity4TypeENS_4lessIS2_EENS_9allocatorINS_4pairIS2_S6_EEEEE13value_compareENS_11__wrap_iterIPSB_EEEEvT0_SJ_T_NS_15iterator_traitsISJ_E15difference_typeEPNSM_10value_typeEi
V2g:_SimpleCollator_FillSurrogateSortKeyRaw_m725998232
Mrh:__ZN18Thread_t230083606911set_state_7Ei
KYe:_IPAddress_Equals_m1823478787
qwd:_Context_CreateNewContext_m3053563976
G1b:__ZN9ShaderLab25SerializedTextureProperty8TransferI24GenerateTypeTreeTransferEEvRT_
rdl:_emscripten_glIsShader__wrapper
Ozj:__ZN6il2cpp2gc19AppendOnlyGCHashMapINSt3__24pairIPK14Il2CppAssemblyP11Il2CppClassEEP24Il2CppReflectionAssembly17ReflectionMapHashIS9_ENS2_8equal_toIS9_EEEC2Ev
nYi:__ZL24UnresolvedVirtualCall_83P12Il2CppObjectPK10MethodInfo
rWd:__ZN27NumberFormatter_t118292462115set__infinity_9Eb
Lca:__ZN9Scripting11UnityEngine12Experimental9Playables27MaterialEffectPlayableProxy12CleanupProxyEv
DL:__GLOBAL__sub_I_Runtime_Camera_RenderLoops_2_cpp
Rmk:_PlayableOutputHandle_Equals_m2815498676_AdjustorThunk
Tdk:_InvokableCall_remove_Delegate_m1376110510
yv:__ZN20DiagnosticSwitchEnumI14FMODDebugTypesE20ApplyPersistentValueEv
T0j:_GC_block_was_dirty
Wsh:__ZN16Timer_t71667102615set_period_ms_5Ex
Coh:_UTF8Encoding_InternalGetByteCount_m771565606
BJj:__ZNK15dense_hashtableINSt3__24pairIK10KeyWrapperIP14Il2CppIUnknownEjEES5_N6il2cpp5utils11PointerHashIS3_EEN14dense_hash_mapIS5_jSB_NS5_14EqualsComparerINS0_8equal_toIS4_EEEENS0_9allocatorIS7_EEE9SelectKeyESG_SI_E12test_deletedEj
uqc:__Z18Transfer_BlittableI8JSONReadLb1EyEvRK29SerializationCommandArgumentsR31RuntimeSerializationCommandInfo
r9g:__ZN43KeyPairPersistence_t2094547461_StaticFields15set__userPath_1EP8String_t
ATk:__ZL51GUILayer_t2783472903_CustomAttributesCacheGeneratorP21CustomAttributesCache
zyk:__ZL56IDictionary_2_t3177279192_CustomAttributesCacheGeneratorP21CustomAttributesCache
Apa:__ZN9GfxDevice20GetVertexDeclarationERK18VertexChannelsInfoNS_30VertexDeclarationMRUCacheIndexE
Gfh:_Array_InternalArray__IEnumerable_GetEnumerator_TisUInt64_t4134040092_m1382862496_gshared
Ig:_emscripten_glMatrixMode
YDf:_NumberFormatInfo_get_RawPercentGroupSizes_m97703232
qgg:_SecurityFrame_get_Assembly_m2874566710
pGf:_Guid__ctor_m3562600567_AdjustorThunk
bH:__ZN11UnityEngine15CloudWebService14DataDispatcher16PrepareDataBlockERNS0_16SessionContainerE
dDb:__ZN18GfxFramebufferGLES5ClearE13GfxClearFlagsRK10ColorRGBAffib
vrg:__ZN32InternalEnumerator_1_t42399320099set_idx_1Ei
vXk:__ZL104RenderTexture_t2108887433_CustomAttributesCacheGenerator_RenderTexture_Internal_Create_m347030155____rt0P21CustomAttributesCache
eZf:_ObjectManager_DoFixups_m3038765937
DCg:_InternalEnumerator_1_get_Current_m2316281569_gshared
EJb:__ZL12DepthPassJobPN21GfxDeviceAsyncCommand10ArgScratchEPKNS_3ArgE
_$b:__ZNSt3__26vectorIN9ShaderLab20SerializedSubProgram16TextureParameterENS_9allocatorIS3_EEE6assignINS_11__wrap_iterIPS3_EEEENS_9enable_ifIXaasr21__is_forward_iteratorIT_EE5valuesr16is_constructibleIS3_NS_15iterator_traitsISC_E9referenceEEE5valueEvE4typeESC_SC_
Tik:_MonoBehaviour_IsInvoking_m3285132449
nUg:_Transform_1_EndInvoke_m1701794896_gshared
ktc:__ZN5Unity9rapidjson6WriterI16TempBufferWriterNS0_4UTF8IcEES4_13JSONAllocatorE11WriteDoubleEd
ash:_Thread_SetCachedCurrentUICulture_m1729523031
K7a:__ZN14GfxDeviceStats16CopyAllDrawStatsERKS_
nTg:__ZN23GenericVirtFuncInvoker1I27DictionaryEntry_t3123975638iE6InvokeEPK10MethodInfoP12Il2CppObjecti
aJe:_ClientContext_set_ClientHelloProtocol_m4189379912
ln:FUNCTION_TABLE_iiiiiiiiiiii
vRg:_KeyCollection_System_Collections_Generic_IEnumerableU3CTKeyU3E_GetEnumerator_m1982109872_gshared
LCa:__ZN6prcore9BlitImageERK14ImageReferenceRS0_13ImageBlitMode
kra:__ZN16GraphicsSettingsD0Ev
qO:__Z12FormatBufferPciPKcz
bIj:__ZN6il2cpp6icalls8mscorlib6SystemL52FormatExceptionMessageForNonConstructableGenericTypeEPK10Il2CppTypeRKNSt3__26vectorIS5_NS6_9allocatorIS5_EEEE
h1h:__ZNK25SslStreamBase_t166741340731get_checkCertRevocationStatus_9Ev
yQc:__ZNSt3__26__treeINS_12__value_typeIN4core12basic_stringIcNS2_20StringStorageDefaultIcEEEE14CallbackArray3IRKS6_R8JSONReadbEEENS_19__map_value_compareIS6_SD_NS_4lessIS6_EELb1EEE13stl_allocatorISD_L18MemLabelIdentifier6ELi16EEE7destroyEPNS_11__tree_nodeISD_PvEE
n:cttz_i8
Bwg:__Z75InternalEnumerator_1_System_Collections_IEnumerator_get_Current_m2742943179P31InternalEnumerator_1_t350626606PK10MethodInfo
Jje:_AppDomain_InternalPopDomainRef_m412593501
U6c:__ZN31OpCodes_t126150456_StaticFields15set_Bge_Un_S_51E17OpCode_t123070264
gPd:_ServerIdentity_OnLifetimeExpired_m3729485875
bTi:_AudioListener_INTERNAL_CALL_ReadExtensionPropertyName_m330480156
LYi:__ZL25UnresolvedVirtualCall_107P12Il2CppObjectS0_S0_aPK10MethodInfo
oDk:__ZL62ActivationArguments_t4219999170_CustomAttributesCacheGeneratorP21CustomAttributesCache
gSi:__Z30Enumerator_Dispose_m3198901590P22Enumerator_t3959214805PK10MethodInfo
Axh:__ZN26TypedReference_t149110811921get_address_of_type_0Ev
Juj:__ZNK15dense_hashtableINSt3__24pairIK10KeyWrapperINS1_IPK12PropertyInfoP11Il2CppClassEEEjEES9_17ReflectionMapHashIS8_EN14dense_hash_mapIS9_jSD_NS9_14EqualsComparerINS0_8equal_toIS8_EEEENS0_9allocatorISB_EEE9SelectKeyESI_SK_E12bucket_countEv
$pi:__Z53RuntimeInvoker_Interval_t1802865632_Int32_t2950945753PFvvEPK10MethodInfoPvPS4_
Gjf:_Convert_ToUInt16_m867476252
Lh:_emscripten_glViewport
ucc:__Z21GenerateTilingAreaJobP22GenerateTilingAreaInfoj
h0i:_NativeClassAttribute_set_Declaration_m1218368926
$Yj:__ZN6il2cpp6icalls8mscorlib6System15MonoCustomAttrs17IsDefinedInternalEP12Il2CppObjectP20Il2CppReflectionType
TEk:__ZL115SynchronizationAttribute_t3946661254_CustomAttributesCacheGenerator_SynchronizationAttribute_IsContextOK_m324067792P21CustomAttributesCache
s5d:_CustomAttributeData_get_Constructor_m489601093
pMj:__Z18RegisterAllClassesv
$$g:_MSCompatUnicodeTable_Category_m1834196420
EEg:__Z44InternalEnumerator_1_get_Current_m1408339225P32InternalEnumerator_1_t2576641779PK10MethodInfo
Z1k:__ZL105TrackableField_t1772682203_CustomAttributesCacheGenerator_TrackableField__ctor_m3758796351____validTypes0P21CustomAttributesCache
Esf:_Double_CompareTo_m3151899116
_7j:__ZN6il2cpp2os5Event5ResetEv
vHe:__ZN23CipherSuite_t341474457517set_clientHMAC_19EP29KeyedHashAlgorithm_t112861511
Dgg:__ZN40SecurityManager_t3383402582_StaticFields16set__execution_2EP30SecurityPermission_t2954997752
GLe:_Context_get_LastHandshakeMsg_m2730646725
iNk:__ZL59ResolveEventArgs_t1779456501_CustomAttributesCacheGeneratorP21CustomAttributesCache
Uhf:_Convert_ToInt16_m3324557887
_Uf:_ObjectWriter_BlockWrite_m827549826
eEi:__ZN31CompositeExpression_t125222980217set_expressions_0EP32ExpressionCollection_t1810289389
PDc:__ZN34b2SolveDiscreteIslandBodySleepTask7TaskJobEPS_j
ede:_X509CertificateCollection__ctor_m3365535796
Dqi:__Z50RuntimeInvoker_Ray_t3785851493_Vector3_t3722313464PFvvEPK10MethodInfoPvPS4_
Zdk:__Z24List_1__ctor_m1425123358P18List_1_t4176035766PK10MethodInfo
tqb:__Z25SetNeedToPerformRenderingb
mvj:__ZN14dense_hash_mapI10KeyWrapperINSt3__24pairIPK9EventInfoP11Il2CppClassEEEj17ReflectionMapHashIS8_ENS9_14EqualsComparerINS1_8equal_toIS8_EEEENS1_9allocatorINS2_IKS9_jEEEEE3endEv
k9k:__ZN10__cxxabiv116__shim_type_infoD2Ev
RDi:_Alternation__ctor_m1629257642
QSc:__ZN8JSONRead12TransferPairINSt3__24pairIN4core12basic_stringIcNS3_20StringStorageDefaultIcEEEEN11UnityEngine9Analytics16LimitEventConfigEEEEEvRT_17TransferMetaFlagsPKN5Unity9rapidjson12GenericValueINSG_4UTF8IcEE13JSONAllocatorEE
dja:__ZN10GameObjectD2Ev
SJb:__ZN14qsort_internal30FindAndMovePivotToLastPositionIP15RODataDepthPassi17ROSorterDepthPassEEvT_S4_T0_T1_
AFg:_InternalEnumerator_1_Dispose_m630370856_gshared
eZd:_MethodAccessException__ctor_m3411913042
Fej:__ZL11UnityPalAddPVii
FLa:__ZN23TextureStreamingManager14RemoveRendererER8Renderer
nSb:__ZN12CullingGroup10SendEventsEPK17CullingGroupEventj
FKe:__ZNK19Context_t397123470721get_handshakeState_11Ev
JYi:__ZL25UnresolvedVirtualCall_105P12Il2CppObjectxixPK10MethodInfo
eEf:_NumberFormatInfo_get_PerMilleSymbol_m1360140831
LYk:__ZL97NativeContainerSupportsMinMaxWriteRestrictionAttribute_t3808117416_CustomAttributesCacheGeneratorP21CustomAttributesCache
gFe:_EncryptedData_get_EncryptionAlgorithm_m905084934
ofh:_Array_InternalArray__IEnumerable_GetEnumerator_TisCustomAttributeTypedArgument_t2723150157_m1333528454_gshared
erk:_SetupCoroutine_InvokeMember_m2661944898
zLa:__ZThn32_NK8Renderer8GetLayerEv
wud:__ZNK25ConfigHandler_t419243721622get_channelInstances_1Ev
nma:__ZN9Coroutine16CleanupCoroutineEPv
Hfg:_SecurityException_GetObjectData_m1968030344
Glj:__ZNSt3__26vectorIiNS_9allocatorIiEEEC2ERKS3_
lYf:__ZN28MemberInfoU5BU5D_t130209443214SetAtUncheckedEjP12MemberInfo_t
GTd:_Int32_ValidDigit_m1059003769
DBh:__ZN19Version_t345687396012set__Minor_2Ei
kil:_emscripten_glTexParameterfv__wrapper
pJc:__ZN14EdgeCollider2D13PrepareShapesER13dynamic_arrayIP7b2ShapeLj0EERK10Matrix4x4f
nkj:__ZN6il2cpp2vm7Runtime23GetGenericVirtualMethodEPK10MethodInfoS4_
Xab:__Z18Transfer_BlittableI14SafeBinaryReadLb1E9BoundsIntEvRK29SerializationCommandArgumentsR31RuntimeSerializationCommandInfo
I6b:__ZN2UI13RectTransform17GetLocalPositionZEv
Onj:_il2cpp_method_get_param_count
lY:__ZNK5Unity4Type21FindAllDerivedClassesER13dynamic_arrayIPKS0_Lj0EENS0_17TypeFilterOptionsE
Yuj:__ZNK15dense_hashtableINSt3__24pairIK10KeyWrapperINS1_IPK12PropertyInfoP11Il2CppClassEEEjEES9_17ReflectionMapHashIS8_EN14dense_hash_mapIS9_jSD_NS9_14EqualsComparerINS0_8equal_toIS8_EEEENS0_9allocatorISB_EEE9SelectKeyESI_SK_E3endEv
yHg:__ZNK31InternalEnumerator_1_t7461369139get_idx_1Ev
nfe:__ZNK29X501_t1758824425_StaticFields16get_givenName_13Ev
hwk:__ZL69RuntimeArray_CustomAttributesCacheGenerator_Array_SetValue_m282347242P21CustomAttributesCache
UQc:__ZN22BaseUnityConnectClient14AppRunningTickEj
cpk:__Z27Action_1_Invoke_m1813602315P20Action_1_t2144852004P19Cubemap_t1972384409PK10MethodInfo
rVf:_MessageFormatter_GetExtraProperties_m305191653
uji:__Z67RuntimeInvoker_GCHandle_t3351438187_RuntimeObject_Int32_t2950945753PFvvEPK10MethodInfoPvPS4_
FXa:__ZN12ScriptMapper23VirtualRedirectTransferER18StreamedBinaryRead
Tff:_DateTime_get_Kind_m2154871796
EAd:__ZN41LifetimeServices_t3061370510_StaticFields25set__sponsorshipTimeout_3E19TimeSpan_t881159249
GOk:__ZL59HybridDictionary_t4070033136_CustomAttributesCacheGeneratorP21CustomAttributesCache
UJa:__ZN16LightmapSettings8TransferI14SafeBinaryReadEEvRT_
vxb:__ZN17BufferManagerGLES13ReleaseBufferEP14DataBufferGLES
eHe:_CipherSuite_Write_m1172814058
gQf:_SynchronizedWriter_Write_m301917713
H3k:_Physics2D_Raycast_Internal_m2084501876
rqc:__Z18Transfer_BlittableI8JSONReadLb1EjEvRK29SerializationCommandArgumentsR31RuntimeSerializationCommandInfo
$kb:__Z18Transfer_BlittableI18StreamedBinaryReadLb1E5RectTIfEEvRK29SerializationCommandArgumentsR31RuntimeSerializationCommandInfo
jT:__ZNK27SharedObjectDeleteReleaseOpI10UnitySceneEclEPS0_10MemLabelId
yVf:_SerializationObjectManager_RaiseOnSerializedEvent_m272248422
jli:__Z117RuntimeInvoker_Void_t1185182177_RuntimeObject_Int32_t2950945753_Int32_t2950945753_Int32_t2950945753_Int32_t2950945753PFvvEPK10MethodInfoPvPS4_
_Ia:__ZNK13ScreenManager17GetFullscreenModeEv
XA:__Z30GetAudioSpatializerDefinitionsR13dynamic_arrayIP29AudioEffectInternalDefinitionLj0EE31UnityAudioEffectDefinitionFlags
oo:stackSave
N3j:__ZNSt3__26__treeINS_12__value_typeIPvxEENS_19__map_value_compareIS2_S3_NS_4lessIS2_EELb1EEENS_9allocatorIS3_EEE16__insert_node_atEPNS_15__tree_end_nodeIPNS_16__tree_node_baseIS2_EEEERSE_SE_
NJ:__ZN5Unity9rapidjson15GenericDocumentINS0_4UTF8IcEE13JSONAllocatorNS0_12CrtAllocatorEE6StringEPKcjb
Jjc:__Z41Register_UnityEngine_Mesh_Internal_Createv
d3a:__ZN16MemoryFileSystem5TouchER13FileEntryData
sNa:__ZN14SpriteRenderer23VirtualRedirectTransferER24GenerateTypeTreeTransfer
tNj:__ZNK15dense_hashtableI10KeyWrapperIP18Il2CppGenericClassES3_N6il2cpp8metadata22Il2CppGenericClassHashEN14dense_hash_setIS3_S6_NS3_14EqualsComparerINS5_25Il2CppGenericClassCompareEEENSt3__29allocatorIS3_EEE8IdentityESA_SD_E12test_deletedERK30dense_hashtable_const_iteratorIS3_S3_S6_SF_SA_SD_E
nBc:__ZNSt3__27__sort3IRN18Overlap2DQueryBase29ColliderHitsByDepthComparitorEPP10Collider2DEEjT0_S7_S7_T_
WHe:__ZN16VirtFuncInvoker1IP22ByteU5BU5D_t4116647657P8String_tE6InvokeEjP12Il2CppObjectS3_
mxi:__Z35RuntimeInvoker_UriScheme_t722425697PFvvEPK10MethodInfoPvPS4_
Z2c:__ZNK26AssemblyBuilder_t35988525023get_corlib_enum_type_37Ev
Ldf:_Console_Open_m3077673205
N9h:_X509StoreManager_get_CurrentUser_m4040993045
WTb:__ZN6Camera9SetAspectEf
Agh:_Array_InternalArray__IndexOf_TisDateTime_t3738529785_m2463359116_gshared
m7j:___cxx_global_var_init_12715
t6h:_PKCS12_Decode_m163534693
s6j:__ZN6il2cpp2os13FastMutexImpl6UnlockEv
Tzg:_InternalEnumerator_1_MoveNext_m4138204635_gshared
elb:__Z18Transfer_BlittableI18StreamedBinaryReadLb0E11ColorRGBA32EvRK29SerializationCommandArgumentsR31RuntimeSerializationCommandInfo
Bfl:_emscripten_glBindVertexArray__wrapper
IEi:_Parser_IsECMAScript_m674158805
bw:__ZN10ObjectPoolIN4FMOD3DSPENS0_4DSPIEE7GetFreeEi
ALc:__ZN14PhysicsQuery2DD2Ev
bka:__ZN9Transform37InitializeTransformHierarchyRecursiveER18TransformHierarchyRii
cJc:__ZNK12b2ChainShape18GetEffectiveRadiusEv
z9a:__ZN26SinglePassStereoSupportExt23SetupStereoMatrixParamsE21MonoOrStereoscopicEye24BuiltinShaderMatrixParamRK10Matrix4x4f
w6a:__ZN9GfxDevice23CreateAsyncReadbackDataEv
JXc:__ZNK25UnityWebRequestJavaScript16GetUploadedBytesEv
uD:__Z46AudioListener_CUSTOM_GetNumExtensionPropertiesP12Il2CppObject
TIe:__ZN19Context_t397123470715set_sessionId_1EP22ByteU5BU5D_t4116647657
tKg:__Z75InternalEnumerator_1_System_Collections_IEnumerator_get_Current_m2424959150P32InternalEnumerator_1_t3186646106PK10MethodInfo
hpf:_Decimal_GetHashCode_m2838600885
zxa:__ZN19ShaderPropertySheet38CopyTextureWithAuxiliaryPropertiesFromERKN9ShaderLab16FastPropertyNameERKS_
Ngh:_Array_InternalArray__IndexOf_TisMonoResource_t4103430009_m1351751258_gshared
ccg:__ZN26X509Certificate_t71313162218set_subject_name_4EP8String_t
kwb:__ZN13GfxDeviceGLES26SetRandomWriteTargetBufferEi15ComputeBufferID
y1j:_GC_split_block
Ecj:__ZNK24dense_hashtable_iteratorINSt3__24pairIK10KeyWrapperIPKcEP11Il2CppClassEES5_N6il2cpp5utils11StringUtils12StringHasherIS4_EEN14dense_hash_mapIS5_S8_SE_NS5_14EqualsComparerINSB_13VmStringUtils21CaseSensitiveComparerEEENS0_9allocatorIS9_EEE9SelectKeyESJ_SL_EdeEv
Muj:__ZNK15dense_hashtableINSt3__24pairIK10KeyWrapperINS1_IPK12PropertyInfoP11Il2CppClassEEEjEES9_17ReflectionMapHashIS8_EN14dense_hash_mapIS9_jSD_NS9_14EqualsComparerINS0_8equal_toIS8_EEEENS0_9allocatorISB_EEE9SelectKeyESI_SK_E8min_sizeEjj
LEb:__ZZ23InitPlayerLoopCallbacksvEN49EarlyUpdateResetFrameStatsAfterPresentRegistrator7ForwardEv
oqd:__ZN32ContextLevelActivator_t97522336521set_m_NextActivator_0EP12Il2CppObject
W7k:_poll
sAh:_UInt64_ToString_m1529093114_AdjustorThunk
ltd:__ZNK26ServerIdentity_t234220860817get__serverSink_9Ev
Fpd:_TypeLibImportClassAttribute__ctor_m2302178978
w4g:_Escape_t3294788190_marshal_pinvoke
Clg:__ZN16VirtFuncInvoker0IP33EncoderFallbackBuffer_t3523102303E6InvokeEjP12Il2CppObject
sKj:__ZN6il2cpp2vmL36AddNestedTypesToNametoClassHashTableEP40Il2CppNameToTypeDefinitionIndexHashTablePKcRKNSt3__212basic_stringIcNS5_11char_traitsIcEENS5_9allocatorIcEEEEP11Il2CppClass
YZf:_SerializationException__ctor_m3131447373
jEa:__ZN4crnd12crn_unpacker11unpack_dxt1EPPhjjj
CIf:_BinaryWriter_Write_m3577537050
U3b:__ZNK11ICallString6ToUTF8Ev
G1i:__ZN15dense_hashtableINSt3__24pairIK10KeyWrapperIPK22Il2CppGenericParameterEP11Il2CppClassEES6_N6il2cpp5utils11PointerHashIS4_EEN14dense_hash_mapIS6_S9_SE_NS6_14EqualsComparerINS0_8equal_toIS5_EEEENS0_9allocatorISA_EEE9SelectKeyESJ_SL_E15insert_noresizeERKSA_
ISg:_Transform_1_Invoke_m2468053724_gshared
Hji:__Z51RuntimeInvoker_Void_t1185182177_TimeSpan_t881159249PFvvEPK10MethodInfoPvPS4_
TJb:__ZNSt3__211__sift_downIR17ROSorterDepthPassP15RODataDepthPassEEvT0_S5_T_NS_15iterator_traitsIS5_E15difference_typeES5_
Iya:__ZN18UnityPropertySheet11UnityTexEnvC2Ev
Tke:_ArgumentException__ctor_m3200406061
ZW:__ZN12FileAccessor4ReadEyyPvPy
Umg:_EncoderExceptionFallback__ctor_m3745979420
IPe:__Z25Il2CppCodeGenWriteBarrierI25AsyncCallback_t3962456242EvPPT_S2_
lsa:__ZN4PPtrI8MaterialE8TransferI19StreamedBinaryWriteEEvRT_
yTb:__ZN13RenderTexture9SetHeightEi
rze:__ZN28GenericInterfaceFuncInvoker1IbiE6InvokeEPK10MethodInfoP12Il2CppObjecti
Bwi:__Z62RuntimeInvoker_MonoWin32Resource_t1904229483_Int32_t2950945753PFvvEPK10MethodInfoPvPS4_
ara:__ZN16LevelGameManager8TransferI24GenerateTypeTreeTransferEEvRT_
T3k:_Physics2D_GetRayIntersectionAll_Internal_Injected_m1793592321
wVg:_Dictionary_2_OnDeserialization_m1254782141_gshared
xca:__ZN9Scripting11UnityEngine12Experimental10PlayerLoop18PreLateUpdateProxy12CleanupProxyEv
O7h:_PKCS12_get_Keys_m2165478388
hGj:__ZN6il2cpp6icalls8mscorlib6System2IO6MonoIO17GetFileAttributesEP12Il2CppStringPi
J4f:_HMACMD5__ctor_m3008609295
qff:_DateTime__ParseAmPm_m3478436123
o6k:_hexfloat
quc:__ZN20PerformanceReporting23SendRenderingInfoEvent2ERN11UnityEngine9Analytics19RenderingInfoEvent2E
zxe:__Z25Il2CppCodeGenWriteBarrierI24UInt32U5BU5D_t2770800703EvPPT_S2_
VS:__Z24scripting_class_get_name17ScriptingClassPtr
UOk:__ZL54IPv6Address_t2709566769_CustomAttributesCacheGeneratorP21CustomAttributesCache
Q_e:_Oid__ctor_m911618594
Vjd:_TypeDelegator_get_TypeHandle_m1498852405
fZ:__ZN13RuntimeStaticI15GUIEventManagerLb0EE13StaticDestroyEPv
hOe:__ZNK31TlsServerKeyExchange_t69946915115get_rsaParams_9Ev
d$d:_ShortComparer_Compare_m1881262465
Lcb:__Z29Transfer_Blittable_ArrayFieldI14SafeBinaryReadjEvRT_R9ArrayInfoRK23StaticTransferFieldInfo
Nwi:__Z53RuntimeInvoker_Keyframe_t4206410242_Int32_t2950945753PFvvEPK10MethodInfoPvPS4_
Wh:_emscripten_set_keydown_callback
nng:_EncoderReplacementFallback__ctor_m1483565116
n9e:_Interpreter_IsWordChar_m2858055765
hme:__ZNK33Comparer_t1912461351_StaticFields13get_Default_0Ev
exe:_Hashtable_CopyTo_m2905447224
fX:__ZN12FileAccessorC2Ev
k5h:__ZNK37BasicConstraintsExtension_t246219527823get_pathLenConstraint_4Ev
dwi:__Z96RuntimeInvoker_Void_t1185182177_BooleanU5BU5DU26_t3454195888_Int32_t2950945753_Int32_t2950945753PFvvEPK10MethodInfoPvPS4_
L0k:__ZL58ContactFilter2D_t3805203441_CustomAttributesCacheGeneratorP21CustomAttributesCache
OLa:__ZNK8Renderer29FlattenPerMaterialCustomPropsER22PerThreadPageAllocatorR10RenderNode
k7e:__Z25Il2CppCodeGenWriteBarrierI17Group_t2468205786EvPPT_S2_
SOe:__ZNK29HttpsClientStream_t116055256115get__request_20Ev
Nfj:_CertificateHandler_Dispose_m2100863831
kKc:__ZN23ColliderTilingExtensionC2Ev
D2c:_ModuleBuilder_set_wrappers_type_m2998401134
jNi:__ZN32StandardEventPayload_t162989125512set_m_Name_5EP8String_t
Tjj:__ZN6il2cpp2vm7Runtime12GetConfigDirEv
IRi:_PCMReaderCallback_BeginInvoke_m3391809637
WAc:__ZNSt3__27__sort3IR22InverseDepthComparitorP8DepthHitEEjT0_S5_S5_T_
iKh:_Enumerator_MoveNext_m1177880931_AdjustorThunk
uDc:__ZN14qsort_internal18QSortSingleJobDataIPN25b2SynchronizeFixturesTask14b2DeferredMoveEiPFbRKS2_S5_EE7SortJobEPS8_
E_e:__ZN25AsnEncodedData_t38235401110set__oid_0EP15Oid_t3552120260
cFi:__ZN29PositionAssertion_t33392880619set_pos_0Et
emk:_CreateOutputMethod__ctor_m3884516706
JEf:_RegionInfo_get_ISOCurrencySymbol_m441808484
Qq:__ZN13ConstraintJob23ConstraintComponentDataC2ERKS0_
nCe:__ZN18MD5SHA1_t72383894413set_hashing_6Eb
kVa:__ZN13RenderManager18UpdateAllRenderersEv
jog:_Encoding_get_UTF8UnmarkedUnsafe_m320312322
qsh:_Thread_Thread_free_internal_m333849022
dnc:__Z35Transfer_Blittable_FixedBufferFieldI9JSONWritexEvRK29SerializationCommandArgumentsR31RuntimeSerializationCommandInfo
n$d:__Z25Il2CppCodeGenWriteBarrierI24ConstructorInfo_t5769829EvPPT_S2_
RGa:__ZN15QualitySettings23VirtualRedirectTransferER19StreamedBinaryWrite
$Pc:__ZN22BaseUnityConnectClient30OnEnteringStatePausedOrStoppedEv
_Gc:__ZN10ClipperLib7Clipper18SwapPositionsInAELEPNS_5TEdgeES2_
luj:__ZN15dense_hashtableINSt3__24pairIK10KeyWrapperINS1_IPK12PropertyInfoP11Il2CppClassEEEjEES9_17ReflectionMapHashIS8_EN14dense_hash_mapIS9_jSD_NS9_14EqualsComparerINS0_8equal_toIS8_EEEENS0_9allocatorISB_EEE9SelectKeyESI_SK_E12resize_deltaEjj
Pgc:__Z25scripting_raise_exception21ScriptingExceptionPtr
Mff:_DateTime_ToUniversalTime_m1945318289
PPa:__ZNK4Mesh14ExtractUvArrayEiPfi
zse:_ArrayList_ToArray_m3827492363
nAh:_UInt64_Parse_m819899889
r5i:__ZNK15dense_hashtableINSt3__24pairIK10KeyWrapperIPKcEP11Il2CppClassEES5_N6il2cpp5utils11StringUtils12StringHasherIS4_EEN14dense_hash_mapIS5_S8_SE_NS5_14EqualsComparerINSB_13VmStringUtils21CaseSensitiveComparerEEENS0_9allocatorIS9_EEE9SelectKeyESJ_SL_E4sizeEv
Pae:_GenericTypeParameterBuilder_GetHashCode_m852224381
Yjf:_Convert_ToUInt32_m1453583008
$zf:_CompareInfo_Compare_m894311506
Jja:__Z24MergeTransformComponentsR9TransformS0_b
K8i:__ZNK15dense_hashtableI10KeyWrapperIPK19Il2CppGenericMethodES4_N6il2cpp8metadata23Il2CppGenericMethodHashEN14dense_hash_setIS4_S7_NS4_14EqualsComparerINS6_26Il2CppGenericMethodCompareEEENSt3__29allocatorIS4_EEE8IdentityESB_SE_E10test_emptyEj
FTj:__ZN6il2cpp2gc16GarbageCollector10StartWorldEv
uAc:__ZN15b2CircleContactD0Ev
TEg:__ZN32InternalEnumerator_1_t10406668319set_idx_1Ei
Y0k:__ZL54Collision2D_t2842956331_CustomAttributesCacheGeneratorP21CustomAttributesCache
vdg:_Evidence_get_SyncRoot_m2835084965
$fa:__ZN19StreamedBinaryWrite5AlignEv
$De:__ZNK22RSAManaged_t175709382019get_KeyGenerated_14Ev
ora:__ZN16GraphicsSettings23VirtualRedirectTransferER19StreamedBinaryWrite
oHk:__ZL59ICryptoTransform_t2733259762_CustomAttributesCacheGeneratorP21CustomAttributesCache
ACj:__ZNK6il2cpp8metadata19SZArrayClassCompareclEPK11Il2CppClassS4_
Q6d:__ZNK24MonoResource_t410343000914get_filename_2Ev
jef:_Convert_ToBoolean_m2833489984
wqa:__Z37GetBarycentricCoordinatesForOuterCellPPK8Vector3fRK13dynamic_arrayIS_Lj0EERS0_RK11TetrahedronR8Vector4f
Jh:_emscripten_glVertexAttribPointer
J9k:__ZNSt11logic_errorD0Ev
Vrb:__ZN14PreloadManager26UpdatePreloadingSingleStepENS_21UpdatePreloadingFlagsEi
SZi:__ZL25UnresolvedVirtualCall_168P12Il2CppObject19TimeSpan_t881159249S1_PK10MethodInfo
W0g:_SimpleCollator__ctor_m1587210019
K0j:_GC_cond_register_dynamic_libraries
Pjf:_Convert_ToUInt16_m1480956416
P5:__ZN6prcoreL25inner_stretch_i8_bilinearEPKNS_9InnerInfoE
OWa:__ZL30RegisterFilteredObjectCallbackPP12Il2CppObjectiPv
dLj:__ZN15dense_hashtableINSt3__24pairIK10KeyWrapperINS1_IPKcS4_EEEiEES6_24NamespaceAndNamePairHashN14dense_hash_mapIS6_iS9_NS6_14EqualsComparerI26NamespaceAndNamePairEqualsEENS0_9allocatorIS8_EEE9SelectKeyESD_SF_E16reset_thresholdsEv
a0k:__ZL54AudioSource_t3935305588_CustomAttributesCacheGeneratorP21CustomAttributesCache
ayc:__ZN16PhysicsManager2D19ApplyParticleForcesER13dynamic_arrayI21BatchedColliderResultLj0EE
fOc:__ZL49__ManagedRegistrationHelperFunction_TileDataProxyPv
JH:__ZN11UnityEngine15CloudWebService16SessionContainer24GetSessionHeaderJsonDataERKN4core12basic_stringIcNS2_20StringStorageDefaultIcEEEERNS2_13StringBuilderE
xY:__ZN13RuntimeStaticI21AssetReferenceStorageLb0EE13StaticDestroyEPv
nJf:__ZNK38SearchPattern_t3793128359_StaticFields19get_WildcardChars_0Ev
fIf:_BinaryWriter__cctor_m874809665
Tve:_Comparer__ctor_m2831654082
_Uk:__ZL54PhysicsUpdate_t81124440_CustomAttributesCacheGeneratorP21CustomAttributesCache
kkh:_Array_InternalArray__set_Item_TisKeyValuePair_2_t2530217319_m258011711_gshared
JTe:__ZN36NameObjectCollectionBase_t209184736423set_equality_comparer_9EP12Il2CppObject
yBa:__ZN18StreamedBinaryRead16TransferTypelessEPjPKc17TransferMetaFlags
rMh:__ZN17List_1_t25721361014set__version_3Ei
PYk:__ZL82NativeContainerNeedsThreadIndexAttribute_t764917452_CustomAttributesCacheGeneratorP21CustomAttributesCache
lld:__ZN26ResourceReader_t330049263930get_address_of_resource_ver_10Ev
aAd:__ZN16VirtFuncInvoker1I19TimeSpan_t881159249P12Il2CppObjectE6InvokeEjS2_S2_
BRd:__ZN27ClrTypeMetadata_t388585303518set_InstanceType_2EP6Type_t
QLk:__ZL79Convert_t2465617642_CustomAttributesCacheGenerator_Convert_ToUInt32_m3188121845P21CustomAttributesCache
cei:__Z48RuntimeInvoker_RuntimeObject_Decimal_t2948259380PFvvEPK10MethodInfoPvPS4_
Msh:_ThreadStart_EndInvoke_m3768045394
GZa:__ZNK17FileSystemHandler10IsReadOnlyERK13FileEntryData
Euk:__ZL64String_t_CustomAttributesCacheGenerator_String_Split_m3580120853P21CustomAttributesCache
QHh:__Z34Enumerator_get_Current_m2612064142P22Enumerator_t2017297076PK10MethodInfo
x_f:_StreamingContext__ctor_m2604757771_AdjustorThunk
ahb:__Z18Transfer_BlittableI24GenerateTypeTreeTransferLb1EjEvRK29SerializationCommandArgumentsR31RuntimeSerializationCommandInfo
utj:__ZNK15dense_hashtableINSt3__24pairIK10KeyWrapperINS1_IPK11Il2CppImageP11Il2CppClassEEEjEES9_17ReflectionMapHashIS8_EN14dense_hash_mapIS9_jSD_NS9_14EqualsComparerINS0_8equal_toIS8_EEEENS0_9allocatorISB_EEE9SelectKeyESI_SK_E10test_emptyERK30dense_hashtable_const_iteratorISB_S9_SD_SM_SI_SK_E
D1i:__ZN6il2cpp2os12FastAutoLockD2Ev
OBk:__ZL68AssemblyCopyrightAttribute_t836190902_CustomAttributesCacheGeneratorP21CustomAttributesCache
WSh:_Collection_1_Add_m1736908447_gshared
PXg:__ZNK23Dictionary_2_t13254515225get_serialization_info_13Ev
Dia:__ZN18StreamedBinaryRead21TransferSTLStyleArrayI13dynamic_arrayI17SortingLayerEntryLj0EEEEvRT_17TransferMetaFlags
XAh:__ZN25GenericVirtActionInvoker2IP12Il2CppObjectP39UnhandledExceptionEventArgs_t2886101344E6InvokeEPK10MethodInfoS1_S1_S3_
Svg:_InternalEnumerator_1_get_Current_m3008260692_AdjustorThunk
y5f:_MACTripleDES_HashFinal_m3613553534
Lq:__ZN4core8hash_setIPN5Unity9ComponentENS_4hashIS3_EENSt3__28equal_toIS3_EEE4growEi
bva:__ZN13RenderTexture6CreateERK12ObjectHandleI17RenderSurface_TagP17RenderSurfaceBaseES6_NS_11CreateFlagsE
Goh:_UTF8Encoding_InternalGetBytes_m1965760031
Xe:_emscripten_glClearDepth
G7b:__ZNK8GUILayer22GetTypeVirtualInternalEv
XGa:__ZN14SafeBinaryRead21TransferSTLStyleArrayINSt3__26vectorIN15QualitySettings14QualitySettingENS1_9allocatorIS4_EEEEEEvRT_17TransferMetaFlags
P6i:__ZNK14dense_hash_mapI10KeyWrapperIPK19Il2CppGenericMethodEPK26Il2CppGenericMethodIndicesN6il2cpp8metadata23Il2CppGenericMethodHashENS4_14EqualsComparerINS9_26Il2CppGenericMethodCompareEEENSt3__29allocatorINSE_4pairIKS4_S7_EEEEE9SelectKeyclERKSI_
X8f:__ZNK23SHA384Managed_t741585759get_H5_12Ev
$Qg:_KeyCollection__ctor_m2388548663_gshared
Tti:__Z56RuntimeInvoker_Boolean_t97287965_ILTokenInfo_t2325775114PFvvEPK10MethodInfoPvPS4_
sSa:__ZNSt3__26vectorINS_4pairIPKN5Unity4TypeE7Hash128EENS_9allocatorIS7_EEE8__appendEj
frc:__ZN8JSONRead21TransferSTLStyleArrayI13dynamic_arrayIaLj0EEEEvRT_17TransferMetaFlags
QUj:__GLOBAL__sub_I_LibraryLoader_cpp
Yfc:__Z13IsPathCreatedRKN4core12basic_stringIcNS_20StringStorageDefaultIcEEEE
SOg:__ZN22Enumerator_t208672792711set_stamp_2Ei
bDa:__ZL22stbir__encode_scanlineP11stbir__infoiPvPfiii
mXi:__ZL24UnresolvedVirtualCall_28P12Il2CppObjectS0_iiPK10MethodInfo
rod:_ExternalException__ctor_m2877839282
ZMc:__ZN20QuadTreeNodeRenderer13StaticDestroyEPv
FI:__ZN11UnityEngine15CloudWebService20WebRequestRestClient5AbortEv
S8e:__ZNK25RepeatContext_t121486307611get_count_6Ev
N3h:__Z25Il2CppCodeGenWriteBarrierI22RSAManaged_t1757093820EvPPT_S2_
G5b:__ZN9Transform12CleanupClassEv
Lzi:__ZN19MRUList_t412157380010set_tail_1EP16Node_t2049086415
F8:__ZL55__ManagedRegistrationHelperFunction_SetupCoroutineProxyPv
j2d:_OperatingSystem_Clone_m1122165140
vDh:_RandomNumberGenerator_Create_m4162970280
wKk:__ZL59AttributeTargets_t1784037988_CustomAttributesCacheGeneratorP21CustomAttributesCache
eWk:__ZL61ThreadedLoadingDebug_t53594427_CustomAttributesCacheGeneratorP21CustomAttributesCache
h1c:__ZN25ParameterInfo_t186105659814set_NameImpl_3EP8String_t
bZk:__ZL57PlayableHandle_t1095853803_CustomAttributesCacheGeneratorP21CustomAttributesCache
gwh:_Type_type_is_subtype_of_m1406623598
Iwd:__ZN19Context_t328544694415set_datastore_6EP24ObjectU5BU5D_t2843939325
ru:__ZN9Scripting11UnityEngine2XR5Tango29MeshReconstructionServerProxy9InitProxyEv
kQf:_TextReader__cctor_m322748985
Sph:_Thread_get_CurrentThread_m4142136012
L0b:__ZNSt3__26__treeINS_12__value_typeI11ShaderTagIDS2_EENS_19__map_value_compareIS2_S3_NS_4lessIS2_EELb1EEENS_9allocatorIS3_EEE12__find_equalIS2_EERPNS_16__tree_node_baseIPvEENS_21__tree_const_iteratorIS3_PNS_11__tree_nodeIS3_SD_EEiEERPNS_15__tree_end_nodeISF_EESG_RKT_
vKb:__ZNSt3__27__sort4IRNS_6__lessI11CulledLightS2_EEPS2_EEjT0_S6_S6_S6_T_
ilj:__ZN6il2cpp2vm14TypeNameParser26ParseArrayModifierOptionalEv
mU:__Z26scripting_object_get_class18ScriptingObjectPtr
bFj:__ZN6il2cpp6icalls8mscorlib6System10Reflection8Assembly13get_code_baseEP24Il2CppReflectionAssemblyb
ODc:__ZN34b2SolveDiscreteIslandBodySleepTaskD0Ev
jTa:__ZNSt3__26vectorIN4core12basic_stringIcNS1_20StringStorageDefaultIcEEEE13stl_allocatorIS5_L18MemLabelIdentifier13ELi16EEE7reserveEj
G3f:_DSASignatureDeformatter__ctor_m2889130126
M4e:_X509ChainElementCollection_Clear_m2271223414
Add:__ZN16VirtFuncInvoker0IP27UnmanagedMarshal_t984015687E6InvokeEjP12Il2CppObject
u7b:__ZNK28MonoBehaviourPropertyBinding15GenerateBindingERKN4core12basic_stringIcNS0_20StringStorageDefaultIcEEEEbRN11UnityEngine9Animation14GenericBindingE
i5e:_X509ChainElementCollection__ctor_m3424079155
k9h:__ZN39X509Certificate_t489243025_StaticFields30set_U3CU3Ef__switchU24map11_25EP24Dictionary_2_t2736202052
Hzi:_LinkStack_Push_m3081279930
IFf:__ZN6Guid_t8set__b_1Es
f$g:__Z25Il2CppCodeGenWriteBarrierI29Level2MapComparer_t1716225294EvPPT_S2_
AQc:__Z33GetUnityAnalyticsScriptingClassesv
BPg:_Enumerator_MoveNext_m1107569389_gshared
Qsh:_Timer_Init_m891735195
bij:__ZNSt3__26vectorIP9FieldInfoNS_9allocatorIS2_EEE26__swap_out_circular_bufferERNS_14__split_bufferIS2_RS4_EE
s$h:_UnityEvent_3_GetDelegate_m1156357290_gshared
WVj:__ZN6il2cpp6icalls8mscorlib6System11Environment15internalGetHomeEv
$Dg:_InternalEnumerator_1__ctor_m4200721464_gshared
$Yi:__ZL25UnresolvedVirtualCall_123P12Il2CppObjectiPK10MethodInfo
rda:__ZN9Scripting11UnityEngine12CubemapProxy12CleanupProxyEv
Nmd:_ResourceCacheItem_t51292791_marshal_pinvoke_cleanup
$ea:__ZNK5Unity9Component7GetNameEv
Vij:__ZNSt3__214__split_bufferIN6il2cpp6icalls8mscorlib6System12PropertyPairERNS_9allocatorIS5_EEEC2EjjS8_
vUb:__Z23FindMonoScriptFromClass17ScriptingClassPtr
Cag:_SymmetricAlgorithm_get_KeySize_m4185004893
pOh:_List_1_GetEnumerator_m232588170_gshared
NGc:__ZNSt3__26vectorIPN10ClipperLib6OutRecENS_9allocatorIS3_EEE21__push_back_slow_pathIRKS3_EEvOT_
H8d:_DynamicMethod_ToString_m2710486086
N_g:__Z25Il2CppCodeGenWriteBarrierI28TableRangeU5BU5D_t2913440125EvPPT_S2_
jek:__ZN16VirtFuncInvoker2IbP12Il2CppObjectP12MethodInfo_tE6InvokeEjS1_S1_S3_
EIa:__ZN13ScreenManagerD0Ev
jwc:__ZNK11b2RopeJoint16GetReactionForceEf
o_j:__ZN6il2cpp6icalls8mscorlib6System11DiagnosticsL39IsCalledFromSystemDiagnosticsStackTraceERKNSt3__26vectorI20Il2CppStackFrameInfoNS4_9allocatorIS6_EEEE
Ezh:_UInt64_System_IConvertible_ToByte_m1501504925_AdjustorThunk
tPe:__ZN49RSASslSignatureFormatter_t2709678514_StaticFields29set_U3CU3Ef__switchU24map16_2EP24Dictionary_2_t2736202052
mNe:_TlsClientHello_ProcessAsTls1_m2549285167
j7:__ZL50__ManagedRegistrationHelperFunction_PreUpdateProxyPv
AVe:__ZN25FtpWebRequest_t157781830511set_proxy_7EP12Il2CppObject
rwg:__Z38InternalEnumerator_1__ctor_m3456047704P31InternalEnumerator_1_t350626606P11Il2CppArrayPK10MethodInfo
Zmg:_EncoderExceptionFallback_Equals_m2760188920
YIg:_InternalEnumerator_1__ctor_m43405049_AdjustorThunk
pfb:__Z18Transfer_BlittableI17RemapPPtrTransferLb1EjEvRK29SerializationCommandArgumentsR31RuntimeSerializationCommandInfo
ju:__ZL65__ManagedRegistrationHelperFunction_MeshReconstructionConfigProxyPv
Zyk:__ZL94Hashtable_t1853889766_CustomAttributesCacheGenerator_Hashtable_t1853889766____hcp_PropertyInfoP21CustomAttributesCache
MP:__ZN24ProfilerCallbacksHandlerD2Ev
fz:__ZN4FMOD6System7releaseEv
WUg:__ZNK15Link_t54431796410get_Next_1Ev
Ioe:_Boolean_CompareTo_m3665076258
sig:_String_Split_m3580120853
Iah:_PrivateKeyInfo__ctor_m2811023496
CW:__Z18PathToAbsolutePathRKN4core12basic_stringIcNS_20StringStorageDefaultIcEEEE
Bad:_PropertyBuilder_GetCustomAttributes_m2917594003
Kxk:__ZL76MarshalAsAttribute_t3522571978_CustomAttributesCacheGenerator_MarshalTypeRefP21CustomAttributesCache
Uxe:_BigInteger_SetBit_m1723423691
Nrg:__Z41InternalEnumerator_1_MoveNext_m4138845038P32InternalEnumerator_1_t4239932009PK10MethodInfo
K9f:__ZNK25SHA512Managed_t17873363398get_H2_9Ev
Ati:__Z78RuntimeInvoker_RuntimeObject_ObjectU26_t2146539884_RuntimeObject_RuntimeObjectPFvvEPK10MethodInfoPvPS4_
qCf:__ZNK30DateTimeFormatInfo_t240585370123get_shortTimePattern_17Ev
TFi:__ZNK22AnchorInfo_t338701115111get_width_4Ev
yZf:_ObjectManager_AddFixup_m2154325362
$Te:__ZNK27_KeysEnumerator_t424666643216get_m_position_1Ev
ftd:__ZNK26ServerIdentity_t234220860819get__serverObject_8Ev
Rsk:__ZN32Vector2_t2156229523_StaticFields14set_upVector_4E19Vector2_t2156229523
AAa:__Z14resize_trimmedINSt3__26vectorI13dynamic_arrayI8Vector2fLj0EENS0_9allocatorIS4_EEEEEvRT_j
zZi:__ZL25UnresolvedVirtualCall_149P12Il2CppObject25PlayableGraph_t3515989261S0_PK10MethodInfo
Bnb:__ZN10MonoScript23VirtualRedirectTransferER17RemapPPtrTransfer
JRe:_Locale_GetText_m2640320736
Q8e:__ZN20IntStack_t218932768712set_values_0EP22Int32U5BU5D_t385246372
kYk:__ZL69PersistentCall_t3407714124_CustomAttributesCacheGenerator_m_ArgumentsP21CustomAttributesCache
KDa:__ZN29SerializeTraitsForStringTypesIN4core12basic_stringIcNS0_20StringStorageDefaultIcEEEEE8TransferI24GenerateTypeTreeTransferEEvRS4_RT_
A4:__ZN6prcoreL21StretchRGB9e5BilinearEPKNS_9InnerInfoE
Hta:__ZN16ReflectionProbes28GetMinBakedCubemapResolutionEv
$Ej:__ZN6il2cpp6icalls8mscorlib6System10Reflection8Assembly22load_with_partial_nameEP12Il2CppStringP40mscorlib_System_Security_Policy_Evidence
icg:_PermissionSet__ctor_m2328457660
kYj:__GLOBAL__sub_I_String_cpp
E1i:__ZN15dense_hashtableINSt3__24pairIK10KeyWrapperIPK22Il2CppGenericParameterEP11Il2CppClassEES6_N6il2cpp5utils11PointerHashIS4_EEN14dense_hash_mapIS6_S9_SE_NS6_14EqualsComparerINS0_8equal_toIS5_EEEENS0_9allocatorISA_EEE9SelectKeyESJ_SL_E6insertERKSA_
hDd:_CADMessageBase_MarshalArguments_m1927937746
uld:__ZN26ResourceReader_t330049263912set_hashes_6EP22Int32U5BU5D_t385246372
pxb:__ZN14DataBufferGLES16RecreateWithDataEjPKv
wfa:__Z29GetGlobalAllowNameConversionsv
gjh:_Array_InternalArray__Insert_TisTableRange_t3332867892_m558285859_gshared
lVb:__ZN8Material8SetColorEN9ShaderLab16FastPropertyNameERK10ColorRGBAf
_Ve:__ZN26HttpWebRequest_t166943651517set_webHeaders_14EP31WebHeaderCollection_t1942268960
Mud:__ZNK32Context_t3285446944_StaticFields18get_global_count_9Ev
lyf:__ZN20TextInfo_t381042552221get_address_of_data_8Ev
vZg:__ZN43EqualityComparer_1_t1249878500_StaticFields14set__default_0EP30EqualityComparer_1_t1249878500
Fia:__ZN15SerializeTraitsI13dynamic_arrayI17SortingLayerEntryLj0EEE8TransferI19StreamedBinaryWriteEEvRS2_RT_
Yhl:_glUniform3uiv__wrapper
HKk:__ZL77Convert_t2465617642_CustomAttributesCacheGenerator_Convert_ToByte_m2375887898P21CustomAttributesCache
X4e:_X509CertificateEnumerator__ctor_m943731472
p6k:_decfloat
kZh:_InvokableCall_1_Find_m1741895083_gshared
mbl:dynCall_iiifiii
QWc:__Z25GetUnityConnectModuleSpecv
$ng:_Encoding_GetBytes_m3735967069
JFc:__ZN23ColliderTilingExtension5ResetEv
rme:_Array_Initialize_m3004991267
IAb:__ZN14GfxContextGLES43AddRenderSurfaceToDeferredFBOInvalidateListEPK17RenderSurfaceGLES
MFj:__ZN6il2cpp6icalls8mscorlib6System9Threading6Thread15Thread_internalEP12Il2CppThreadP14Il2CppDelegate
tha:__ZN11NamedObject23VirtualRedirectTransferER14SafeBinaryRead
Qwk:__ZL65RuntimeArray_CustomAttributesCacheGenerator_Array_Sort_m493616753P21CustomAttributesCache
obe:__Z25Il2CppCodeGenWriteBarrierI24LocalBuilder_t3562264111EvPPT_S2_
hUa:__ZN23PreloadManagerOperation6IsDoneEv
AOd:__ZNK46RemotingConfiguration_t4113740665_StaticFields16get__errorMode_5Ev
eFg:_InternalEnumerator_1_Dispose_m469889800_gshared
qkj:__ZN6il2cpp2vm7Runtime15InvokeWithThrowEPK10MethodInfoPvPS5_
Oue:__ZNK29BitArrayEnumerator_t89349621814get__current_1Ev
ysj:__ZNK15dense_hashtableINSt3__24pairIK10KeyWrapperINS1_IPK10MethodInfoP11Il2CppClassEEEjEES9_17ReflectionMapHashIS8_EN14dense_hash_mapIS9_jSD_NS9_14EqualsComparerINS0_8equal_toIS8_EEEENS0_9allocatorISB_EEE9SelectKeyESI_SK_E8min_sizeEjj
K7:__ZL44__ManagedRegistrationHelperFunction_LODProxyPv
n6i:__ZNK15dense_hashtableINSt3__24pairIK10KeyWrapperIP9FieldInfoEiEES5_N6il2cpp5utils11PointerHashIS3_EEN14dense_hash_mapIS5_iSB_NS5_14EqualsComparerINS0_8equal_toIS4_EEEENS0_9allocatorIS7_EEE9SelectKeyESG_SI_E3endEv
lLc:__ZN10Effector2D10EndContactEP9b2Contact
LXj:__ZN6il2cpp5utils11StringUtils11Utf16ToUtf8ERKNSt3__212basic_stringIDsNS2_11char_traitsIDsEENS2_9allocatorIDsEEEE
XBe:_MD4Managed_Decode_m4273685594
smi:__Z50RuntimeInvoker_Int64_t3736567304_Int16_t2552820387PFvvEPK10MethodInfoPvPS4_
t0i:_UnityEngineModuleAssembly__ctor_m242195730
zue:__ZN20BitArray_t408788350914set__version_2Ei
UVa:__ZN21LightProbeProxyVolume18HasHardwareSupportEv
yAc:__ZNK20b2SeparationFunction17FindMinSeparationEPiS0_f
O5:__ZN6prcoreL31inner_stretch_argb8888_bilinearEPKNS_9InnerInfoE
KWd:_Int64_System_IConvertible_ToChar_m1509243576_AdjustorThunk
J5h:_GeneralNames_get_IPAddresses_m4242915644
wJh:_Enumerator_Dispose_m3500272053_AdjustorThunk
baj:__ZNSt3__24pairIK10KeyWrapperIN6il2cpp5utils13dynamic_arrayIPK10Il2CppTypeLj4EEEEPFvvEEC2ERKSD_
D$k:__ZL84AudioSampleProvider_t3950279772_CustomAttributesCacheGenerator_sampleFramesAvailableP21CustomAttributesCache
rzg:__ZNK32InternalEnumerator_1_t398717028111get_array_0Ev
Ama:__Z20scripting_object_new17ScriptingClassPtr
Dwk:__ZL69RuntimeArray_CustomAttributesCacheGenerator_Array_Reverse_m3714848183P21CustomAttributesCache
sbh:_KeyGeneratedEventHandler_Invoke_m2527485594
o$e:_X509Extension_set_Critical_m1180944253
cqj:__ZN24dense_hashtable_iteratorINSt3__24pairIK10KeyWrapperINS1_IPK9FieldInfoP11Il2CppClassEEEjEES9_17ReflectionMapHashIS8_EN14dense_hash_mapIS9_jSD_NS9_14EqualsComparerINS0_8equal_toIS8_EEEENS0_9allocatorISB_EEE9SelectKeyESI_SK_E30advance_past_empty_and_deletedEv
vHi:_Repetition_get_Expression_m2673886232
o4d:__ZN23AssemblyName_t27093193814set_revision_5Ei
tof:_Decimal__ctor_m1925875020_AdjustorThunk
hUf:_SerializationCallbacks__ctor_m3863304525
QMc:__GLOBAL__sub_I_TerrainScriptingClasses_cpp
ira:__ZN18ShadowMapJobHeaderD0Ev
dFi:__ZN18Parser_t243050938310set_caps_2EP21ArrayList_t2718874744
BGk:__ZL59SerializationInfo_t950877179_CustomAttributesCacheGeneratorP21CustomAttributesCache
L:Math_exp
yGd:__ZN44EnvoyTerminatorSink_t3654193516_StaticFields14set_Instance_0EP31EnvoyTerminatorSink_t3654193516
SBe:__ZNK21MD4Managed_t95754006311get_state_4Ev
mKc:__ZN13BoxCollider2D15InitializeClassEv
j4h:_TlsServerSettings_set_CertificateTypes_m2047242411
hLi:_SymmetricTransform_OFB_m3690147804
yob:__ZN13MonoBehaviour9SetScriptERK4PPtrI10MonoScriptE18ScriptingObjectPtr
eef:__ZN19Decimal_t29482593808set_hi_6Ej
blb:__Z18Transfer_BlittableI18StreamedBinaryReadLb1E5RectTIiEEvRK29SerializationCommandArgumentsR31RuntimeSerializationCommandInfo
QNk:__ZL55g_Mono_Security_Assembly_CustomAttributesCacheGeneratorP21CustomAttributesCache
yeb:__Z18Transfer_BlittableI17RemapPPtrTransferLb0E8Vector2fEvRK29SerializationCommandArgumentsR31RuntimeSerializationCommandInfo
oJj:__ZNSt3__218uninitialized_copyIPNS_4pairIK10KeyWrapperIP14Il2CppIUnknownEjEES8_EET0_T_SA_S9_
lfg:__ZN40SecurityElement_t1046076091_StaticFields29set_invalid_attr_name_chars_6EP22CharU5BU5D_t3528271667
RFk:__ZL83ObjRef_t2141158884_CustomAttributesCacheGenerator_ObjRef_get_ChannelInfo_m434196038P21CustomAttributesCache
uDh:__ZNK40RSAPKCS1KeyExchangeFormatter_t276109610112get_random_1Ev
ege:_PKCS12_get_RNG_m2649456600
D$a:__ZNK10FileSystem16LastErrorMessageEv
uQk:__ZL104NativeClassAttribute_t2601352714_CustomAttributesCacheGenerator_U3CQualifiedNativeNameU3Ek__BackingFieldP21CustomAttributesCache
uKa:__ZN4PPtrI11LightProbesE8TransferI18StreamedBinaryReadEEvRT_
s4i:__ZN15dense_hashtableINSt3__24pairIK10KeyWrapperIPK11Il2CppClassEPKcEES6_N6il2cpp5utils11PointerHashIS3_EEN14dense_hash_mapIS6_S9_SE_NS6_14EqualsComparerINS0_8equal_toIS5_EEEENS0_9allocatorISA_EEE9SelectKeyESJ_SL_E14squash_deletedEv
vmk:__ZN26PlayableOutput_t317989410514set_m_Handle_0E32PlayableOutputHandle_t4208053793
vlg:_SystemException__ctor_m4132668650
VYc:__ZN22UnityWebRequestManager10InitializeEv
YTa:__ZNSt3__26__treeINS_12__value_typeIN4core12basic_stringIcNS2_20StringStorageDefaultIcEEEE4PPtrI6ObjectEEENS_19__map_value_compareIS6_SA_NS_4lessIS6_EELb1EEE13stl_allocatorISA_L18MemLabelIdentifier52ELi16EEE15__emplace_multiIJRNS_4pairIS6_S9_EEEEENS_15__tree_iteratorISA_PNS_11__tree_nodeISA_PvEEiEEDpOT_
T2j:__ZN6il2cpp6icalls8mscorlib6System10Reflection4Emit13ModuleBuilder20create_modified_typeEP27Il2CppReflectionTypeBuilderP12Il2CppString
O_j:__ZN6il2cpp8metadataL7CompareIhEEiRKT_S4_
nAk:__ZL51FileMode_t1183438340_CustomAttributesCacheGeneratorP21CustomAttributesCache
cLa:__ZN8Renderer23VirtualRedirectTransferER18StreamedBinaryRead
ifb:__ZL26Transfer_SimpleNativeClassI17RemapPPtrTransfer8GradientLb1EEvRK29SerializationCommandArgumentsR31RuntimeSerializationCommandInfo
Ibc:__ZN12CachedWriter9InitWriteER15CacheWriterBase
lec:__Z21UnsignedInt64ToStringy
Uzg:_InternalEnumerator_1_MoveNext_m4138204635_AdjustorThunk
uBi:_PatternCompiler_BeginLink_m1295557963
pkg:__ZN33Encoding_t1523322056_StaticFields24set_isoLatin1Encoding_23EP20Encoding_t1523322056
sHk:__ZL46MD5_t3177620429_CustomAttributesCacheGeneratorP21CustomAttributesCache
aGf:_GuidParser_ThrowFormatException_m3223388534
$Gi:_Group_GetAnchorInfo_m3730312864
dQi:__Z28Dictionary_2_Add_m3693257978P24Dictionary_2_t1354619006P8String_tP18List_1_t1569362707PK10MethodInfo
eLg:__Z44InternalEnumerator_1_get_Current_m2297647799P32InternalEnumerator_1_t2261582729PK10MethodInfo
FRg:_KeyCollection_System_Collections_Generic_ICollectionU3CTKeyU3E_Add_m454648927_gshared
jvh:_TimeSpan_op_LessThanOrEqual_m300470010
Owd:_ContextAttribute_Freeze_m3288175579
ubd:_TypeBuilder_DefineMethodOverride_m2703939108
bkk:__Z76Enumerable_SingleOrDefault_TisMessageTypeSubscribers_t1684935770_m2109312684P12Il2CppObjectS0_P18Func_2_t2172606577PK10MethodInfo
h0:__ZZN15DirectorManager15InitializeClassEvEN41FixedUpdateDirectorFixedUpdateRegistrator7ForwardEv
Nwj:__ZN6il2cpp2vmL10IsAssemblyEP12Il2CppObject
zMf:_MemoryStream_get_Position_m3733941202
V0j:_GC_clear_fl_links
Ffi:__Z58RuntimeInvoker_RuntimeTypeHandle_t3027515415_RuntimeObjectPFvvEPK10MethodInfoPvPS4_
zdg:__ZN20Evidence_t200814414826set_assemblyEvidenceList_2EP21ArrayList_t2718874744
maf:_Slot_t3975888750_marshal_pinvoke
kfl:_glLinkProgram__wrapper
XZa:__ZN18ScriptingArguments8AddInt64Ex
Z4:__ZN6prcoreL12RemapGenericI17TexFormatARGB888815TexFormatBGR888EEvPKNS_9InnerInfoE
Upj:__ZN15dense_hashtableINSt3__24pairIK10KeyWrapperINS1_IPK9FieldInfoP11Il2CppClassEEEjEES9_17ReflectionMapHashIS8_EN14dense_hash_mapIS9_jSD_NS9_14EqualsComparerINS0_8equal_toIS8_EEEENS0_9allocatorISB_EEE9SelectKeyESI_SK_E13clear_deletedER30dense_hashtable_const_iteratorISB_S9_SD_SM_SI_SK_E
t9a:__ZN26SinglePassStereoSupportExt19SaveStereoConstantsEv
F1:__ZNSt3__26vectorIP10MemoryPool13stl_allocatorIS2_L18MemLabelIdentifier76ELi16EEE21__push_back_slow_pathIRKS2_EEvOT_
vFf:_TextInfo_get_ListSeparator_m1628160079
Hnj:_il2cpp_unity_liveness_calculation_from_root
t$h:_UnityEvent_4__ctor_m831487108_gshared
iqh:_EventWaitHandle_Reset_m3348053200
_Ie:_ClientContext_get_SslStream_m1583577309
oIj:__ZN6il2cpp6icalls8mscorlib6System13Globalization11CultureInfo35construct_internal_locale_from_nameEP17Il2CppCultureInfoP12Il2CppString
E_i:__ZL18incMultConstant128PyS_ii
phb:__ZL22Transfer_ManagedObjectI24GenerateTypeTreeTransferLb1EEvRK29SerializationCommandArgumentsR31RuntimeSerializationCommandInfo
$ci:__Z100RuntimeInvoker_Boolean_t97287965_RuntimeObject_Int32_t2950945753_RuntimeObject_UInt16U26_t2814738322PFvvEPK10MethodInfoPvPS4_
zwi:__Z56RuntimeInvoker_ILTokenInfo_t2325775114_Int32_t2950945753PFvvEPK10MethodInfoPvPS4_
Z3f:_HMAC_get_BlockSizeValue_m455678067
VHb:__ZN15RenderNodeQueueC2E10MemLabelId
ymd:_ResourceEnumerator_FillCache_m1661715061
cJk:__ZL90UTF32Encoding_t312252005_CustomAttributesCacheGenerator_UTF32Encoding_GetBytes_m2832872594P21CustomAttributesCache
ZOc:__ZL17CleanupModule_TLSv
EIk:__ZL72SecuritySafeCriticalAttribute_t3505979402_CustomAttributesCacheGeneratorP21CustomAttributesCache
_h:_emscripten_set_main_loop_timing
Ijf:_Convert_ToUInt16_m3523269149
Iyb:__ZN14DataBufferGLES12RecordRenderEv
cRd:_BinaryFormatter__ctor_m971003555
Z$d:__ZNK34DefaultMemberAttribute_t327509242217get_member_name_0Ev
RUb:__ZN14ImageReference10FlipImageYEv
r0i:_UsedByNativeCodeAttribute__ctor_m2647015777
Q3:__ZN6prcoreL17RGBAFloatToRGB9e5EPKNS_9InnerInfoE
SRh:__ZN19Stack_1_t392349561923get_address_of__array_0Ev
ila:__ZN21ScalableBufferManager20GetHeightScaleFactorEv
j0b:__ZNSt3__26vectorIN9ShaderLab20SerializedSubProgram15VectorParameterENS_9allocatorIS3_EEE8__appendEj
$v:__ZN4FMOD3DSP9setBypassEb
aZb:__Z19NormalizeWheelInputf
$Xb:__Z29StdTemplateConversionFunctionIsaEbPvR14SafeBinaryRead
zt:__ZN11KeyframeTplIfE8TransferI14SafeBinaryReadEEvRT_
nt:__ZNK4PPtrI13MonoBehaviourEcvPS0_Ev
UDi:_Repetition__ctor_m1672362629
usc:__Z29Transfer_Blittable_ArrayFieldI8JSONReadhEvRT_R9ArrayInfoRK23StaticTransferFieldInfo
Agg:_SecurityFrame_ToString_m339310712_AdjustorThunk
i3c:_TypeBuilder_create_runtime_class_m2581270900
$3b:__ZN11MonoManager25GetImageFromAssemblyIndexEi
Hvg:_InternalEnumerator_1_get_Current_m3008260692_gshared
D7j:__ZN6il2cpp2os20ThreadLocalValueImpl8SetValueEPv
GZj:__ZN6il2cpp2os11Environment17GetProcessorCountEv
shf:_Decimal_op_Implicit_m2299919277
fnc:__Z18Transfer_BlittableI9JSONWriteLb1EtEvRK29SerializationCommandArgumentsR31RuntimeSerializationCommandInfo
e7d:__ZNK30ConstructorBuilder_t281352410816get_parameters_3Ev
s6c:__ZN31OpCodes_t126150456_StaticFields15set_Ldc_I4_1_23E17OpCode_t123070264
YQf:_UnexceptionalStreamReader_ReadToEnd_m920589220
tmf:_DateTime_System_IConvertible_ToType_m1242864300
ee:___syscall85
Fuj:__ZNK24dense_hashtable_iteratorINSt3__24pairIK10KeyWrapperINS1_IPK12PropertyInfoP11Il2CppClassEEEjEES9_17ReflectionMapHashIS8_EN14dense_hash_mapIS9_jSD_NS9_14EqualsComparerINS0_8equal_toIS8_EEEENS0_9allocatorISB_EEE9SelectKeyESI_SK_EdeEv
ZDj:__ZN6il2cpp5utils10StringViewIDsE5EmptyEv
_Hb:__ZNSt3__26__sortIRPFbP10GUIElementS2_EPS2_EEvT0_S7_T_
K7d:_ConstructorBuilder_GetILGenerator_m1750792206
vkg:_EncoderFallback_get_ReplacementFallback_m818398284
MUj:__ZN6il2cpp2os6Thread19DetachCurrentThreadEv
jtd:_ClientActivatedIdentity_OnLifetimeExpired_m635240647
aab:__ZN11MonoManager23VirtualRedirectTransferER24GenerateTypeTreeTransfer
I2d:__Z25Il2CppCodeGenWriteBarrierI30ResolveEventHolder_t2120639521EvPPT_S2_
Yuc:__GLOBAL__sub_I_Modules_Physics2D_0_cpp
ogk:_SupportedRenderingFeatures_set_active_m3446087961
fYf:__ZN24TypeMetadata_t313952326017set_MemberTypes_1EP22TypeU5BU5D_t3940880105
gck:_CullingGroup_Dispose_m782801025
kXg:_Dictionary_2_System_Collections_IDictionary_GetEnumerator_m529247385_gshared
nsg:__Z38InternalEnumerator_1__ctor_m3349908318P32InternalEnumerator_1_t1004352082P11Il2CppArrayPK10MethodInfo
FH:__ZN11UnityEngine15CloudWebService14DataDispatcher15SetupWebRequestEv
gSc:__ZN11UnityEngine15PlatformWrapper13GetShaderCapsEv
UWb:__ZN11TypeManager7Builder5BuildERKN4core8hash_mapIiP4RTTINS_27HashFunctorPersistentTypeIDENSt3__28equal_toIiEEEE
cQb:__ZNSt3__211__sift_downIR26RenderDeferredObjectSorterP16RenderObjectDataEEvT0_S5_T_NS_15iterator_traitsIS5_E15difference_typeES5_
y1k:__ZL99CertificateHandler_t2739891000_CustomAttributesCacheGenerator_CertificateHandler_Release_m648790222P21CustomAttributesCache
tCe:__ZN16VirtFuncInvoker1IP22ByteU5BU5D_t4116647657S1_E6InvokeEjP12Il2CppObjectS1_
wae:_GenericTypeParameterBuilder_IsDefined_m98179866
JPc:__ZN21UnityAnalyticsManager23VirtualRedirectTransferER19StreamedBinaryWrite
m9g:_KeyPairPersistence_get_MachinePath_m3812267291
mdf:_Stack_Peek_m2216191248
gmf:_DateTime_System_IConvertible_ToDecimal_m1044850612_AdjustorThunk
Uac:__ZN21FixedBehaviourManager6UpdateEv
bpa:__ZN19ShaderPropertySheet8SetFloatEN9ShaderLab16FastPropertyNameEfNS_8SetFlagsE
WEi:__ZN25CharacterClass_t83912086014set_pos_cats_3EP20BitArray_t4087883509
LUa:__ZN19RuntimeSceneManager24BeginIntegrateMainThreadEP10UnityScene
Sid:__ZNK25ParameterInfo_t186105659815get_marshalAs_6Ev
gvj:__ZNK30dense_hashtable_const_iteratorINSt3__24pairIK10KeyWrapperINS1_IPK12PropertyInfoP11Il2CppClassEEEjEES9_17ReflectionMapHashIS8_EN14dense_hash_mapIS9_jSD_NS9_14EqualsComparerINS0_8equal_toIS8_EEEENS0_9allocatorISB_EEE9SelectKeyESI_SK_EptEv
sNe:_TlsServerCertificate_ProcessAsSsl3_m1306583193
KVj:__ZNSt3__2plIcNS_11char_traitsIcEENS_9allocatorIcEEEENS_12basic_stringIT_T0_T1_EERKS9_S6_
GPf:_StringReader_CheckObjectDisposedException_m3796163530
Qyh:_UInt32_System_IConvertible_ToInt16_m1659441601
hsa:__ZN16GraphicsSettings8TransferI19StreamedBinaryWriteEEvRT_
t0b:__ZN9ShaderLab20SerializedSubProgramaSERKS0_
zal:_roundf
upe:_Byte_System_IConvertible_ToSingle_m324484566_AdjustorThunk
Hoj:__ZNK14dense_hash_mapI10KeyWrapperINSt3__24pairIPK14Il2CppAssemblyP11Il2CppClassEEEj17ReflectionMapHashIS8_ENS9_14EqualsComparerINS1_8equal_toIS8_EEEENS1_9allocatorINS2_IKS9_jEEEEE9SelectKeyclERKSI_
Yba:__ZN9Scripting11UnityEngine12Experimental3U2D15SpriteBoneProxy9InitProxyEv
yef:_Decimal_op_Explicit_m2848387298
m3g:__ZN25SortKeyBuffer_t294527527014set_options_21Ei
OKf:__ZN28StreamAsyncResult_t78024851211set_state_0EP12Il2CppObject
f2i:__ZN6il2cpp2vmL24SetupTypeHierarchyLockedEP11Il2CppClassRKNS_2os12FastAutoLockE
sSd:__ZNK31OpCodes_t126150456_StaticFields11get_Box_137Ev
kig:_String_Clone_m3573869765
w9f:__ZN25SHA512Managed_t178733633911set_wOff_17Ei
lZb:__ZL11TextHandleriPK23EmscriptenKeyboardEventPv
nNb:__Z20CalculateLightMatrixRK15SharedLightDataP10Matrix4x4f
nEb:__ZNSt3__26vectorIP17FileSystemHandlerNS_9allocatorIS2_EEE21__push_back_slow_pathIRKS2_EEvOT_
IZi:__ZL25UnresolvedVirtualCall_158P12Il2CppObject39CustomAttributeNamedArgument_t287865710S1_PK10MethodInfo
MYf:_SerializableTypeMetadata_WriteTypeData_m1099030367
pgl:_glBlendEquationSeparate__wrapper
YSc:__ZNSt3__26vectorIPN11UnityEngine15CloudWebService14CloudEventInfoE13stl_allocatorIS4_L18MemLabelIdentifier88ELi16EEE21__push_back_slow_pathIS4_EEvOT_
ABf:__ZN36CultureInfo_t4157843068_StaticFields23set_shared_by_number_36EP21Hashtable_t1853889766
i4j:__ZN6il2cpp6icalls8mscorlib6System8Security12Cryptography24RNGCryptoServiceProvider13RngInitializeEP11Il2CppArray
FRd:_CodeGenerator__cctor_m3167429173
fQk:__ZL68UsedByNativeCodeAttribute_t1703770351_CustomAttributesCacheGeneratorP21CustomAttributesCache
Rqk:__ZNK32Vector3_t3722313464_StaticFields16get_zeroVector_3Ev
My:__ZN20SoundChannelInstance7setMuteEb
hdi:__Z81RuntimeInvoker_Void_t1185182177_RuntimeObject_Int32_t2950945753_Int32_t2950945753PFvvEPK10MethodInfoPvPS4_
oLd:__ZNK33ServerObjectReplySink_t296604298615get__identity_1Ev
KOh:_List_1__cctor_m972674764_gshared
G1d:_NumberFormatter_NumberToString_m3906556024
o1j:_set_bits
rfk:_UnityEventBase_DirtyPersistentCalls_m3575963459
OKc:__ZN7b2World18SetContactListenerEP17b2ContactListener
kJd:__ZN47MethodReturnDictionary_t2551046119_StaticFields24set_InternalReturnKeys_6EP24StringU5BU5D_t1281789340
NZj:__ZN6il2cpp2vm12MarshalAlloc4FreeEPv
mHj:__ZN6il2cpp5utils13dynamic_arrayIP12Il2CppObjectLj4EE8allocateEj
gta:__ZN12CachedReader4ReadEPvj
JNd:__ZN46RemotingConfiguration_t4113740665_StaticFields28set_wellKnownClientEntries_6EP21Hashtable_t1853889766
xkd:_TypeFilter_EndInvoke_m998903841
lAe:__ZN30SymmetricAlgorithm_t425422308723set_FeedbackSizeValue_6Ei
_cc:__Z18RegisterUnityClassI11GameManagerEvPKc
r7c:__ZN31OpCodes_t126150456_StaticFields14set_Ldind_I_76E17OpCode_t123070264
mGh:_KeyValuePair_2__ctor_m1794021352_gshared
r4g:_SimpleCollator_MatchesForwardCore_m850743967
tbf:__ZNK35SortedList_t2427694641_StaticFields18get_INITIAL_SIZE_0Ev
AMb:__Z24CalculateLightShadowFadeRK6CamerafffR8Vector4f
W$c:__ZN25MethodBuilder_t280731675311set_rtype_1EP6Type_t
dT:__ZN19RuntimeSceneManagerD2Ev
uDe:__ZN25RSAParameters_t17284066137set_Q_1EP22ByteU5BU5D_t4116647657
FQi:__Z25Il2CppCodeGenWriteBarrierI17Object_t631007953EvPPT_S2_
Ywf:_CCGregorianCalendar_GetMonth_m1547203696
clb:__Z18Transfer_BlittableI18StreamedBinaryReadLb0E10Matrix4x4fEvRK29SerializationCommandArgumentsR31RuntimeSerializationCommandInfo
xJi:__ZN27Uri_t100236324_StaticFields20set_UriSchemeNews_24EP8String_t
Dai:__ZN19X509Crl_t114876738816set_nextUpdate_3E20DateTime_t3738529785
cRj:__ZN6il2cpp2osL23ConvertAccessModeToUnixEi
uIc:__ZN13BoxCollider2DD0Ev
gef:__ZN19Decimal_t29482593808set_lo_7Ej
glf:__ZNK33CurrentSystemTimeZone_t399835225522get_utcOffsetWithDLS_8Ev
pkd:_TypeDelegator_IsPrimitiveImpl_m2362421338
kmk:_CreateOutputMethod_BeginInvoke_m3202548900
fAk:__ZL51Directory_t828876208_CustomAttributesCacheGeneratorP21CustomAttributesCache
Yme:_SimpleEnumerator_Reset_m2182001888
mea:__ZN9Scripting11UnityEngine16ApplicationProxy9InitProxyEv
khh:_Array_LastIndexOf_TisRuntimeObject_m1677937501_gshared
QFf:__ZN6Guid_t8set__j_9Eh
GD:__ZN11AudioSource18IsPlayingScriptingEv
T8g:_KeyBuilder_IV_m2230195376
Kwc:__ZNK12b2WheelJoint10GetAnchorAEv
ajl:_glShaderSource__wrapper
r1a:__ZN25MultiBlocksMemoryFileData17AdjustBlocksCountEj
rFj:__ZNSt3__214__split_bufferIN6il2cpp2vm22EmbeddedResourceRecordERNS_9allocatorIS3_EEED2Ev
pUj:__ZN6il2cpp5utils13dynamic_arrayIPNS_2os6ThreadELj4EE10reallocateEPS4_j
OGc:__ZN10ClipperLib14PointInPolygonERKNS_8IntPointEPNS_5OutPtE
BGf:__ZNK6Guid_t8get__d_3Ev
W5a:__ZN9GfxDevice15EndProfileEventEPN9profiling6MarkerE
Gpg:__ZNK31ArrayReadOnlyList_1_t427062399711get_array_0Ev
eMg:_Comparer_1__ctor_m319670016_gshared
Ek:_glStencilMask
vVj:__ZN6il2cpp2os10ThreadImpl16GetCurrentThreadEv
Tgd:_MonoMethod_GetBaseDefinition_m2844667474
xQj:__ZNK30dense_hashtable_const_iteratorINSt3__24pairIK10KeyWrapperIP12Il2CppObjectEN6il2cpp2gc9CachedCCWEEES5_NS7_5utils11PointerHashIS3_EEN14dense_hash_mapIS5_S9_SD_NS5_14EqualsComparerINS0_8equal_toIS4_EEEENS0_9allocatorISA_EEE9SelectKeyESI_SK_EeqERKSN_
cZb:__ZN15GUIEventManager10QueueEventERK10InputEvent
Uba:__ZN9Scripting11UnityEngine15GameObjectProxy9InitProxyEv
kSh:_Collection_1_Clear_m1300437781_gshared
bfj:_AnalyticsEvent_OnValidationFailed_m2609604624
Ond:_DecimalConstantAttribute__ctor_m3583301917
haa:__ZN9Scripting11UnityEngine9Rendering18CommandBufferProxy12CleanupProxyEv
GT:__ZNSt3__227__insertion_sort_incompleteIRPFbRKN18AwakeFromLoadQueue4ItemES4_EPS2_EEbT0_S9_T_
L0j:_GC_push_conditional_with_exclusions
QHd:_MethodCallDictionary__ctor_m2167303393
TKk:__ZL80Convert_t2465617642_CustomAttributesCacheGenerator_Convert_ToDecimal_m2858622624P21CustomAttributesCache
Eik:__ZNK37MathfInternal_t624072491_StaticFields22get_FloatMinDenormal_1Ev
lOa:__Z31DrawSpriteDeformedFromNodeQueueRK15RenderNodeQueuej16VertexInputMasksi
j4b:__Z44Register_UnityEngine_RenderTexture_set_depthv
xQg:__Z59Enumerator_System_Collections_IEnumerator_Reset_m4278714428P21Enumerator_t185561725PK10MethodInfo
K7k:_strrchr
Vzk:__ZL58UnicodeCategory_t3356078642_CustomAttributesCacheGeneratorP21CustomAttributesCache
dud:__ZN21InterfaceFuncInvoker1IP8String_tS1_E6InvokeEjP11Il2CppClassP12Il2CppObjectS1_
yOc:_unitytls_x509_export_der
x4c:__ZNK28TypeBuilderU5BU5D_t78628067114GetAtUncheckedEj
zxf:__ZN23CultureInfo_t415784306818set_constructed_33Eb
uFj:__ZNKSt3__26vectorIcNS_9allocatorIcEEE8max_sizeEv
EUg:_Dictionary_2_System_Collections_ICollection_get_SyncRoot_m2069913662_gshared
HPe:__Z25Il2CppCodeGenWriteBarrierI28HandshakeMessage_t3696583168EvPPT_S2_
Zoi:__Z109RuntimeInvoker_Void_t1185182177_RuntimeObject_RuntimeObject_SByte_t1669577662_Int32_t2950945753_RuntimeObjectPFvvEPK10MethodInfoPvPS4_
Nrk:_Enumerator_Reset_m39541243
akc:__Z33Register_UnityEngine_Random_Rangev
Uta:__ZN14RenderSettings27UpdateIndirectSpecularColorEv
lkd:_TypeDelegator_IsByRefImpl_m613197127
dt:__ZN9Scripting11UnityEngine10Animations27AnimationMixerPlayableProxy9InitProxyEv
qij:__ZN6il2cpp6icalls8mscorlib6System8MonoType16GetMethodsByNameEP20Il2CppReflectionTypeP12Il2CppStringibS5_
QFk:__ZL73ObjRef_t2141158884_CustomAttributesCacheGenerator_U3CU3Ef__switchU24map26P21CustomAttributesCache
xfe:__ZN16VirtFuncInvoker1I25DSAParameters_t1885824122bE6InvokeEjP12Il2CppObjectb
v5k:_strncmp
$La:__ZN4PPtrI10GameObjectE8TransferI14SafeBinaryReadEEvRT_
$8h:__ZNK26X509Certificate_t48924302515get_m_subject_9Ev
YYk:__ZL106PlayableAsset_t3219022681_CustomAttributesCacheGenerator_PlayableAsset_Internal_CreatePlayable_m2550417712P21CustomAttributesCache
Jqh:_Monitor_Monitor_wait_m3706677354
tAi:__Z25Il2CppCodeGenWriteBarrierI17Match_t3408321083EvPPT_S2_
AEh:_RijndaelTransform__cctor_m2439033240
dtb:__ZNSt3__27__sort3IRNS_4lessIN22BuiltinResourceManager8ResourceEEEPS3_EEjT0_S7_S7_T_
mpb:__Z23TransferScriptingObjectI19StreamedBinaryWriteEvRT_18ScriptingObjectPtr17ScriptingClassPtrPK15MonoScriptCache
exk:__ZL175U3CGetEnumeratorU3Ec__Iterator0_t1202911786_CustomAttributesCacheGenerator_U3CGetEnumeratorU3Ec__Iterator0_System_Collections_Generic_IEnumeratorU3CTU3E_get_Current_m322251035P21CustomAttributesCache
_Wi:__ZL24UnresolvedVirtualCall_14P12Il2CppObject25RSAParameters_t1728406613PK10MethodInfo
c$h:_UnityEvent_1__ctor_m1789019280_gshared
meh:_Array_InternalArray__ICollection_Remove_TisMonoResource_t4103430009_m238733686_gshared
cYd:_IntPtr_ToString_m1831665121
Gkd:__ZN28GenericInterfaceFuncInvoker1IP10Assembly_tP28ResolveEventArgs_t1779456501E6InvokeEPK10MethodInfoP12Il2CppObjectS3_
$cc:__Z18RegisterUnityClassI12ScriptMapperEvPKc
gOk:__ZL72PKCS12_t4101533061_CustomAttributesCacheGenerator_U3CU3Ef__switchU24mapCP21CustomAttributesCache
_kk:_PlayerConnection_DisconnectedCallback_m1697017309
uSd:__ZNK31OpCodes_t126150456_StaticFields15get_Ldind_U4_74Ev
j8d:_ILGenerator_emit_int_m2322014738
Zcg:__ZNK40SecurityElement_t1046076091_StaticFields30get_invalid_attr_value_chars_7Ev
jVj:__ZN6il2cpp2os10ThreadImpl11SetPriorityENS0_14ThreadPriorityE
bfi:__Z50RuntimeInvoker_Int64_t3736567304_Int32_t2950945753PFvvEPK10MethodInfoPvPS4_
xEg:__ZN32InternalEnumerator_1_t25766417799set_idx_1Ei
_5a:__ZN9GfxDevice16DeleteTimerQueryEP13GfxTimerQuery
pze:__ZN21InterfaceFuncInvoker2IbP22BigInteger_t2902905090iE6InvokeEjP11Il2CppClassP12Il2CppObjectS1_i
W6:__ZL51__ManagedRegistrationHelperFunction_UnityEventProxyPv
Ixa:__ZN9ShaderLab11shaderprops9GetTexEnvEPK19ShaderPropertySheetS3_NS_16FastPropertyNameE16TextureDimensionb
OKb:__ZN29RenderNodeQueuePrepareContextC2Ev
Anj:_il2cpp_gc_disable
C1b:__ZN9ShaderLab20SerializedSubProgram16TextureParameter8TransferI24GenerateTypeTreeTransferEEvRT_
ZUf:__ZN18VirtActionInvoker1I19Decimal_t2948259380E6InvokeEjP12Il2CppObjectS0_
I3f:_DSASignatureDeformatter_SetKey_m2999549245
R4j:__ZN6il2cpp2os11MutexHandle4WaitEb
U3a:__ZN9GfxDevice19SaveStereoConstantsEv
Q4j:__ZN6il2cpp2os11MutexHandle4WaitEj
Agc:__ZL34GetComponentsImplementationRecurseILb1ELi1ELi1EEbR10GameObjectbRK17CompareParametersRK39GetComponentsImplementation_ReturnValue
lgi:__Z114RuntimeInvoker_Boolean_t97287965_RuntimeObject_RuntimeObject_Int32_t2950945753_Int32_t2950945753_Int32_t2950945753PFvvEPK10MethodInfoPvPS4_
U6d:_AssemblyBuilder_GetTypes_m3415680380
h4:__ZN6prcoreL17RemapGenericFloatI15TexFormatRGHalf18TexFormatARGBFloatEEvPKNS_9InnerInfoE
HMi:_AnalyticsEventParam_get_groupID_m569309506
vrf:_StackFrame_GetMethod_m1395840764
YGj:__ZN6il2cpp6icalls8mscorlib6SystemL10AssignRealIfEEvNS2_17WidenedValueUnionEPv14Il2CppTypeEnumjj
gwa:__ZNK13RenderTexture13GetDataHeightEv
Oqb:__Z18SimulateMouseInputi
tGb:__ZN13RenderManager23AddRemoveCamerasDelayedEv
Q8:__ZL51__ManagedRegistrationHelperFunction_Vector2IntProxyPv
Ru:__ZN23PreloadManagerOperation11GetPriorityEv
DUc:__ZN11UnityEngine9Analytics15AnalyticsConfigC2Ev
jtc:__ZN5Unity9rapidjson6WriterI16TempBufferWriterNS0_4UTF8IcEES4_13JSONAllocatorE11WriteUint64Ey
Qne:_BitConverter__cctor_m3841343255
bef:_Decimal_Compare_m3062820418
Is:__ZN9Scripting11UnityEngine13AnimatorProxy12CleanupProxyEv
Xsb:__ZNSt3__27__sort4IRN10vector_mapIiN17InstancingBatcher12PropertyTypeENS_4lessIiEE13stl_allocatorINS_4pairIiS3_EEL18MemLabelIdentifier1ELi16EEE13value_compareEPS8_EEjT0_SF_SF_SF_T_
S2e:__ZN33X509Chain_t194917408_StaticFields29set_U3CU3Ef__switchU24mapB_12EP24Dictionary_2_t2736202052
Edg:__ZN30EvidenceEnumerator_t170816666714set_hostEnum_1EP12Il2CppObject
xTb:__ZN13RenderTexture8SetWidthEi
Z5b:__ZNK28RectTransformPropertyBinding12SetPPtrValueERKN11UnityEngine9Animation10BoundCurveEi
qtb:__ZN18FrameTimingManager18GetVSyncsPerSecondEv
yng:__ZN44EncoderReplacementFallbackBuffer_t186318716217set_replacement_0EP8String_t
oug:_InternalEnumerator_1__ctor_m1341209356_AdjustorThunk
Vue:__ZN35CaseInsensitiveComparer_t367003580013set_culture_2EP23CultureInfo_t4157843068
GWi:_RemoteSettings_RemoteSettingsUpdateCompleted_m2956290507
tTh:_Collection_1_System_Collections_ICollection_CopyTo_m1516601228_gshared
vZ:__ZN23DefaultMeshVertexFormatC2E18VertexChannelsInfo
nLd:_ServerObjectReplySink_SyncProcessMessage_m512968558
QRf:_Int16_System_IConvertible_ToDouble_m1661805412
QAe:__ZNK23ARC4Managed_t26418584528get_y_15Ev
nKc:__ZZN13BoxCollider2D15InitializeClassEvEN41FunctorImpl_40kSpriteTilingPropertyChange4CallEPviR11MessageData
YCd:__ZN18ObjRef_t214115888417set__serverType_5EP6Type_t
NLh:_List_1_Insert_m4050947056_gshared
KQ:__ZN9ShaderLab16FastPropertyName4InitEPKc
SCg:_InternalEnumerator_1__ctor_m39232262_AdjustorThunk
V_d:__ZNK37MonoEnumInfo_t3694469084_StaticFields20get_short_comparer_8Ev
K$g:__ZNK24TailoringInfo_t86643365420get_TailoringCount_2Ev
MJk:__ZL61Thread_t2300836069_CustomAttributesCacheGenerator_local_slotsP21CustomAttributesCache
gxa:__ZN6ObjectC2E10MemLabelId18ObjectCreationMode
Ztb:__ZN7ApiGLES36GetTextureTargetViaFrameBufferStatusE16TextureDimensionj
uEg:_InternalEnumerator_1_get_Current_m3911557813_AdjustorThunk
Hqc:__ZN8JSONRead21TransferSTLStyleArrayI31ArrayOfManagedObjectsTransfererEEvRT_17TransferMetaFlags
lqe:_Char_System_IConvertible_ToByte_m2347554595_AdjustorThunk
vek:__ZN26PersistentCall_t340771412417set_m_CallState_4Ei
nBa:__ZN10VertexData8TransferI17RemapPPtrTransferEEvRT_
Gva:__ZN13RenderTexture9SetMipMapEb
V4i:__ZN15dense_hashtableINSt3__24pairIK10KeyWrapperIPK11Il2CppClassEPKcEES6_N6il2cpp5utils11PointerHashIS3_EEN14dense_hash_mapIS6_S9_SE_NS6_14EqualsComparerINS0_8equal_toIS5_EEEENS0_9allocatorISA_EEE9SelectKeyESJ_SL_E13set_empty_keyERKSA_
Ihe:__ZN26SecurityParser_t412448007711set_root_13EP27SecurityElement_t1046076091
qGi:_BalancingGroup_Compile_m2575117193
I0:__Z18GetDirectorManagerv
$Sh:_Collection_1_GetEnumerator_m1824095167_gshared
obg:__ZN29TripleDESTransform_t9641690609set_E3_14EP24DESTransform_t4088905499
w5h:__ZN50ExtendedKeyUsageExtension_t3929363080_StaticFields29set_U3CU3Ef__switchU24map14_4EP24Dictionary_2_t2736202052
TDa:__Z18UploadAsyncTextureR7Texturej
sTd:_Int32_Equals_m2976157357_AdjustorThunk
hha:__ZN11NamedObject8TransferI19StreamedBinaryWriteEEvRT_
FLd:_SoapAttribute_get_XmlNamespace_m859394681
akg:__ZN33Encoding_t1523322056_StaticFields33set_utf8EncodingWithoutMarkers_21EP20Encoding_t1523322056
qbi:_X509ExtensionCollection_System_Collections_IEnumerable_GetEnumerator_m1475785462
qxb:__ZN7ApiGLES19UploadBufferSubDataEjN2gl12BufferTargetEllPKv
a3:__ZNSt3__216__rotate_forwardINS_11__wrap_iterIPN4core12basic_stringIcNS2_20StringStorageDefaultIcEEEEEEEET_S9_S9_S9_
Fsk:_Vector2_GetHashCode_m3916089713
XQ:__ZdaPv
nqk:_SendMouseEvents_HitTestLegacyGUI_m579942228
d$f:__ZN31RuntimeMethodHandle_t113392498422get_address_of_value_0Ev
A0d:_MulticastDelegate_Equals_m2502840627
wjk:__ZN40PlayerEditorConnectionEvents_t341178751324set_disconnectionEvent_2EP33ConnectionChangeEvent_t3251856151
Dag:_SymmetricAlgorithm_set_KeySize_m3805756466
pZk:__ZL82Logger_t274032455_CustomAttributesCacheGenerator_Logger_set_logHandler_m4059005946P21CustomAttributesCache
SLe:__ZNK19Context_t397123470725get_readSequenceNumber_17Ev
Eea:__ZN9Scripting5Unity11Collections8LowLevel6Unsafe47NativeDisableUnsafePtrRestrictionAttributeProxy9InitProxyEv
ype:_Byte_System_IConvertible_ToUInt32_m1049546902_AdjustorThunk
xjk:__Z25Il2CppCodeGenWriteBarrierI33ConnectionChangeEvent_t3251856151EvPPT_S2_
bqi:__Z53RuntimeInvoker_Double_t594665363_Interval_t1802865632PFvvEPK10MethodInfoPvPS4_
vAd:_LeaseSink_RenewLease_m578578728
_Wb:__Z21InitializeBatchedJobsv
E7f:_SHA1Internal_ProcessBlock_m1991889327
rcb:__Z19TransferField_ArrayI14SafeBinaryRead27Converter_SimpleNativeClassI8GUIStyleEEvRK23StaticTransferFieldInfoR31RuntimeSerializationCommandInfoRT0_
Imb:__ZN18StreamedBinaryRead21TransferSTLStyleArrayI13dynamic_arrayIN4math12int3_storageELj0EEEEvRT_17TransferMetaFlags
jlh:_Array_Sort_TisRuntimeObject_TisRuntimeObject_m1685639929_gshared
x4j:__ZN6il2cpp5utils10MemoryPoolC2Ev
fPd:_RemotingServices_SetMessageTargetIdentity_m4083751943
nta:__ZN14RenderSettings5ResetEv
Ada:__ZN9Scripting11UnityEngine15ColorGamutProxy9InitProxyEv
$lc:__ZN5Unity9rapidjson12GenericValueINS0_4UTF8IcEE13JSONAllocatorE10FindMemberIS4_EENS0_21GenericMemberIteratorILb0ES3_S4_EERKNS1_IS3_T_EE
HOh:__ZN18List_1_t305805257312set__items_1EP28OrderBlockU5BU5D_t2389202590
mEg:_InternalEnumerator_1_System_Collections_IEnumerator_get_Current_m3892960115_AdjustorThunk
P3b:__ZN9ShaderLabL18AddPropertyToArrayERK19ShaderPropertySheetR13dynamic_arrayIiLj0EERKNS_8FloatValE
rEj:__ZNSt3__212basic_stringIDsNS_11char_traitsIDsEENS_9allocatorIDsEEE6appendEPKDsj
YKi:_SymmetricTransform_Finalize_m4129642865
Bse:_ArrayList_Clone_m2682741233
X3i:___cxx_global_var_init_3_9736
A4f:_HMAC_HashCore_m3684104066
Usc:__ZN5Unity9rapidjson13GenericReaderINS0_4UTF8IcEES3_13JSONAllocatorE11ParseNumberILj1ENS0_25GenericInsituStringStreamIS3_EENS0_15GenericDocumentIS3_S4_S4_EEEEvRT0_RT1_
SG:__ZN11UnityEngine15CloudWebService14DataDispatcherD0Ev
Cxe:__ZNK22BigInteger_t290290509012get_length_0Ev
wNa:__ZN14SpriteRenderer14OnChangeSpriteEv
eai:__ZN22X509Stores_t137393623714set__trusted_1EP21X509Store_t2777415283
p$f:_RuntimeTypeHandle_GetHashCode_m3999856879
GMk:__ZL59ICustomFormatter_t4199732012_CustomAttributesCacheGeneratorP21CustomAttributesCache
Zci:__Z79RuntimeInvoker_UInt16_t2177724958_RuntimeObject_Int32_t2950945753_RuntimeObjectPFvvEPK10MethodInfoPvPS4_
cVj:__ZN6il2cpp2os10ThreadImplD2Ev
M8j:__ZNK26AnimationCurve_t304675436611get_m_Ptr_0Ev
yxc:__ZN12b2MouseJoint23InitVelocityConstraintsERK12b2SolverData
omc:__ZN8Gradient8TransferI9JSONWriteEEvRT_
nVa:__ZN21RendererUpdateManager18OncePerFrameUpdateER13RendererScene
kef:_Convert_ToBoolean_m2833621053
Bha:__ZNK12TLSAllocatorI14StackAllocatorE22GetAllocatedMemorySizeEv
YOk:__ZL62WebHeaderCollection_t1942268960_CustomAttributesCacheGeneratorP21CustomAttributesCache
Qfa:__ZN17RemapPPtrTransfer12PushMetaFlagE17TransferMetaFlags
j3g:__ZN19Context_t174453113024set_QuickCheckPossible_7Eb
n_a:__ZN12HandlerChain4NameEv
Ckh:_Array_InternalArray__set_Item_TisMonoWin32Resource_t1904229483_m4042549565_gshared
h_e:__ZN20WebProxy_t201676054227set_useDefaultCredentials_4Eb
bSf:_Int16_System_IConvertible_ToType_m3672347013_AdjustorThunk
Zdb:__Z29Transfer_Blittable_ArrayFieldI14SafeBinaryReadN4math12int3_storageEEvRT_R9ArrayInfoRK23StaticTransferFieldInfo
Ifg:_SecurityException_ToString_m3228070608
ySf:_Int16_ToString_m2013897809
wwh:_Type_GetType_m1766533001
zmk:_PlayableOutput_GetHandle_m777137769_AdjustorThunk
Ttg:__ZN31InternalEnumerator_1_t4544632379set_idx_1Ei
y$h:__ZN28SslHandshakeHash_t21075817729set_md5_4EP25HashAlgorithm_t1432317219
Lfg:_String_Substring_m2848979100
SVj:__ZN6il2cpp5utils10StringViewIDsEC2ILj2EEERAT__KDs
B0i:__ZN15dense_hashtableINSt3__24pairIK10KeyWrapperIPK22Il2CppGenericParameterEP11Il2CppClassEES6_N6il2cpp5utils11PointerHashIS4_EEN14dense_hash_mapIS6_S9_SE_NS6_14EqualsComparerINS0_8equal_toIS5_EEEENS0_9allocatorISA_EEE9SelectKeyESJ_SL_ED2Ev
fVi:_ScriptableObject_CreateInstance_TisRuntimeObject_m1552711675_gshared
Bfg:_SecurityException_get_PermissionType_m2237538728
BYb:__Z29StdTemplateConversionFunctionIbbEbPvR14SafeBinaryRead
oRh:__Z28Enumerator__ctor_m3419056812P22Enumerator_t1142515742P19Stack_1_t3923495619PK10MethodInfo
lXj:__ZNK15dense_hashtableINSt3__24pairIK10KeyWrapperIPK19Il2CppGenericMethodEP10MethodInfoEES6_N6il2cpp8metadata23Il2CppGenericMethodHashEN14dense_hash_mapIS6_S9_SD_NS6_14EqualsComparerINSC_26Il2CppGenericMethodCompareEEENS0_9allocatorISA_EEE9SelectKeyESH_SJ_E12test_deletedEj
uab:__Z44InitializeTransferFunctionScriptingTraitsForI17RemapPPtrTransferEvR31TransferFunctionScriptingTraits
skk:_PlayerEditorConnectionEvents_UnregisterManagedCallback_m400366024
O5b:__ZNSt3__26vectorI16MessageForwarder13stl_allocatorIS1_L18MemLabelIdentifier7ELi8EEE6resizeEj
u4e:_X509Chain_SelectBestFromCollection_m1068759221
kLi:_SymmetricTransform_TransformBlock_m851059707
Dwj:__ZN6il2cpp2vm10Reflection27GetCustomAttributesCacheForEP11Il2CppClass
qvk:__ZL68IntPtr_t_CustomAttributesCacheGenerator_IntPtr_ToPointer_m4157623054P21CustomAttributesCache
jFd:__ZNK34MethodCall_t861078140_StaticFields30get_U3CU3Ef__switchU24map1F_11Ev
jFi:_Regex_System_Runtime_Serialization_ISerializable_GetObjectData_m4061390789
mQh:_Enumerator_System_Collections_IEnumerator_Reset_m2261065994_AdjustorThunk
k3h:__ZN26X509Certificate_t48924302521set_issuerUniqueID_19EP22ByteU5BU5D_t4116647657
KUa:__ZN18LoadSceneOperation21MustCompleteNextFrameEv
vfd:_MonoMethodInfo_get_method_info_m88651774
qD:__ZNK12AudioManager16GetAudioListenerEv
NSd:_Int32_System_IConvertible_ToDateTime_m1824716955
IUg:_Dictionary_2_System_Collections_Generic_ICollectionU3CSystem_Collections_Generic_KeyValuePairU3CTKeyU2CTValueU3EU3E_CopyTo_m331407443_gshared
PKk:__ZL81Convert_t2465617642_CustomAttributesCacheGenerator_Convert_ToDateTime_m3752463692P21CustomAttributesCache
j$f:_RuntimeTypeHandle__ctor_m3315980708_AdjustorThunk
_6e:__ZNK15Key_t272552300113get_options_1Ev
hIk:__ZL69IIdentityPermissionFactory_t3268650966_CustomAttributesCacheGeneratorP21CustomAttributesCache
pcf:_SortedList_Add_m810900317
K9:__ZN9Scripting11UnityEngine13Serialization34FormerlySerializedAsAttributeProxy9InitProxyEv
J9h:_X509Chain_get_TrustAnchors_m2434696767
bUf:__ZN25GenericVirtActionInvoker1I28StreamingContext_t3711869237E6InvokeEPK10MethodInfoP12Il2CppObjectS0_
Xfi:__Z172RuntimeInvoker_Void_t1185182177_RuntimeObject_CodePointIndexerU26_t4059079874_ByteU2AU26_t57153304_ByteU2AU26_t57153304_CodePointIndexerU26_t4059079874_ByteU2AU26_t57153304PFvvEPK10MethodInfoPvPS4_
wth:_Scheduler_ShrinkIfNeeded_m820085397
aVc:__ZN11UnityEngine9Analytics15UserCustomEvent12CustomParams6InsertEPKcRNS1_11CustomValueE
jTh:_Collection_1_set_Item_m3534473787_gshared
xPc:__ZL55__ManagedRegistrationHelperFunction_RemoteSettingsProxyPv
IW:__Z13GetFileSystemv
aUi:_AudioSourceExtension_ExtensionUpdate_m2790353999
eZ:__ZN13RuntimeStaticI15GUIEventManagerLb0EE16StaticInitializeEPv
Wik:_MonoBehaviour_IsObjectMonoBehaviour_m2134950949
HJd:__ZNK29MonoMethodMessage_t280763694422get_methodSignature_10Ev
BPk:__ZL53RegexOptions_t92845595_CustomAttributesCacheGeneratorP21CustomAttributesCache
UBh:_Version_CompareTo_m3146217210
myc:__ZN24RigidbodyMovementState2D21ResetAngularMoveStateEv
ANa:__ZThn32_N14SpriteRenderer15AddAsRenderNodeER15RenderNodeQueueRK20DeprecatedSourceData
Fpj:__ZN10KeyWrapperINSt3__24pairIPK9FieldInfoP11Il2CppClassEEEC2ERKS7_
etk:_Vector3_Equals_m906392898_AdjustorThunk
Uvh:_Type_get_IsClass_m589177581
fwh:_Type_get_IsSystemType_m624798880
W3d:__Z25Il2CppCodeGenWriteBarrierI29StrongNameKeyPair_t3411219591EvPPT_S2_
H9a:__ZN19ShaderPropertySheet9SetMatrixEN9ShaderLab16FastPropertyNameERK10Matrix4x4fNS_8SetFlagsE
j_h:__Z32UnityAction_2_Invoke_m2304474703P25UnityAction_2_t3283971887P12Il2CppObjectS2_PK10MethodInfo
dFe:__ZNK25EncryptedData_t357754873326get__encryptionAlgorithm_2Ev
dGa:__Z29GetTextureSizeAllowedMultiple13TextureFormat
Cej:__ZN6il2cpp2os6Atomic22CompareExchangePointerI21CustomAttributesCacheEEPT_PVS5_S5_S5_
gpf:_Decimal_Subtract_m835601464
EEb:__ZZ23InitPlayerLoopCallbacksvEN52InitializationAsyncUploadTimeSlicedUpdateRegistrator7ForwardEv
c5b:__Z46CleanupSpriteRendererAnimationBindingInterfacev
lpi:__Z73RuntimeInvoker_Boolean_t97287965_RuntimeObject_IPv6AddressU26_t3285609463PFvvEPK10MethodInfoPvPS4_
Zgk:__ZNK21SpriteBone_t30332009616get_m_Position_1Ev
Yth:_TimeSpan__ctor_m3689759052_AdjustorThunk
Kmj:_il2cpp_array_element_size
JZc:__ZN9Scripting19UnityEngineInternal5Video21VideoPixelFormatProxy12CleanupProxyEv
via:__ZNSt3__26__treeINS_12__value_typeIN4core12basic_stringIcNS2_20StringStorageDefaultIcEEEEjEENS_19__map_value_compareIS6_S7_NS_4lessIS6_EELb1EEE13stl_allocatorIS7_L18MemLabelIdentifier7ELi16EEE25__emplace_unique_key_argsIS6_JNS_4pairIS6_jEEEEENSH_INS_15__tree_iteratorIS7_PNS_11__tree_nodeIS7_PvEEiEEbEERKT_DpOT0_
Ki:_glCheckFramebufferStatus
ypg:_U3CGetEnumeratorU3Ec__Iterator0_System_Collections_Generic_IEnumeratorU3CTU3E_get_Current_m9057020_gshared
amg:__ZN19Decoder_t220418272521set_fallback_buffer_1EP33DecoderFallbackBuffer_t2402303981
zVi:_CustomEventData__ctor_m4146403782
Rpj:__ZN24dense_hashtable_iteratorINSt3__24pairIK10KeyWrapperINS1_IPK9FieldInfoP11Il2CppClassEEEjEES9_17ReflectionMapHashIS8_EN14dense_hash_mapIS9_jSD_NS9_14EqualsComparerINS0_8equal_toIS8_EEEENS0_9allocatorISB_EEE9SelectKeyESI_SK_EC2EPK15dense_hashtableISB_S9_SD_SM_SI_SK_EPSB_SS_b
FGe:_CipherSuite_get_CipherAlgorithmType_m137858741
I9h:__ZNK20X509Chain_t86378360013get__status_4Ev
Fxc:__ZNK15b2DistanceJoint17GetReactionTorqueEf
Lue:_BitArrayEnumerator_get_Current_m4220391712
u3d:__Z37il2cpp_codegen_get_executing_assemblyPK10MethodInfo
Vic:__Z104Register_UnityEngine_Experimental_Rendering_GraphicsFormatUtility_GetGraphicsFormat_Native_TextureFormatv
Kmh:__ZNK15StringBuilder_t18get__maxCapacity_4Ev
tU:__ZN4core8hash_setINS_4pairIKi17ThreadedAwakeDataLb0EEENS_9hash_pairINS_4hashIiEES2_S3_EENS_10equal_pairINSt3__28equal_toIiEES2_S3_EEE4growEi
YYa:__ZN9Transform23VirtualRedirectTransferER17RemapPPtrTransfer
tMi:__ZNK24AesTransform_t295712361118get_expandedKey_12Ev
CYe:_IPAddress_get_ScopeId_m4237202723
Wnk:_Quaternion_Equals_m2038868948_AdjustorThunk
czg:_InternalEnumerator_1_MoveNext_m3520556285_AdjustorThunk
jEi:_ExpressionCollection_get_Item_m3510736379
Loh:_UTF8Encoding_InternalGetCharCount_m82458470
Osk:_Vector2__cctor_m2108982652
Ckg:__ZNK40EncoderFallback_t1188251036_StaticFields26get_replacement_fallback_1Ev
alk:_U3CBlockUntilRecvMsgU3Ec__AnonStorey2_U3CU3Em__0_m2225790220
yKg:_InternalEnumerator_1_MoveNext_m2734554195_AdjustorThunk
MIj:__ZN14dense_hash_mapI10KeyWrapperIP14Il2CppIUnknownEjN6il2cpp5utils11PointerHashIS1_EENS3_14EqualsComparerINSt3__28equal_toIS2_EEEENS9_9allocatorINS9_4pairIKS3_jEEEEE15set_deleted_keyERSF_
Ilb:__ZL22Transfer_ManagedObjectI18StreamedBinaryReadLb0EEvRK29SerializationCommandArgumentsR31RuntimeSerializationCommandInfo
HOe:__ZN27SslClientStream_t391462466126set_ClientCertSelection_17EP40CertificateSelectionCallback_t3743405224
pAj:__ZN6il2cpp2gc9AllocatorIP12Il2CppThreadE10deallocateEPvj
tGe:__ZN23CipherSuite_t341474457518set_keyBlockSize_9Ei
Zwj:__ZN13Il2CppHashMapIPK14Il2CppAssemblyPK22Il2CppMonoAssemblyNameN6il2cpp5utils11PointerHashIS1_EENSt3__28equal_toIS2_EENSA_9allocatorINSA_4pairIK10KeyWrapperIS2_ES5_EEEEEC2EjRKS9_RKSC_
vke:_DelegatePInvokeWrapper_AppDomainInitializer_t682969308
c_k:__ZL141SupportedRenderingFeatures_t353898663_CustomAttributesCacheGenerator_SupportedRenderingFeatures_IsMixedLightingModeSupportedByRef_m2282093837P21CustomAttributesCache
MV:__ZN8Remapper6RemoveEi
P1a:__ZN10MemoryFile4ReadEyPvPy
_ng:_Encoding_GetBytes_m3148649984
_gc:__ZN9Scripting27CreateArgumentNullExceptionEPKc
uTb:__ZN15ReflectionProbe17UseRendererResultEP13ProbeRenderer
ZPj:__ZNK24dense_hashtable_iteratorINSt3__24pairIK10KeyWrapperIP12Il2CppObjectEN6il2cpp2gc9CachedCCWEEES5_NS7_5utils11PointerHashIS3_EEN14dense_hash_mapIS5_S9_SD_NS5_14EqualsComparerINS0_8equal_toIS4_EEEENS0_9allocatorISA_EEE9SelectKeyESI_SK_EptEv
Kzh:_UInt64_System_IConvertible_ToDecimal_m806594027_AdjustorThunk
_fg:__ZNK36RuntimeDeclSecurityEntry_t314446915610get_size_1Ev
A0i:__ZN14dense_hash_mapI10KeyWrapperIPK22Il2CppGenericParameterEP11Il2CppClassN6il2cpp5utils11PointerHashIS2_EENS4_14EqualsComparerINSt3__28equal_toIS3_EEEENSC_9allocatorINSC_4pairIKS4_S6_EEEEED2Ev
ONh:_List_1__ctor_m3395838871_gshared
Yce:__ZNK22StrongName_t409384937720get_tokenAlgorithm_3Ev
I9d:__ZNK24FieldBuilder_t262704999310get_type_1Ev
sDe:__ZN25RSAParameters_t172840661314set_InverseQ_5EP22ByteU5BU5D_t4116647657
elh:_Array_Resize_TisCustomAttributeNamedArgument_t287865710_m885566878_gshared
NX:__ZN17TransformInternal19FreeTransformThreadER18TransformHierarchyjj
hni:__Z85RuntimeInvoker_RuntimeObject_RuntimeObject_SByte_t1669577662_ExceptionU26_t3600731591PFvvEPK10MethodInfoPvPS4_
twi:__Z49RuntimeInvoker_Slot_t3975888750_Int32_t2950945753PFvvEPK10MethodInfoPvPS4_
mDk:__ZL110CriticalFinalizerObject_t701527852_CustomAttributesCacheGenerator_CriticalFinalizerObject_Finalize_m2010384847P21CustomAttributesCache
k1k:__ZL66RaycastHit2D_t2279581989_CustomAttributesCacheGenerator_m_CentroidP21CustomAttributesCache
r6i:__ZNK6il2cpp5utils11PointerHashI9FieldInfoEclEPKS2_
qJf:_DirectoryInfo__ctor_m481305441
D9:__ZN9Scripting11UnityEngine11SpriteProxy12CleanupProxyEv
R5e:_X509ExtensionCollection_get_SyncRoot_m2667861032
W1i:__ZN6il2cpp2vm5Class15GetElementClassEP11Il2CppClass
HQ:__ZN10MemoryPoolC2E10MemLabelIdbPKciii
UZg:__ZNK42EqualityComparer_1_t892922493_StaticFields14get__default_0Ev
NTc:__ZN14UnityAnalytics25UnregisterGlobalCallbacksEv
NRb:__Z40ProcessCameraIndexListIsNodeVisibleInOutRK22SceneCullingParametersPK9SceneNodePK4AABBR9IndexList
Zra:__ZN16GraphicsSettings8TransferI17RemapPPtrTransferEEvRT_
oUh:_ReadOnlyCollection_1_System_Collections_IList_Contains_m1327645028_gshared
Z$e:_X509BasicConstraintsExtension_Decode_m120598446
QZe:__ZNK44WebHeaderCollection_t1942268960_StaticFields20get_allowed_chars_16Ev
Aqf:_Delegate_Remove_m334097152
uri:__Z49RuntimeInvoker_Boolean_t97287965_Rect_t2360479859PFvvEPK10MethodInfoPvPS4_
G_k:__ZL63SpriteBone_t303320096_CustomAttributesCacheGenerator_m_ParentIdP21CustomAttributesCache
ZVi:_CustomEventData_t317522481_marshal_pinvoke
Omi:__Z51RuntimeInvoker_UInt32_t2560061978_Int16_t2552820387PFvvEPK10MethodInfoPvPS4_
Bub:__ZNK13GfxDeviceGLES12GetWireframeEv
uHg:__Z68InternalEnumerator_1_System_Collections_IEnumerator_Reset_m872612294P31InternalEnumerator_1_t746136913PK10MethodInfo
yLi:_DelegatePInvokeWrapper_Action_t1264377477
UP:__ZN24ProfilerCallbacksHandlerC2E10MemLabelId
mhe:__ZNK25X509Extension_t317339365218get_extnCritical_1Ev
v7e:__ZNK25GroupCollection_t697704849get_gap_1Ev
lkk:__Z25Il2CppCodeGenWriteBarrierI24MessageEvent_t1491597365EvPPT_S2_
W4a:__ZN9GfxDevice18AllocRenderSurfaceEb
Zpe:_Char__cctor_m2787437263
f0c:__ZNK25MethodBuilder_t280731675316get_parameters_2Ev
Eia:__ZN10TagManager8TransferI19StreamedBinaryWriteEEvRT_
aEf:_NumberFormatInfo_get_PercentPositivePattern_m1800841633
Ukk:__ZN28MessageEventArgs_t117057578410set_data_1EP22ByteU5BU5D_t4116647657
cjj:__ZN6il2cpp6icalls8mscorlib6SystemL16CheckMemberMatchI12PropertyInfoNS_5utils10functional6FilterINSt3__212basic_stringIcNS8_11char_traitsIcEENS8_9allocatorIcEEEENS5_13VmStringUtils23CaseInsensitiveComparerEEEEEbPKT_PK11Il2CppClassSN_iRKT0_
Qae:_GenericTypeParameterBuilder_MakeGenericType_m3048165991
CNa:__ZThn356_N14SpriteRenderer14OnChangeSpriteEv
Shl:_glUniform1uiv__wrapper
tzc:__ZNK14b2PolygonShape5CloneEP16b2BlockAllocator
BEf:__ZNK22RegionInfo_t109027022617get_englishName_6Ev
NV:__ZN17PersistentManager26GetStreamNameSpaceInternalEi
fJg:__ZNK32InternalEnumerator_1_t101283622211get_array_0Ev
dB:__ZN4FMOD6System11createSoundEPKcjP22FMOD_CREATESOUNDEXINFOPPNS_5SoundE
HKg:_InternalEnumerator_1_System_Collections_IEnumerator_Reset_m1451164462_AdjustorThunk
fNc:__ZN13SpeedTreeWind20AdvanceWithoutUpdateEd
kak:__ZN46AttributeHelperEngine_t2735742303_StaticFields28set__requireComponentArray_2EP34RequireComponentU5BU5D_t2245623724
ktk:__ZN32Vector3_t3722313464_StaticFields14set_upVector_5E19Vector3_t3722313464
q7h:__ZNK37X509CertificateEnumerator_t351593469816get_enumerator_0Ev
fmf:_DateTime_System_IConvertible_ToDecimal_m1044850612
wNh:_List_1_IndexOf_m2206067159_gshared
pEj:__ZN6il2cpp2vm9Exception11FromNameMsgEPK11Il2CppImagePKcS6_RKNS_5utils10StringViewIDsEEi
OR:__ZN9ShaderLab19CommonPropertyNames13StaticCleanupEPv
Hhj:__ZN6il2cpp5utils10functional6FilterINSt3__212basic_stringIcNS3_11char_traitsIcEENS3_9allocatorIcEEEENS0_13VmStringUtils23CaseInsensitiveComparerEED2Ev
Zed:_Module_IsResource_m553227372
aV:__Z31scripting_method_get_returntype18ScriptingMethodPtr
wQe:__ZNK36ReceiveRecordAsyncResult_t368090765722get__resultingBuffer_5Ev
bxd:__Z25Il2CppCodeGenWriteBarrierI30LogicalCallContext_t3342013719EvPPT_S2_
mKa:__ZN15SerializeTraitsI12LightmapDataE8TransferI24GenerateTypeTreeTransferEEvRS0_RT_
Ocg:_SecurityElement_AddAttribute_m311510562
cjl:_glStencilOpSeparate__wrapper
oHa:__ZN7Texture13SetAnisoLimitENS_20AnisotropicFilteringE
nYc:__ZN20UnityWebRequestProtoI24UnityWebRequestTransport16AtomicRefCounter14RedirectHelper14ResponseHelper15DownloadHandler13UploadHandler18CertificateHandler12HeaderHelper14AsyncOperationED2Ev
tnk:_PropertyName_Equals_m3623975820
$og:__ZN18VirtActionInvoker2IP12Il2CppObjectiE6InvokeEjS1_S1_i
YPg:__Z28Enumerator__ctor_m1320896511P22Enumerator_t1626871233P24Dictionary_2_t1444694249PK10MethodInfo
Ane:_Attribute_IsDefined_m4069052474
df:_emscripten_glCompressedTexSubImage2D
xAb:__ZN13GfxDeviceGLES22MemoryBarrierImmediateEyN2gl17MemoryBarrierTypeE
ZHj:__ZN6il2cpp6icalls8mscorlib6System4Type18internal_from_nameEP12Il2CppStringbb
O4:__ZN6prcoreL26RemapGenericFloatToIntegerI18TexFormatARGBFloat17TexFormatARGB8888EEvPKNS_9InnerInfoE
YCc:__ZN14qsort_internal5QSortIPN35b2SynchronizeContinuousFixturesTask14b2DeferredMoveEiPFbRKS2_S5_EEEvT_S8_T0_T1_
Ofc:__Z46GetShaderModelNumericValueFromRequirementsMask18ShaderRequirements
xBe:__ZNK22MD2Managed_t137710153511get_state_4Ev
m6i:__ZNK15dense_hashtableINSt3__24pairIK10KeyWrapperIP9FieldInfoEiEES5_N6il2cpp5utils11PointerHashIS3_EEN14dense_hash_mapIS5_iSB_NS5_14EqualsComparerINS0_8equal_toIS4_EEEENS0_9allocatorIS7_EEE9SelectKeyESG_SI_E5beginEv
JXg:_Dictionary_2_Resize_m3287623642_gshared
Z_j:_GC_write
gwk:__ZL69RuntimeArray_CustomAttributesCacheGenerator_Array_SetValue_m394135409P21CustomAttributesCache
yMd:_SoapTypeAttribute_SetReflectionObject_m1691526413
T6e:__ZNK24FactoryCache_t232711888714get_mru_list_2Ev
aQj:__ZN24dense_hashtable_iteratorINSt3__24pairIK10KeyWrapperIP12Il2CppObjectEN6il2cpp2gc9CachedCCWEEES5_NS7_5utils11PointerHashIS3_EEN14dense_hash_mapIS5_S9_SD_NS5_14EqualsComparerINS0_8equal_toIS4_EEEENS0_9allocatorISA_EEE9SelectKeyESI_SK_EC2EPK15dense_hashtableISA_S5_SD_SM_SI_SK_EPSA_SS_b
Fq:__ZN17ConstraintManagerD2Ev
$4f:_HMACSHA512_set_ProduceLegacyHmacValues_m3961135292
BXi:__ZL24UnresolvedVirtualCall_43P12Il2CppObjectS0_PK10MethodInfo
z0d:_MulticastDelegate_GetObjectData_m3957553424
SPi:_StandardEventPayload_set_name_m549984672
FEd:_ConstructionCallDictionary__ctor_m2541174073
Lkh:_Array_InternalArray__set_Item_TisMark_t3471605523_m1299772331_gshared
asc:__Z29Transfer_Blittable_ArrayFieldI8JSONRead10ColorRGBAfEvRT_R9ArrayInfoRK23StaticTransferFieldInfo
Gag:__ZNK30SymmetricAlgorithm_t425422308715get_ModeValue_7Ev
eAf:_CompareInfo_get_LCID_m2851766819
zpd:__ZNK22SafeHandle_t327338895112get_handle_0Ev
uga:__ZN5Unity9Component23VirtualRedirectTransferER18StreamedBinaryRead
EOf:__ZN24StreamReader_t400993589914set_foundCR_13Eb
vOc:_unitytls_key_parse_der
I3d:__ZN49AssemblyInformationalVersionAttribute_t303776499110set_name_0EP8String_t
Tea:__ZN9Scripting5Unity11Collections8LowLevel6Unsafe46NativeContainerIsAtomicWriteOnlyAttributeProxy12CleanupProxyEv
o7h:_X509Certificate_get_DSA_m565099499
RYe:__Z25Il2CppCodeGenWriteBarrierI23IPv6Address_t2709566769EvPPT_S2_
EBd:__ZN23CADArgHolder_t58304931411set_index_0Ei
Sdd:__Z5UnBoxP12Il2CppObject
Ymh:_StringBuilder_Remove_m940064945
tRa:__ZN14SafeBinaryRead21TransferSTLStyleArrayI13dynamic_arrayI16SplashScreenLogoLj0EEEEvRT_17TransferMetaFlags
l8a:__ZN13dynamic_arrayIN16GeometryJobTasks15GeometryJobTaskELj0EE18resize_initializedEjRKS1_12ResizePolicy
Djd:__Z25Il2CppCodeGenWriteBarrierI15RSA_t2385438082EvPPT_S2_
k2f:_DESCryptoServiceProvider_GenerateIV_m683687014
aIf:_BinaryWriter__ctor_m2439641268
Pda:__ZN9Scripting11UnityEngine14BoundsIntProxy12CleanupProxyEv
taa:__ZN9Scripting11UnityEngine15RectOffsetProxy12CleanupProxyEv
W_c:__ZN9Scripting11UnityEngine12Experimental2XR18TrackingStateProxy12CleanupProxyEv
THa:__ZL21SetAnisoLimitEnumImplN7Texture20AnisotropicFilteringEb
Mib:__Z18Transfer_BlittableI19StreamedBinaryWriteLb1EtEvRK29SerializationCommandArgumentsR31RuntimeSerializationCommandInfo
uwh:_Type_GetTypeHandle_m1526957577
s7c:__ZN31OpCodes_t126150456_StaticFields15set_Ldind_R4_77E17OpCode_t123070264
Pff:__ZNK33DateTime_t3738529785_StaticFields14get_MaxValue_2Ev
uJg:_InternalEnumerator_1_System_Collections_IEnumerator_Reset_m3217592429_gshared
nMh:_List_1_System_Collections_IList_get_Item_m995551621_gshared
PBd:__ZN21CADObjRef_t321912773012set_objref_0EP18ObjRef_t2141158884
pPk:__ZL63X509ChainStatusFlags_t1026973125_CustomAttributesCacheGeneratorP21CustomAttributesCache
PKg:__Z75InternalEnumerator_1_System_Collections_IEnumerator_get_Current_m2032951142P32InternalEnumerator_1_t4136673857PK10MethodInfo
D9h:__ZN20X509Chain_t86378360011set_certs_1EP37X509CertificateCollection_t1542168550
Phi:__Z49RuntimeInvoker_Void_t1185182177_Int16_t2552820387PFvvEPK10MethodInfoPvPS4_
QPh:__ZNK22Enumerator_t35882777609get_idx_1Ev
D8f:__ZN23SHA384Managed_t7415857516set_byteCount2_7Ey
fRc:__ZN11UnityEngine9Analytics18ConnectSessionInfo12ToJsonStringERN4core12basic_stringIcNS2_20StringStorageDefaultIcEEEE
gjj:__ZN6il2cpp6icalls8mscorlib6System8MonoType16InternalGetEventEP20Il2CppReflectionTypeP12Il2CppStringi
dgg:__ZNK40SecurityManager_t3383402582_StaticFields17get__lockObject_0Ev
oKi:_UriScheme_t722425697_marshal_pinvoke_back
yVj:__ZN6il2cpp2osL23CleanupThreadIfCanceledEPv
tTi:__ZNK46AudioExtensionManager_t3220897493_StaticFields21get_m_NextStopIndex_4Ev
xZj:__ZN6il2cpp6icalls8mscorlib6System9Threading10WaitHandle16WaitAny_internalEP11Il2CppArrayib
KJb:__ZN13BatchRenderer15ApplyShaderPassER17ShaderPassContextPK18SharedMaterialDataP6ShaderPN9ShaderLab4PassEi13BatchingFlagsbbPKNS7_10GrabPassesEPK22DeviceRenderStateBlock
_0f:__ZN37CryptoConfig_t4201145714_StaticFields9set_oid_2EP21Hashtable_t1853889766
gOa:__ZN19ShaderPropertySheet11ComputeHashEv
L8i:__ZN30dense_hashtable_const_iteratorI10KeyWrapperIPK19Il2CppGenericMethodES4_N6il2cpp8metadata23Il2CppGenericMethodHashEN14dense_hash_setIS4_S7_NS4_14EqualsComparerINS6_26Il2CppGenericMethodCompareEEENSt3__29allocatorIS4_EEE8IdentityESB_SE_EppEv
Zzc:__ZN12b2EPCollider24ComputePolygonSeparationEv
EI:__ZN11UnityEngine15CloudWebService20WebRequestRestClient6IsDoneEv
MVk:__ZL61UpdateAllRenderers_t4055013667_CustomAttributesCacheGeneratorP21CustomAttributesCache
yDi:_Group__ctor_m2980794822
Vv:__ZN9Scripting11UnityEngine5Audio24AudioPlayableOutputProxy9InitProxyEv
mYh:_CachedInvokableCall_1_Invoke_m502907382_gshared
TPk:__ZL79Enumerable_t538148348_CustomAttributesCacheGenerator_Enumerable_Any_m1084009618P21CustomAttributesCache
ql:_llvm_fabs_f32
Fwd:__ZNK29LocalDataStoreSlot_t74084196810get_slot_0Ev
hI:__ZN11UnityEngine15CloudWebService16SessionContainer16GetJsonDataBlockEjRKN4core12basic_stringIcNS2_20StringStorageDefaultIcEEEERS6_PjSA_
P6g:_ASN1_Decode_m1695284166
raa:__ZN9Scripting11UnityEngine14TransformProxy12CleanupProxyEv
q3b:__ZN9ShaderLab20SerializedSubProgram14AddStructParamEPKciii
zyj:__ZN10KeyWrapperIPK10Il2CppTypeEC2ENS3_11KeyTypeEnumE
ltf:_Enum_ToString_m3248653065
bFf:__ZNK19SortKey_t39553367329get_key_2Ev
K6b:__Z27RegisterAllowNameConversionR20AllowNameConversionsPKcS2_S2_
gU:__ZN14SafeBinaryReadD2Ev
upj:__ZN15dense_hashtableINSt3__24pairIK10KeyWrapperINS1_IPK14Il2CppAssemblyP11Il2CppClassEEEjEES9_17ReflectionMapHashIS8_EN14dense_hash_mapIS9_jSD_NS9_14EqualsComparerINS0_8equal_toIS8_EEEENS0_9allocatorISB_EEE9SelectKeyESI_SK_E21fill_range_with_emptyEPSB_SO_
vze:_SequentialSearchPrimeGeneratorBase_IsPrimeAcceptable_m1127740833
j6e:_Capture__ctor_m3103117740
O4a:__ZNK9GfxDevice22GetActiveRenderTargetsERA8_12ObjectHandleI17RenderSurface_TagP17RenderSurfaceBaseERS4_
mzh:_UInt32_CompareTo_m2218823230
VBf:_DateTimeFormatInfo_GetEraName_m3151483707
_1i:__ZN6il2cpp2vmL17SetupEventsLockedEP11Il2CppClassRKNS_2os12FastAutoLockE
aIj:__ZN6il2cpp6icalls8mscorlib6System4Type15MakeGenericTypeEP20Il2CppReflectionTypeP11Il2CppArray
cd:_SDL_PauseAudio
wQi:__Z31List_1_GetEnumerator_m466435735P17List_1_t235857739PK10MethodInfo
Nee:__ZN26X509Certificate_t48924302428set_m_signaturealgoparams_13EP22ByteU5BU5D_t4116647657
fnj:_il2cpp_class_from_type
jsa:__ZN4PPtrI6ShaderE8TransferI19StreamedBinaryWriteEEvRT_
BWi:_RemoteSettings_RemoteSettingsUpdated_m1182006011
T_e:__ZNK15Oid_t355212026012get__value_0Ev
y$i:_NativeHeaderAttribute__ctor_m457462113
uLk:__ZL77Convert_t2465617642_CustomAttributesCacheGenerator_Convert_ToSByte_m516918950P21CustomAttributesCache
wYa:__ZN2UI13RectTransform8TransferI18StreamedBinaryReadEEvRT_
NR:__ZN9ShaderLab19CommonPropertyNames16StaticInitializeEPv
SWa:__ZN13MemoryManager31DisallowAllocationsOnThisThreadEv
Srj:__ZN14dense_hash_mapI10KeyWrapperINSt3__24pairIPK10MethodInfoP11Il2CppClassEEEj17ReflectionMapHashIS8_ENS9_14EqualsComparerINS1_8equal_toIS8_EEEENS1_9allocatorINS2_IKS9_jEEEEE4findERSH_
zle:_Array_GetLongLength_m561139708
VLj:__ZN6il2cpp2vmL14FindNestedTypeEP11Il2CppClassPKc
PQc:__ZN22BaseUnityConnectClient13ResumeSessionEv
tJa:__ZN14Texture2DArray23VirtualRedirectTransferER14SafeBinaryRead
jZd:_MissingMemberException__ctor_m1220732369
vMb:__ZNK6Camera21CalculateCanDoShadowsEv
Ctf:__ZNK29Enum_t4135868527_StaticFields16get_split_char_0Ev
p9j:_Application_InvokeOnBeforeRender_m2875673833
FUj:__ZN6il2cpp2os6Thread12SetStackSizeEj
qmh:_Array_InternalArray__get_Item_TisRuntimeObject_m3347010206_gshared
Hng:__ZNK44EncoderReplacementFallbackBuffer_t186318716223get_fallback_assigned_2Ev
dcd:_TypeBuilder_IsSubclassOf_m3458909121
j9c:__ZN31OpCodes_t126150456_StaticFields15set_Conv_U1_176E17OpCode_t123070264
eJc:__ZN14EdgeCollider2DD0Ev
c1e:__ZN40X509Certificate2_t714049126_StaticFields17set_commonName_15EP22ByteU5BU5D_t4116647657
Toj:__ZNK10KeyWrapperINSt3__24pairIPK14Il2CppAssemblyP11Il2CppClassEEE8isNormalEv
Oge:_X509Certificate__cctor_m198658613
Cqi:__Z68RuntimeInvoker_Ray_t3785851493_Vector3_t3722313464_Int32_t2950945753PFvvEPK10MethodInfoPvPS4_
JSc:__ZN11UnityEngine9Analytics13ConnectConfig13SessionConfig8TransferI8JSONReadEEvRT_
omk:_PlayableHandle_Equals_m1666612586_AdjustorThunk
D4b:__Z18RegisterUnityClassI7TextureEvPKc
ONd:__ZN46RemotingConfiguration_t4113740665_StaticFields30set_clientProviderTemplates_11EP21Hashtable_t1853889766
s4:__ZN6prcoreL27StretchGenericFloatBilinearI15TexFormatRFloatEEvPKNS_9InnerInfoE
L_g:__ZN22TableRange_t333286789216set_IndexStart_3Ei
IGd:_ErrorMessage_get_MethodSignature_m3912515700
Myd:_Identity_get_EnvoySink_m1643114474
XOk:__ZL139ServicePointManager_t170559685_CustomAttributesCacheGenerator_ServicePointManager_t170559685____CheckCertificateRevocationList_PropertyInfoP21CustomAttributesCache
brk:__ZN41FormerlySerializedAsAttribute_t285908311415set_m_oldName_0EP8String_t
LIj:__ZN14dense_hash_mapI10KeyWrapperIP14Il2CppIUnknownEjN6il2cpp5utils11PointerHashIS1_EENS3_14EqualsComparerINSt3__28equal_toIS2_EEEENS9_9allocatorINS9_4pairIKS3_jEEEEE13set_empty_keyERSF_
Jy:__ZNK11AudioSource19GetFilterComponentsERNSt3__26vectorIPN4FMOD3DSPENS0_9allocatorIS4_EEEEb
_zi:__ZNK16Mark_t347160552311get_Start_0Ev
Mnd:__ZN43CompilationRelaxationsAttribute_t172144211111set_relax_0Ei
wTk:__ZL136GraphicsFormatUtility_t3491748452_CustomAttributesCacheGenerator_GraphicsFormatUtility_GetGraphicsFormat_Native_TextureFormat_m433736368P21CustomAttributesCache
C7c:__ZN31OpCodes_t126150456_StaticFields10set_Add_87E17OpCode_t123070264
V9h:__ZN22X509Stores_t137393623716set__storePath_0EP8String_t
SEa:__Z14PadImageBorderR14ImageReferenceii
Rsj:__ZN15dense_hashtableINSt3__24pairIK10KeyWrapperINS1_IPK10MethodInfoP11Il2CppClassEEEjEES9_17ReflectionMapHashIS8_EN14dense_hash_mapIS9_jSD_NS9_14EqualsComparerINS0_8equal_toIS8_EEEENS0_9allocatorISB_EEE9SelectKeyESI_SK_E4findERSA_
Vdj:__ZN6il2cpp2vm13MetadataCache28GetFieldDefaultValueForFieldEPK9FieldInfo
RNf:__ZN38SearchPattern_t3793128359_StaticFields19set_WildcardChars_0EP22CharU5BU5D_t3528271667
ybh:__ZNK22RSAManaged_t175709381917get_keyBlinding_3Ev
JLh:_List_1_GetEnumerator_m2838255531_gshared
MFe:__ZN16VirtFuncInvoker2IbP26X509Certificate_t713131622P22Int32U5BU5D_t385246372E6InvokeEjP12Il2CppObjectS1_S3_
pXg:__ZNK23Dictionary_2_t13254515211get_table_4Ev
_w:__ZN12AudioManager39HandlePendingAudioConfigurationCallbackEv
QGe:__ZNK23CipherSuite_t341474457510get_name_2Ev
rYf:__ZN24ObjectReader_t194095739214set__context_1E28StreamingContext_t3711869237
W8e:__ZN25RepeatContext_t121486307611set_start_0Ei
yg:_emscripten_glIsFramebuffer
Ebh:_RSAManaged_EncryptValue_m799827583
GSb:__ZN12_GLOBAL__N_16qAtan2Eff
Bci:__Z61RuntimeInvoker_UInt32_t2560061978_RuntimeObject_RuntimeObjectPFvvEPK10MethodInfoPvPS4_
vce:__ZN35StrongName_t4093849377_StaticFields16set_lockObject_4EP12Il2CppObject
rc:_JS_Sound_SetLoopPoints
g5j:__ZN6il2cpp2vm26MetadataAllocGenericMethodEv
yeh:_Array_InternalArray__ICollection_Remove_TisUInt16_t2177724958_m1766181761_gshared
KCb:__ZN19ConstantBuffersGLES12RecordRenderEv
nFd:__ZN21MethodCall_t86107814022set__methodSignature_4EP22TypeU5BU5D_t3940880105
foc:__ZN9JSONWrite8TransferI10RectOffsetEEvRT_PKc17TransferMetaFlags
AEa:__ZN4crnd12symbol_codec11decode_bitsEj
Kti:__Z59RuntimeInvoker_Boolean_t97287965_KeyValuePair_2_t3842366416PFvvEPK10MethodInfoPvPS4_
MCe:_EncryptedPrivateKeyInfo__ctor_m3415744930
tAc:__ZN15b2CircleContact8EvaluateEP10b2ManifoldRK11b2TransformS4_
B_e:_AsnEncodedData__ctor_m3792312694
ILi:_AesManaged_GenerateIV_m1368817386
Tac:__ZN21FixedBehaviourManagerD0Ev
S8d:__ZNK25DynamicMethod_t253777957012get_module_6Ev
lw:__ZN4FMOD6System12createReverbEPPNS_6ReverbE
Tjc:__Z51Register_UnityEngine_AnimationCurve_Internal_Createv
lTk:__ZL90Material_t340375123_CustomAttributesCacheGenerator_Material_CreateWithMaterial_m2373088899P21CustomAttributesCache
W$h:__ZN25SslStreamBase_t166741340717set_inputBuffer_4EP22MemoryStream_t94973147
mah:_PKCS1_RSASP1_m3912327535
t0f:_CodeAccessPermission_GetHashCode_m880096813
bSi:__ZNK46AudioSpatializerExtensionDefinition_t59789618616get_definition_1Ev
UWa:__Z16MarkDependenciesR27GarbageCollectorThreadStatej
aRj:__ZN6il2cpp2osL21IsSpecialZeroSizeFileEP4stat
bkd:_TypeDelegator_GetEvent_m3148520673
NIi:__ZNK34UriParser_t3890150400_StaticFields11get_table_1Ev
KCd:_RemotingServices_DisposeIdentity_m2605848806
n3:__ZNK9Transform11GetPositionEv
xLf:_WriteDelegate_EndInvoke_m952736984
dFc:__ZNK29b2ClearContactIslandFlagsTask13GetRangeCountEv
ZFf:_GuidParser_Reset_m2640004655
rjb:__Z35Transfer_Blittable_FixedBufferFieldI19StreamedBinaryWritedEvRK29SerializationCommandArgumentsR31RuntimeSerializationCommandInfo
v5b:__ZN23SharedMeshRenderingData18UnloadVertexStreamEi
JHj:__ZN6il2cpp2vm8Liveness10StartWorldEPFvvE
bsi:__Z64RuntimeInvoker_Void_t1185182177_PlayableOutputHandle_t4208053793PFvvEPK10MethodInfoPvPS4_
qMg:__ZN16VirtFuncInvoker2IiP12Il2CppObjectS1_E6InvokeEjS1_S1_S1_
W7b:__ZN19RenderEventsContextC2Ei
WF:__Z6simd4fRKf
j_k:__ZL67SceneManager_t2787271929_CustomAttributesCacheGenerator_sceneLoadedP21CustomAttributesCache
iDf:_GregorianCalendar_GetEra_m2369958449
m$f:_RuntimeTypeHandle_GetObjectData_m1599302095_AdjustorThunk
Ff:_emscripten_glEnable
f_c:__GLOBAL__sub_I_Runtime_VR_PluginInterface_0_cpp
nzg:_InternalEnumerator_1_System_Collections_IEnumerator_get_Current_m2982675020_gshared
kia:__ZN10TagManager23VirtualRedirectTransferER14SafeBinaryRead
cig:_String_System_IConvertible_ToType_m3431692856
OBd:_CADObjRef__ctor_m2673939978
eM:__GLOBAL__sub_I_Runtime_Misc_0_cpp
RMd:_ObjRef_get_EnvoyInfo_m1782007847
T4h:__ZNK28ValidationResult_t383429873616get_error_code_1Ev
qPb:__Z15InitLightMeshesv
Kfd:_MonoCMethod_ToString_m3992577062
Qm:FUNCTION_TABLE_iifiii
Jmd:__ZN6il2cpp2vm3CCW11GetOrCreateEP12Il2CppObjectRK10Il2CppGuid
K6:__ZL50__ManagedRegistrationHelperFunction_CoroutineProxyPv
ink:__ZNK24PropertyName_t37498351898get_id_0Ev
Dlg:__ZN16VirtFuncInvoker3IbDsDsiE6InvokeEjP12Il2CppObjectDsDsi
JUi:_Array_InternalArray__get_Item_TisResourceCacheItem_t51292791_m1306056717_gshared
bRk:__ZL60StaticAccessorType_t186341701_CustomAttributesCacheGeneratorP21CustomAttributesCache
aO:__Z15CleanLogHandler7LogTypePKcz
p1d:_NumberFormatter_NumberToString_m2481532188
pTh:__ZN24Collection_1_t166750607514set_syncRoot_1EP12Il2CppObject
Hwh:_Type_GetMethod_m1512604930
Dxf:__ZN36CompareInfo_t1092934962_StaticFields25set_useManagedCollation_0Eb
EC:__ZN14AudioBehaviour15ThreadedCleanupEv
NCf:__ZNK30DateTimeFormatInfo_t240585370127get_allShortDatePatterns_32Ev
iob:__ZN6Camera17RemoveImageFilterERK11ImageFilter
R8a:__ZNSt3__218__insertion_sort_3IR25ValueParameterArraySorterPN20GpuProgramParameters14ValueParameterEEEvT0_S6_T_
JGc:__ZN10ClipperLib7Clipper27ProcessEdgesAtTopOfScanbeamEx
LOk:__ZL67EditorBrowsableAttribute_t1475454531_CustomAttributesCacheGeneratorP21CustomAttributesCache
Xve:_Comparer__cctor_m3311686689
ZOg:_Enumerator_VerifyCurrent_m93918543_gshared
EUi:_SampleFramesHandler__ctor_m3908528909
AWe:_HttpWebRequest_get_Address_m2672661563
lvh:_TimeZone__ctor_m1831364098
YZj:__ZN6il2cpp2vm13ManagedObject7GetIidsEPjPP10Il2CppGuid
oyg:_InternalEnumerator_1_get_Current_m3500427238_AdjustorThunk
L8c:__ZN31OpCodes_t126150456_StaticFields17set_Ldelem_R8_150E17OpCode_t123070264
HP:__Z27LogRepeatingStringWithFlagsRKN4core12basic_stringIcNS_20StringStorageDefaultIcEEEE15LogMessageFlagsi
Vzh:_UInt64_System_IConvertible_ToSingle_m925613075
ytf:_Enum_IsDefined_m1442314461
Prh:_Thread__cctor_m817723615
XRi:_AudioExtensionManager_RegisterBuiltinDefinitions_m2742744104
Tbi:__Z46RuntimeInvoker_SByte_t1669577662_RuntimeObjectPFvvEPK10MethodInfoPvPS4_
V_c:__ZN9Scripting11UnityEngine12Experimental2XR18TrackingStateProxy9InitProxyEv
Ire:__ZNK21ArrayList_t271887474412get__items_2Ev
Qmg:_DecoderReplacementFallbackBuffer_Fallback_m1261056214
e7h:__ZN31PKCS12_t4101533061_StaticFields29set_U3CU3Ef__switchU24map8_15EP24Dictionary_2_t2736202052
bIb:__ZNSt3__227__insertion_sort_incompleteIRPFbP10GUIElementS2_EPS2_EEbT0_S7_T_
t$d:_Binder_get_DefaultBinder_m950908649
juf:_StreamReader__ctor_m1616861391
rQc:__ZN18UnityConnectClient33OnPlayerSessionStateChangedStaticEPS_jyy
XBc:__ZN19ProcessContactsDataD2Ev
GMe:__Z25Il2CppCodeGenWriteBarrierI23CipherSuite_t3414744575EvPPT_S2_
OCh:_RSA_ToXmlString_m2922661427
oJ:__ZNK11UnityEngine15CloudWebService23WebRequestUploadHandler11GetProgressEv
ROf:__ZN24StreamWriter_t126637890420set_internalStream_3EP18Stream_t1273022909
ayb:__ZN7ApiGLES4LoadE16GfxDeviceLevelGL
uEa:__ZN4crnd12crn_unpacker22decode_color_endpointsEv
NLi:__ZNK24AesTransform_t29571236119get_Nk_13Ev
MNj:__ZN15dense_hashtableI10KeyWrapperIP18Il2CppGenericClassES3_N6il2cpp8metadata22Il2CppGenericClassHashEN14dense_hash_setIS3_S6_NS3_14EqualsComparerINS5_25Il2CppGenericClassCompareEEENSt3__29allocatorIS3_EEE8IdentityESA_SD_E15insert_noresizeERKS3_
C9b:__ZZL31RegisterOtherRendererPropertiesR22GenericPropertyBindingEN30Wrapper_RendererReceiveShadows13GetFloatValueEPv
yJe:__ZN28HandshakeMessage_t369658316817set_contentType_7Eh
ddh:_Array_InternalArray__ICollection_Contains_TisSlot_t384495010_m688761886_gshared
aGa:__ZN17SharedTextureDataC2E10MemLabelIdii13TextureFormatjiibb
arb:__ZN8Material11SetPassFastEPN9ShaderLab4PassER17ShaderPassContextP6Shaderib
hmf:_DateTime_System_IConvertible_ToDouble_m2116720007
j1b:__ZN15SerializeTraitsINSt3__24pairIN4core12basic_stringIcNS2_20StringStorageDefaultIcEEEE4PPtrI7TextureEEEE8TransferI24GenerateTypeTreeTransferEEvRSA_RT_
pda:__ZN9Scripting11UnityEngine17CullingGroupProxy12CleanupProxyEv
ogi:__Z114RuntimeInvoker_Int32_t2950945753_RuntimeObject_RuntimeObject_Int32_t2950945753_Int32_t2950945753_Int32_t2950945753PFvvEPK10MethodInfoPvPS4_
g0f:_SByte_Parse_m2899090751
Bkb:__Z18Transfer_BlittableI18StreamedBinaryReadLb0EN4math12int3_storageEEvRK29SerializationCommandArgumentsR31RuntimeSerializationCommandInfo
oee:_X509Certificate_PEM_m1177570576
aHk:__ZL46DSA_t2386879874_CustomAttributesCacheGeneratorP21CustomAttributesCache
zqg:_ArrayReadOnlyList_1_GetEnumerator_m1835926958_gshared
FVd:_NumberFormatter_AddOneToDecHex_m1662045257
q2b:__ZN19StreamedBinaryWrite21TransferSTLStyleArrayINSt3__26vectorIN9ShaderLab20SerializedSubProgram12UAVParameterENS1_9allocatorIS5_EEEEEEvRT_17TransferMetaFlags
TY:__ZN20GlobalCachingManager7DisposeEv
eJb:__Z12SetupLODFadeR9GfxDeviceR17ShaderPassContextf
Xoc:__ZN9JSONWrite8TransferI13dynamic_arrayI4AABBLj0EEEEvRT_PKc17TransferMetaFlags
rxk:__ZL69Type_t_CustomAttributesCacheGenerator_Type_GetConstructors_m576905011P21CustomAttributesCache
hgf:__ZNK33DateTime_t3738529785_StaticFields20get_daysmonthleap_12Ev
dPb:__ZL24CollectForwardObjectsJobP27CollectForwardObjectsHeader
JFf:__ZN6Guid_t8set__c_2Es
Gv:__ZL58__ManagedRegistrationHelperFunction_AudioClipPlayableProxyPv
Xqc:__ZN8JSONRead21TransferSTLStyleArrayI13dynamic_arrayIdLj0EEEEvRT_17TransferMetaFlags
xRb:__Z13IsNodeVisibleRK9SceneNodeRK4AABBRK22SceneCullingParameters
Lgh:_Array_InternalArray__IndexOf_TisLabelFixup_t858502054_m1491765395_gshared
Bfi:__Z44RuntimeInvoker_RuntimeTypeHandle_t3027515415PFvvEPK10MethodInfoPvPS4_
h4h:_TlsServerSettings_set_CertificateRequest_m1039729760
fdd:__ZN30GenericInterfaceActionInvoker1IP20Delegate_t1188392813E6InvokeEPK10MethodInfoP12Il2CppObjectS1_
U2g:_SortKeyBuffer_AppendCJKExtension_m2591091991
a$k:__ZL120AnalyticsSessionInfo_t2322308579_CustomAttributesCacheGenerator_AnalyticsSessionInfo_CallSessionStateChanged_m1270932408P21CustomAttributesCache
Eai:__ZN19X509Crl_t114876738813set_entries_4EP21ArrayList_t2718874744
Foh:_UTF8Encoding_GetByteCount_m4153686982
R1i:__ZN15dense_hashtableINSt3__24pairIK10KeyWrapperIPK22Il2CppGenericParameterEP11Il2CppClassEES6_N6il2cpp5utils11PointerHashIS4_EEN14dense_hash_mapIS6_S9_SE_NS6_14EqualsComparerINS0_8equal_toIS5_EEEENS0_9allocatorISA_EEE9SelectKeyESJ_SL_E3endEv
s3k:__ZN27ContactFilter2D_t380520344115set_layerMask_6E21LayerMask_t3493934918
Ofl:_emscripten_glStencilMask__wrapper
bei:__Z49RuntimeInvoker_Void_t1185182177_Double_t594665363PFvvEPK10MethodInfoPvPS4_
x8i:__ZN15dense_hashtableI10KeyWrapperIPK19Il2CppGenericMethodES4_N6il2cpp8metadata23Il2CppGenericMethodHashEN14dense_hash_setIS4_S7_NS4_14EqualsComparerINS6_26Il2CppGenericMethodCompareEEENSt3__29allocatorIS4_EEE8IdentityESB_SE_EC2ERKSH_j
SGe:__ZNK23CipherSuite_t341474457518get_isExportable_6Ev
cUj:__GLOBAL__sub_I_Thread_cpp_11490
C4i:__ZNK15dense_hashtableINSt3__24pairIK10KeyWrapperIPK11Il2CppClassEPKcEES6_N6il2cpp5utils11PointerHashIS3_EEN14dense_hash_mapIS6_S9_SE_NS6_14EqualsComparerINS0_8equal_toIS5_EEEENS0_9allocatorISA_EEE9SelectKeyESJ_SL_E8min_sizeEjj
Yeh:_Array_InternalArray__IEnumerable_GetEnumerator_TisByte_t1134296376_m1979205379_gshared
bid:_MonoProperty_CreateGetterDelegate_m2478402519
Qzg:_InternalEnumerator_1_Dispose_m3577625655_gshared
AOb:__Z17PrepareShadowMapsRK11CullResultsRK11ActiveLightRK10MinMaxAABB
M6h:_DeriveBytes_DeriveIV_m973925711
ZSd:_Int32_System_IConvertible_ToSByte_m3133688512
i0k:__ZL117AudioSource_t3935305588_CustomAttributesCacheGenerator_AudioSource_INTERNAL_CALL_ClearExtensionProperties_m2159298662P21CustomAttributesCache
eUi:_AudioSampleProvider_get_id_m2692334523
H$b:__ZNSt3__26vectorIN9ShaderLab20SerializedSubProgram15VectorParameterENS_9allocatorIS3_EEEC2ERKS6_
$Ob:__ZN9ShaderLab10GrabPassesD2Ev
Lyj:__ZN10KeyWrapperINSt3__24pairIPK10MethodInfoP11Il2CppClassEEEC2ENS8_11KeyTypeEnumE
EJa:__ZN14Texture2DArray13UploadTextureEv
$0g:__ZN26SimpleCollator_t287783472928get_address_of_cjkLv1Table_5Ev
C7h:_DeriveBytes_DeriveMAC_m2121691743
xT:__ZN18AwakeFromLoadQueue25RegisterObjectInstanceIDsEv
xaa:__ZN9Scripting11UnityEngine9RectProxy12CleanupProxyEv
Us:__ZN9Scripting11UnityEngine10Animations21LookAtConstraintProxy12CleanupProxyEv
xck:_Debug__cctor_m1523394265
QDg:__ZNK32InternalEnumerator_1_t37800294199get_idx_1Ev
S1c:__Z25Il2CppCodeGenWriteBarrierI12MethodInfo_tEvPPT_S2_
_Cj:__ZN10KeyWrapperINSt3__24pairIP11Il2CppClassjEEEC2ERKS4_
Rgi:__Z77RuntimeInvoker_Void_t1185182177_RuntimeObject_SByte_t1669577662_RuntimeObjectPFvvEPK10MethodInfoPvPS4_
Wji:__Z97RuntimeInvoker_RuntimeObject_RuntimeObject_RuntimeObject_RuntimeObject_ObjectU5BU5DU26_t712384779PFvvEPK10MethodInfoPvPS4_
BLj:__ZN10KeyWrapperINSt3__24pairIPKcS3_EEEC2ENS5_11KeyTypeEnumE
nwc:__ZN11b2RopeJoint24SolveVelocityConstraintsERK12b2SolverData
_ck:__ZNK24IntPtrU5BU5D_t401336605614GetAtUncheckedEj
SQd:_BinaryCommon__cctor_m2978407547
J2f:__ZNK24DESTransform_t408890549915get_byteBuff_17Ev
kqe:_Char_System_IConvertible_ToByte_m2347554595
dNb:__Z19GetReflectionSampleRK23ReflectionProbesContextRK22ActiveReflectionProbesRK27PerObjectLightCullingOutputRK10RenderNodejP16ReflectionSample
YYi:__ZL25UnresolvedVirtualCall_120P12Il2CppObjectssiPK10MethodInfo
tyk:__ZL47ASN1_t2114160832_CustomAttributesCacheGeneratorP21CustomAttributesCache
uGj:__ZN6il2cpp6icalls8mscorlib6System2IO6MonoIO20GetFileSystemEntriesEP12Il2CppStringS6_iiPi
Uok:__ZN23InterfaceActionInvoker1IP25RectTransform_t3704657025E6InvokeEjP11Il2CppClassP12Il2CppObjectS1_
tBf:__ZNK43DateTimeFormatInfo_t2405853701_StaticFields18get_MSG_READONLY_1Ev
tyh:_UInt16_TryParse_m4139137016
$ic:__Z41MonoBehaviour_Set_Custom_PropUseGUILayoutP12Il2CppObjecth
lUj:__ZN6il2cpp5utils13dynamic_arrayIPNS_2os6ThreadELj4EE9push_backEv
xgl:_glGenRenderbuffers__wrapper
lch:__ZNK30SymmetricTransform_t380259184218get_FeedBackIter_8Ev
Lng:_Encoding__ctor_m2997749867
lik:_ManagedStreamHelpers_ManagedStreamSeek_m3158782053
_Pi:__Z28Dictionary_2_Add_m2942821800P24Dictionary_2_t2865362463P8String_tP12Il2CppObjectPK10MethodInfo
UGi:_ExpressionAssertion_Compile_m2166597834
CEe:__ZNK25RSAParameters_t17284066137get_P_0Ev
chg:_Single_System_IConvertible_ToSByte_m1208276900_AdjustorThunk
pZj:__ZN6il2cpp6icalls8mscorlib6System7Convert24InternalFromBase64StringEP12Il2CppStringb
iJc:__ZNK14EdgeCollider2D22GetTypeVirtualInternalEv
M_f:_RuntimeFieldHandle_GetObjectData_m95767031_AdjustorThunk
wEk:__ZL58ChannelServices_t3942013484_CustomAttributesCacheGeneratorP21CustomAttributesCache
lLj:__ZN30dense_hashtable_const_iteratorINSt3__24pairIK10KeyWrapperINS1_IPKcS4_EEEiEES6_24NamespaceAndNamePairHashN14dense_hash_mapIS6_iS9_NS6_14EqualsComparerI26NamespaceAndNamePairEqualsEENS0_9allocatorIS8_EEE9SelectKeyESD_SF_EppEv
hPf:__ZN24StreamWriter_t126637890421set_DisposedAlready_9Eb
nvj:__ZNK24dense_hashtable_iteratorINSt3__24pairIK10KeyWrapperINS1_IPK9EventInfoP11Il2CppClassEEEjEES9_17ReflectionMapHashIS8_EN14dense_hash_mapIS9_jSD_NS9_14EqualsComparerINS0_8equal_toIS8_EEEENS0_9allocatorISB_EEE9SelectKeyESI_SK_EneERKSN_
qhh:_Array_InternalArray__ICollection_Add_TisTableRange_t3332867892_m1428005761_gshared
djb:__ZL26Transfer_SimpleNativeClassI19StreamedBinaryWrite8GradientLb1EEvRK29SerializationCommandArgumentsR31RuntimeSerializationCommandInfo
BFf:_TextInfo_ToLower_m2744057472
XDb:__ZN17ArchiveFileSystem12MountArchiveEPKcS1_
W5i:__ZN14dense_hash_mapI10KeyWrapperIP9FieldInfoEiN6il2cpp5utils11PointerHashIS1_EENS3_14EqualsComparerINSt3__28equal_toIS2_EEEENS9_9allocatorINS9_4pairIKS3_iEEEEE15set_deleted_keyERSF_
rKg:__ZNK32InternalEnumerator_1_t318664610611get_array_0Ev
inc:__Z18Transfer_BlittableI9JSONWriteLb1E8Vector4fEvRK29SerializationCommandArgumentsR31RuntimeSerializationCommandInfo
LS:__Z11RequireTypePKcS0_S0_
Rwf:_CCGregorianCalendar_year_from_fixed_m463929682
MKe:_ClientSessionInfo__ctor_m2436192270
zte:_ReadOnlyArrayListWrapper_Sort_m2577012511
k9j:_Debug_get_unityLogger_m2239795986
vBe:_MD2Managed_Initialize_m2341076836
u0c:__ZNK23TypeBuilder_t107394815414get_pmodule_24Ev
GEf:__ZNK22RegionInfo_t109027022614get_iso2Name_3Ev
C5a:__ZN9GfxDevice15ImmediateVertexEfff
mVk:__ZL56PreLateUpdate_t3194249939_CustomAttributesCacheGeneratorP21CustomAttributesCache
OJa:__ZNK16LightmapSettings22GetTypeVirtualInternalEv
hIc:__ZN17Physics2DSettings8TransferI19StreamedBinaryWriteEEvRT_
XOg:__Z34Enumerator_VerifyCurrent_m93918543P22Enumerator_t2086727927PK10MethodInfo
lra:__ZN16GraphicsSettings13AwakeFromLoadE17AwakeFromLoadMode
r8:__ZL49__ManagedRegistrationHelperFunction_GPUFenceProxyPv
gp:__ZN6Object13AwakeFromLoadE17AwakeFromLoadMode
vub:__ZN13GfxDeviceGLES15SetStencilStateEPK18DeviceStencilStatei
JLf:__ZN28GenericInterfaceFuncInvoker3IiP22ByteU5BU5D_t4116647657iiE6InvokeEPK10MethodInfoP12Il2CppObjectS1_ii
$Zk:__ZL138SupportedRenderingFeatures_t353898663_CustomAttributesCacheGenerator_SupportedRenderingFeatures_get_supportedLightmapBakeTypes_m1596512019P21CustomAttributesCache
fZj:__ZN6il2cpp2vm8Profiler7GCEventE13Il2CppGCEvent
Rfi:__Z76RuntimeInvoker_Void_t1185182177_RuntimeObject_RuntimeFieldHandle_t1871169219PFvvEPK10MethodInfoPvPS4_
I7:__ZL50__ManagedRegistrationHelperFunction_LayerMaskProxyPv
Std:__ZNK25ConfigHandler_t419243721625get_currentProviderData_3Ev
S8i:__ZNSt3__218uninitialized_fillIP10KeyWrapperIPK19Il2CppGenericMethodES5_EEvT_S7_RKT0_
_$i:__ZN35StaticAccessorAttribute_t243266390231set_U3CNameU3Ek__BackingField_0EP8String_t
ih:_emscripten_glUniform1iv
Z7a:__ZN13ComputeShader14SetBufferParamEjRKN9ShaderLab16FastPropertyNameE15ComputeBufferIDb
MGj:__ZN6il2cpp6icalls8mscorlib6SystemL16ThrowInvalidCastEPK11Il2CppClassS5_
Iyc:__ZN15b2DistanceProxy3SetEPK7b2Shapei
B4e:__ZN38X509Certificate2Enumerator_t331671381216set_enumerator_0EP12Il2CppObject
s2a:__ZN16MemoryFileSystemD2Ev
ggi:__Z150RuntimeInvoker_Int32_t2950945753_RuntimeObject_Int32_t2950945753_Int32_t2950945753_RuntimeObject_Int32_t2950945753_Int32_t2950945753_Int32_t2950945753PFvvEPK10MethodInfoPvPS4_
Vne:_BitConverter_DoubleToInt64Bits_m3574395137
Flc:__ZN9Scripting11UnityEngine13GUIStyleProxy12CleanupProxyEv
e8i:__ZNSt3__218uninitialized_fillIP10KeyWrapperIPK17Il2CppGenericInstES5_EEvT_S7_RKT0_
bgj:__ZN6il2cpp2vmL15InitPollRequestER6pollfdP23Il2CppSocketAsyncResultRNS_2os19SocketHandleWrapperE
eUf:__Z25Il2CppCodeGenWriteBarrierI34SerializationCallbacks_t2570604627EvPPT_S2_
$Bg:__ZN32InternalEnumerator_1_t28112936009set_idx_1Ei
zrg:_InternalEnumerator_1_System_Collections_IEnumerator_Reset_m81420524_AdjustorThunk
UEc:__ZN29b2InitializeContactSolverTask7TaskJobEPS_j
KW:__ZN14FileCacherReadD2Ev
KPf:_StringReader_Read_m3322058819
msd:_CrossAppDomainChannel_get_ChannelPriority_m3418073750
KYg:_EqualityComparer_1__ctor_m1860346363_gshared
Dcd:_EventInfo__ctor_m3033129999
rXi:__ZL24UnresolvedVirtualCall_33P12Il2CppObjectiS0_S0_PK10MethodInfo
mVh:_ReadOnlyCollection_1_System_Collections_Generic_ICollectionU3CTU3E_get_IsReadOnly_m2788045022_gshared
Qcc:__ZN15ApplicationInfo16GetInstallerNameEv
DYb:__Z23ConvertIntegerToTypePtrItEbPvR14SafeBinaryRead
zqf:_Delegate_CombineImpl_m3572135514
rUd:_NumberFormatter_IntegerToString_m1679294587
wpd:__ZN22SafeHandle_t327338895112set_handle_0Ei
l8f:_SHA256Managed_AddLength_m1060552216
Ug:_emscripten_glStencilFunc
SWi:__ZL23UnresolvedVirtualCall_6P12Il2CppObjectiPK10MethodInfo
LXi:__ZL24UnresolvedVirtualCall_53P12Il2CppObjectPK10MethodInfo
zT:__ZN18AwakeFromLoadQueueD2Ev
s$c:__Z46il2cpp_codegen_get_marshal_directive_exceptionPKc
JWh:__ZN22Nullable_1_t260372133115set_has_value_1Eb
p3b:__ZN9ShaderLab20SerializedSubProgram14AddMatrixParamEPKcii15ShaderParamTypei
Rj:_glGetActiveUniformBlockName
Kdi:__Z67RuntimeInvoker_Int32_t2950945753_RuntimeObject_Int32U26_t1369213839PFvvEPK10MethodInfoPvPS4_
hXc:__GLOBAL__sub_I_UnityWebRequestScriptingClasses_cpp
JDi:_Parser_IsIgnoreCase_m2210120858
zWj:__ZNK14dense_hash_mapI10KeyWrapperIPK19Il2CppGenericMethodEP10MethodInfoN6il2cpp8metadata23Il2CppGenericMethodHashENS4_14EqualsComparerINS8_26Il2CppGenericMethodCompareEEENSt3__29allocatorINSD_4pairIKS4_S6_EEEEE9SelectKeyclERKSH_
UZc:__ZN9Scripting11UnityEngine5Video16VideoPlayerProxy9InitProxyEv
wRj:__ZN6il2cpp2os5posix13PosixAutoLockD2Ev
Ldj:__ZN6il2cpp2vm13MetadataCache28GetGenericContainerFromIndexEi
IWa:__ZN27UnloadUnusedAssetsOperationD0Ev
wWd:__ZN27NumberFormatter_t118292462117set__specifier_13EDs
Xx:__ZN4FMOD7Channel20set3DConeOrientationEP11FMOD_VECTOR
Xm:FUNCTION_TABLE_iiifii
D6d:_AssemblyBuilder_not_supported_m1735277432
EQj:__ZN6il2cpp2vm12GenericClass11SetupEventsEP11Il2CppClass
t2c:__ZN24ModuleBuilder_t73188769116set_assemblyb_16EP26AssemblyBuilder_t359885250
KJj:__ZN6il2cpp2vm15ReboxIReferenceEP14Il2CppIUnknownP11Il2CppClass
Epf:_Decimal_ToString_m1815393864_AdjustorThunk
BDd:_CADMethodCallMessage_GetArguments_m3041854375
G_i:__ZN6il2cpp6icalls8mscorlib6System7Decimal14decimalCompareEP19il2cpp_decimal_reprS5_
a_j:__ZThn4_N6il2cpp2vm13CachedCCWBaseINS0_13ManagedObjectEE7ReleaseEv
v8e:__ZNK22Interpreter_t58271570111get_deep_12Ev
thk:_GameObject_AddComponent_m136524825
AFk:__ZL62SoapMethodAttribute_t1935009310_CustomAttributesCacheGeneratorP21CustomAttributesCache
Ubj:__ZL29ConvertPackingSizeEnumToValue11PackingSize
qqi:__Z100RuntimeInvoker_Void_t1185182177_RuntimeObject_Int32_t2950945753_Int32_t2950945753_UInt16_t2177724958PFvvEPK10MethodInfoPvPS4_
tkl:_glCopyTexImage2D__wrapper
TKc:__ZN16PhysicsManager2D11CreateWorldERK8Vector2f
iRc:__ZN11UnityEngine15PlatformWrapper21GetApplicationVersionEv
lrb:__Z18ClearByDrawingQuad13GfxClearFlagsRK10ColorRGBAffjR17ShaderPassContext
Y3:__ZN6prcoreL17RemapGenericFloatI14TexFormatRHalf15TexFormatRFloatEEvPKNS_9InnerInfoE
dxj:__ZN14dense_hash_mapI10KeyWrapperIPK14Il2CppAssemblyEPK22Il2CppMonoAssemblyNameN6il2cpp5utils11PointerHashIS2_EENS4_14EqualsComparerINSt3__28equal_toIS3_EEEENSD_9allocatorINSD_4pairIKS4_S7_EEEEED2Ev
kki:__Z155RuntimeInvoker_Void_t1185182177_RuntimeObject_SByte_t1669577662_SByte_t1669577662_Int64U26_t200113976_ObjectU26_t2146539884_SerializationInfoU26_t419328957PFvvEPK10MethodInfoPvPS4_
D0:__ZN15DirectorManager21RebuildStageCallbacksEv
lRf:__ZNK33UnmanagedMemoryStream_t423411766922get_current_position_7Ev
n9j:_Application_Internal_ApplicationQuit_m2936209313
iOc:__ZN9Scripting11UnityEngine8Tilemaps22TileAnimationDataProxy9InitProxyEv
exb:__ZN7ApiGLES10DrawArraysE16GfxPrimitiveTypejjj
YA:__ZN10SampleClip13LoadBaseSoundEv
lRh:__ZN22Enumerator_t114251574214set__version_2Ei
Nwe:__ZNK21Hashtable_t185388976614get_hashKeys_7Ev
l8:__ZL50__ManagedRegistrationHelperFunction_TransformProxyPv
tsk:__ZNK23WorkRequest_t135451861224get_m_DelagateCallback_0Ev
iKd:__ZN50RemotingSurrogateSelector_t2472351973_StaticFields27set__objRemotingSurrogate_2EP29RemotingSurrogate_t2834579653
wEc:__ZN43b2SolveVelocityConstraintsContactSolverTaskD0Ev
wdb:__ZN14SafeBinaryRead21TransferSTLStyleArrayI13dynamic_arrayI10Matrix4x4fLj0EEEEvRT_17TransferMetaFlags
xEd:_MethodCall__ctor_m3669645
L6h:_DeriveBytes_DeriveKey_m2933043667
TD:__Z57AudioSource_CUSTOM_INTERNAL_CALL_ClearExtensionPropertiesP12Il2CppObjectRK12PropertyName
jfk:__ZN26UnityEventBase_t396044822123set_m_PersistentCalls_1EP31PersistentCallGroup_t3050769227
rQj:__ZN15dense_hashtableINSt3__24pairIK10KeyWrapperIP12Il2CppObjectEN6il2cpp2gc9CachedCCWEEES5_NS7_5utils11PointerHashIS3_EEN14dense_hash_mapIS5_S9_SD_NS5_14EqualsComparerINS0_8equal_toIS4_EEEENS0_9allocatorISA_EEE9SelectKeyESI_SK_E15insert_noresizeERKSA_
TFe:_CertificateValidationCallback2__ctor_m1685875113
pxg:__ZNK32InternalEnumerator_1_t150172948011get_array_0Ev
Yza:__ZN22DeviceMVPMatricesStateC2ER9GfxDevice
Tuk:__ZL48Double_t594665363_CustomAttributesCacheGeneratorP21CustomAttributesCache
r2:__ZN6Object16StaticInitializeEv
iGe:__ZN23CipherSuite_t341474457527set_exchangeAlgorithmType_5Ei
Gpj:__ZN14dense_hash_mapI10KeyWrapperINSt3__24pairIPK9FieldInfoP11Il2CppClassEEEj17ReflectionMapHashIS8_ENS9_14EqualsComparerINS1_8equal_toIS8_EEEENS1_9allocatorINS2_IKS9_jEEEEE4findERSH_
eve:_Comparer_Compare_m3984347512
dq:__ZN17CallbackArrayBaseIPFviR18AwakeFromLoadQueue16SceneLoadingModeEPFvPKviS1_S2_EE8RegisterES4_S8_S6_
D7g:__ZN26BlockProcessor_t185103122516set_blockCount_3Ei
Eb:invoke_viiifi
V3d:__Z25Il2CppCodeGenWriteBarrierI23CultureInfo_t4157843068EvPPT_S2_
aid:_MonoProperty_GetCustomAttributes_m3619796755
qCg:_InternalEnumerator_1_MoveNext_m4132713223_AdjustorThunk
WHd:_MethodDictionary_System_Collections_IEnumerable_GetEnumerator_m4169036899
vie:__ZN23InterfaceActionInvoker2IP8String_tP12Il2CppObjectE6InvokeEjP11Il2CppClassS3_S1_S3_
$ah:__Z25Il2CppCodeGenWriteBarrierI36KeyGeneratedEventHandler_t3064139577EvPPT_S2_
X6f:_RIPEMD160Managed_JJJ_m4161373884
Twd:_CrossContextChannel__ctor_m3755842292
iYg:_DefaultComparer_Equals_m3257444875_gshared
IBa:__ZN10Matrix4x4f8TransferI19StreamedBinaryWriteEEvRT_
tc:_JS_Sound_SetPosition
oIa:__ZNK9Texture3D26CanReuploadDataToGfxDeviceEv
tdj:__ZL13GetSharedInstPK17Il2CppGenericInst
lUd:__ZN27NumberFormatter_t118292462113set__thread_6EP18Thread_t2300836069
Cqa:__Z27ConvertSubMeshesToTrianglesIjEvR13dynamic_arrayI7SubMeshLj0EERS0_IhLj0EE
fpk:_RenderTexture_Internal_Create_m347030155
vMd:__ZNK29SoapTypeAttribute_t175093081716get__isElement_9Ev
t7c:__ZN31OpCodes_t126150456_StaticFields15set_Ldind_R8_78E17OpCode_t123070264
zQb:__Z17PrepareSceneNodesP11CullResults
$tg:_InternalEnumerator_1_get_Current_m476140818_gshared
X2b:__ZN9ShaderLab10SubProgram30CreateFromSerializedSubProgramERKNS_20SerializedSubProgramEP16PropertyNamesSetPK6Shader
yDg:_InternalEnumerator_1_Dispose_m887344916_gshared
ZCh:__ZN36RSACryptoServiceProvider_t268351287415set_persisted_4Eb
e1c:__ZN25ParameterInfo_t186105659815set_ClassImpl_0EP6Type_t
mXg:__ZNK23Dictionary_2_t13254515212get_count_10Ev
uMc:__ZL55__ManagedRegistrationHelperFunction_SphereColliderProxyPv
gPb:__Z24SetupActiveLightsContextR21ActiveLightingContextRK12ActiveLightsRK11CullResultsP14ShadowMapCacheRK10MinMaxAABB
bOh:_List_1_Add_m238442097_gshared
vgc:__ZN9TextAsset7SetTextERKN4core12basic_stringIcNS0_20StringStorageDefaultIcEEEE
Mla:__ZN6Camera8TransferI24GenerateTypeTreeTransferEEvRT_
lF:__Z18RegisterUnityClassI12AudioManagerEvPKc
Sa:invoke_iiiiiiif
Ta:invoke_iiiiiiii
fkh:_Array_InternalArray__set_Item_TisByte_t1134296376_m3104140039_gshared
B2e:__ZN38X509ChainElementEnumerator_t301425345616set_enumerator_0EP12Il2CppObject
ujc:__Z56Register_UnityEngine_MonoBehaviour_IsObjectMonoBehaviourv
nli:__Z194RuntimeInvoker_Int32_t2950945753_RuntimeObject_Int32_t2950945753_Int32_t2950945753_RuntimeObject_Int32_t2950945753_SByte_t1669577662_Int32U26_t1369213839_BooleanU26_t4125257963_SByte_t1669577662PFvvEPK10MethodInfoPvPS4_
d9e:__ZNK22Interpreter_t58271570115get_mark_end_15Ev
X7h:_PKCS12_GetBytes_m415958948
LJe:_Context_get_HandshakeState_m2425796590
IGb:__ZN8Renderer17PendingAddToSceneEv
Ihj:__ZN6il2cpp5utils10functional6FilterINSt3__212basic_stringIcNS3_11char_traitsIcEENS3_9allocatorIcEEEENS0_13VmStringUtils21CaseSensitiveComparerEEC2ES9_SB_
Rig:_String_CompareOrdinalCaseInsensitiveUnchecked_m2925624579
vS:__Z21PostprocessStacktracePKcRN4core12basic_stringIcNS1_20StringStorageDefaultIcEEEE
V0k:__ZL73ContactFilter2D_t3805203441_CustomAttributesCacheGenerator_minNormalAngleP21CustomAttributesCache
bJj:__ZN15dense_hashtableINSt3__24pairIK10KeyWrapperIP14Il2CppIUnknownEjEES5_N6il2cpp5utils11PointerHashIS3_EEN14dense_hash_mapIS5_jSB_NS5_14EqualsComparerINS0_8equal_toIS4_EEEENS0_9allocatorIS7_EEE9SelectKeyESG_SI_E12expand_arrayEjN21dense_hash_map_traits17integral_constantIbLb0EEE
mik:_ManagedStreamHelpers_ManagedStreamLength_m2930872960
snd:__ZN21InterfaceFuncInvoker0IbE6InvokeEjP11Il2CppClassP12Il2CppObject
m7d:__ZNK30ConstructorBuilder_t281352410810get_type_8Ev
VLf:_FileStreamAsyncResult_CBWrapper_m1670848754
B9e:__ZN21Enumerator_t66135868610set_mode_4Ei
Tkk:__ZN28MessageEventArgs_t117057578414set_playerId_0Ei
ofd:___clang_call_terminate
gRc:__ZN22BaseUnityConnectClient20StartEventDispatcherEv
Wzb:__ZL25ProgramUniformMatrix4x3fvPK7ApiGLESjiihPKv
WXb:__Z29StdTemplateConversionFunctionIsiEbPvR14SafeBinaryRead
SEg:__ZN32InternalEnumerator_1_t104066683111set_array_0EP11Il2CppArray
QFb:__ZN12InputManager13InputEndFrameEv
iij:__ZNSt3__26__treeIP11Il2CppClassNS_4lessIS2_EENS_9allocatorIS2_EEE25__emplace_unique_key_argsIS2_JRKS2_EEENS_4pairINS_15__tree_iteratorIS2_PNS_11__tree_nodeIS2_PvEEiEEbEERKT_DpOT0_
lVf:__ZNK24ObjectWriter_t296840623118get_arrayBuffer_11Ev
Nbk:_Object_get_name_m4211327027
tAj:__ZN6il2cpp2vm6Thread5SetupEP12Il2CppThread
Trj:__ZN14dense_hash_mapI10KeyWrapperINSt3__24pairIPK10MethodInfoP11Il2CppClassEEEj17ReflectionMapHashIS8_ENS9_14EqualsComparerINS1_8equal_toIS8_EEEENS1_9allocatorINS2_IKS9_jEEEEE3endEv
rPg:_Enumerator_System_Collections_IDictionaryEnumerator_get_Key_m2500634048_gshared
y6k:___munmap
xl:_localtime_r
bpd:_InterfaceTypeAttribute__ctor_m3307583035
xAg:_InternalEnumerator_1_System_Collections_IEnumerator_Reset_m3619766341_AdjustorThunk
NAa:__ZN14SafeBinaryRead21TransferSTLStyleArrayI13dynamic_arrayI12BoneWeights4Lj0EEEEvRT_17TransferMetaFlags
x4f:__ZNK16HMAC_t262110114415get__disposed_5Ev
YM:__Z19free_alloc_internalPv10MemLabelId
xFk:__ZL56ReturnMessage_t1376985608_CustomAttributesCacheGeneratorP21CustomAttributesCache
Nnh:_UTF32Decoder_GetChars_m1925558948
Vl:_strftime
iva:__ZN7Texture33SetStoredColorSpaceNoDirtyNoApplyE17TextureColorSpace
gnd:_ResourceSet__ctor_m3618395942
Oof:_Decimal_System_IConvertible_ToDouble_m3125524987_AdjustorThunk
gX:__ZN12FileAccessorD2Ev
Rqa:__ZN14VertexDataInfoC2Ev
rTj:__ZN6il2cpp2gc16GarbageCollector14CollectALittleEv
Wq:__ZN13dynamic_arrayI23TransformAccessReadOnlyLj0EE4growEv
gfk:_UnityEventBase__ctor_m1851535676
Nxk:__ZL56GuidAttribute_t1304051729_CustomAttributesCacheGeneratorP21CustomAttributesCache
jwi:__Z117RuntimeInvoker_Void_t1185182177_CustomAttributeTypedArgumentU5BU5DU26_t2503877664_Int32_t2950945753_Int32_t2950945753PFvvEPK10MethodInfoPvPS4_
IP:__ZNSt3__26__treeINS_12__value_typeIPKciEENS_19__map_value_compareIS3_S4_15compare_tstringIS3_ELb1EEENS_9allocatorIS4_EEE21__emplace_unique_implIJNS_4pairIPciEEEEENSD_INS_15__tree_iteratorIS4_PNS_11__tree_nodeIS4_PvEEiEEbEEDpOT_
Zij:__ZN6il2cpp6icalls8mscorlib6SystemL9IsPrivateEPK12PropertyInfo
w8h:_X501_ToString_m1148552872
Wri:__Z96RuntimeInvoker_RuntimeObject_PlayableGraph_t3515989261_RuntimeObject_RuntimeObject_RuntimeObjectPFvvEPK10MethodInfoPvPS4_
Ick:_DebugLogHandler_Internal_LogException_m4213045108
JR:__ZN9shadertag10InitializeEv
H5f:__ZN36MD5CryptoServiceProvider_t300558604211set_count_6Ey
BUf:__ZNK28SerializationInfo_t95087717918get_assemblyName_2Ev
TMc:__GLOBAL__sub_I_Modules_Terrain_Public_1_cpp
wnj:_il2cpp_field_has_attribute
gHa:__ZN15QualitySettings14QualitySetting8TransferI24GenerateTypeTreeTransferEEvRT_
hsj:__ZN10KeyWrapperINSt3__24pairIPK10MethodInfoP11Il2CppClassEEEC2ERKS8_
T5j:__ZN6il2cpp5utils6Memory11AlignedFreeEPv
O5h:__ZN29KeyUsageExtension_t179561591212set_kubits_3Ei
oHe:_Context_get_ClientWriteKey_m3174706656
Wuc:__ZL34CleanupModule_PerformanceReportingv
pjf:_Convert_ToSingle_m835189399
Qbc:__ZN22BlockMemoryCacheWriter14LockCacheBlockEjPPhS1_
vhj:__ZN6il2cpp6icalls8mscorlib6System8MonoType24GetConstructors_internalEP20Il2CppReflectionTypeiS5_
n1f:_CryptographicUnexpectedOperationException__ctor_m69881930
WHk:__ZL73TripleDESCryptoServiceProvider_t3595206342_CustomAttributesCacheGeneratorP21CustomAttributesCache
Wqc:__Z22TransferField_NonArrayI8JSONRead27Converter_SimpleNativeClassI8GUIStyleEEvRK23StaticTransferFieldInfoR31RuntimeSerializationCommandInfoRT0_
TOi:__Z25Il2CppCodeGenWriteBarrierI29TrackableProperty_t3943537984EvPPT_S2_
pl:_llvm_eh_typeid_for
$kd:__ZN26ResourceReader_t330049263916set_readerLock_1EP12Il2CppObject
Hdl:_glGetUniformLocation__wrapper
vHd:_RemotingServices_FindInterfaceMethod_m2125212568
irf:__ZN22StackFrame_t321725305929get_address_of_nativeOffset_2Ev
$Of:_StreamWriter__cctor_m1229272693
htf:_Enum_System_IConvertible_ToSByte_m779472798
eQf:__ZN18VirtActionInvoker1IP22CharU5BU5D_t3528271667E6InvokeEjP12Il2CppObjectS1_
lYi:__ZL24UnresolvedVirtualCall_81P12Il2CppObjectPK10MethodInfo
Vvh:_Type_get_IsInterface_m3284996719
jFh:_GenericEqualityComparer_1_Equals_m1218735909_gshared
g8i:__ZN10KeyWrapperIPK17Il2CppGenericInstEC2ERKS2_
qcb:__ZNSt3__26vectorI17ScriptingFieldPtr13stl_allocatorIS1_L18MemLabelIdentifier1ELi16EEE21__push_back_slow_pathIRKS1_EEvOT_
_Ef:_SortKey_get_OriginalString_m1428586816
cQf:__ZN18VirtActionInvoker1IDsE6InvokeEjP12Il2CppObjectDs
YXg:_Dictionary_2_U3CCopyToU3Em__0_m2023886030_gshared
Wti:__Z64RuntimeInvoker_Boolean_t97287965_RefEmitPermissionSet_t484390987PFvvEPK10MethodInfoPvPS4_
gPg:__Z28Enumerator_Reset_m1473454555P22Enumerator_t2086727927PK10MethodInfo
ofl:_glBindVertexArray__wrapper
zTf:_SerializationInfo__ctor_m2923079689
OSc:__ZN11UnityEngine9Analytics16LimitEventConfig8TransferI8JSONReadEEvRT_
oya:__ZN8Material8TransferI14SafeBinaryReadEEvRT_
ECa:__ZN12CubemapArray17UploadToGfxDeviceEv
__e:__ZNK38AsnEncodedData_t382354011_StaticFields28get_U3CU3Ef__switchU24mapA_2Ev
khi:__Z68RuntimeInvoker_Void_t1185182177_Int32_t2950945753_Single_t1397266774PFvvEPK10MethodInfoPvPS4_
DTd:_Int32_JumpOverWhite_m208298144
Erg:__ZNK32InternalEnumerator_1_t42399320099get_idx_1Ev
O4g:__ZN35BigInteger_t2902905089_StaticFields17set_smallPrimes_2EP24UInt32U5BU5D_t2770800703
d6i:__ZN15dense_hashtableINSt3__24pairIK10KeyWrapperIP9FieldInfoEiEES5_N6il2cpp5utils11PointerHashIS3_EEN14dense_hash_mapIS5_iSB_NS5_14EqualsComparerINS0_8equal_toIS4_EEEENS0_9allocatorIS7_EEE9SelectKeyESG_SI_E4swapERSL_
w$e:__ZNK33X509KeyUsageExtension_t204210159113get__status_8Ev
pil:_emscripten_glGetUniformiv__wrapper
VZj:__ZN6il2cpp2vm13ManagedObject14QueryInterfaceERK10Il2CppGuidPPv
LKf:__ZN28StreamAsyncResult_t7802485129set_exc_3EP11Exception_t
Fy:__ZN11AudioSource4StopEb
c4k:__Z25Il2CppCodeGenWriteBarrierI18List_1_t2411569343EvPPT_S2_
cDc:__ZN39b2ClearContinuousContactIslandFlagsTask7ExecuteEv
wIf:_BinaryWriter_Write_m340679106
GRi:__ZN24SingleU5BU5D_t144491125121GetAddressAtUncheckedEj
l4j:__ZN6il2cpp2os14WindowsRuntime13DeleteHStringEP15Il2CppHString__
p9a:__ZN18GlslGpuProgramGLESD2Ev
vVb:__ZN13RenderTexture14SetVolumeDepthEi
Ecd:_EventInfo_get_EventHandlerType_m420690865
Ipi:__Z86RuntimeInvoker_Void_t1185182177_UInt16_t2177724958_SByte_t1669577662_SByte_t1669577662PFvvEPK10MethodInfoPvPS4_
c3b:__Z22LoadGpuProgramFromDataPKhS0_Rj
Arc:__ZN10Matrix4x4f8TransferI8JSONReadEEvRT_
Wub:__ZN13GfxDeviceGLES22AllocateBufferInternalERK13GfxBufferDesc
HRd:__ZN38CodeGenerator_t1096194562_StaticFields13set__module_1EP24ModuleBuilder_t731887691
gJd:_MethodResponse_GetArg_m4250300354
Cwe:_Hashtable__ctor_m1941859523
jBb:__ZN25TransformFeedbackSkinning31CleanupTransformFeedbackShadersEv
swh:_Type_GetTypeCodeInternal_m1968182887
tma:__Z22scripting_object_unbox18ScriptingObjectPtr
lod:_CriticalFinalizerObject__ctor_m3245424448
kBd:_AsyncResult_get_NextSink_m1844209137
z4j:__ZNSt3__210__list_impIPN6il2cpp5utils10MemoryPool6RegionENS_9allocatorIS5_EEED2Ev
Wag:__ZN29ToBase64Transform_t255155705716set_m_disposed_0Eb
lwk:__ZL81RuntimeArray_CustomAttributesCacheGenerator_Array_GetValue_m116098292____indices0P21CustomAttributesCache
N3c:__ZN24ModuleBuilder_t73188769118set_global_type_21EP23TypeBuilder_t1073948154
a0d:_MonoType_get_Assembly_m4290914179
E8j:___cxx_global_var_init_12898
Hce:_Array_Reverse_m816310962
EVb:__ZN14PreloadManager16UpdatePreloadingEv
rka:__ZN12BaseRendererD2Ev
AEg:_InternalEnumerator_1_System_Collections_IEnumerator_Reset_m3545912565_gshared
tgc:__ZNSt3__26vectorI4PPtrI10MonoScriptE13stl_allocatorIS3_L18MemLabelIdentifier79ELi16EEE6insertENS_11__wrap_iterIPKS3_EERS9_
ijg:_String_LastIndexOf_m95398196
Tq:__ZN13ConstraintJob23ConstraintComponentDataC2ERK16LookAtConstraint
HOi:__ZN42U3CTimedTriggerU3Ec__Iterator0_t381343549418set_U24disposing_2Eb
cWe:__ZN26HttpWebRequest_t166943651513set_method_18EP8String_t
Xea:__ZN9Scripting5Unity11Collections39DeallocateOnJobCompletionAttributeProxy12CleanupProxyEv
Olk:_PlayableAsset__ctor_m2395156306
XVa:__ZN19RenderBufferManager7Buffers14GarbageCollectEi
vP:__ZN13RuntimeStaticI13dynamic_arrayI22RenderingExtPluginDescLj0EELb0EE13StaticDestroyEPv
BZb:__ZNK21UnityDefaultAllocatorI17LowLevelAllocatorE8ContainsEPKv
hgj:__ZNSt3__213__vector_baseI6pollfdNS_9allocatorIS1_EEED2Ev
n$f:_RuntimeTypeHandle_Equals_m2857439487
ze:_emscripten_get_main_loop_timing
wof:__ZN32Decimal_t2948259380_StaticFields14set_MinValue_0E19Decimal_t2948259380
jM:__GLOBAL__sub_I_Runtime_PreloadManager_0_cpp
Epd:_SafeHandle_Finalize_m3866180675
SKj:__ZNK10KeyWrapperINSt3__24pairIPKcS3_EEEcvRKS4_Ev
fHa:__ZN24GenerateTypeTreeTransfer21TransferSTLStyleArrayINSt3__26vectorIN15QualitySettings14QualitySettingENS1_9allocatorIS4_EEEEEEvRT_17TransferMetaFlags
OMf:_MemoryStream_ToArray_m3911744835
jOg:_Enumerator_System_Collections_IDictionaryEnumerator_get_Entry_m859540448_AdjustorThunk
o9f:__ZN25SHA512Managed_t17873363399set_H5_12Ey
IUb:__ZN23ManagedAttributeManager52CallManagedGetParentTypeDisallowingMultipleInclusionE17ScriptingClassPtr
OQa:__Z10AddGUIAxesR13dynamic_arrayI9InputAxisLj0EE
a8j:__ZN6il2cpp2os5Event4WaitEjb
Cwh:_Type_GetHashCode_m1947148725
NKg:__ZNK32InternalEnumerator_1_t413667385711get_array_0Ev
dJb:__ZN13BatchRendererC2ER15RenderLoopStatsRK15RenderNodeQueuebbb
sKd:__ZN25ReturnMessage_t137698560818set__returnValue_4EP12Il2CppObject
Qki:__Z91RuntimeInvoker_Void_t1185182177_RuntimeObject_RuntimeObject_RuntimeObject_SByte_t1669577662PFvvEPK10MethodInfoPvPS4_
IL:__GLOBAL__sub_I_Runtime_Graphics_0_cpp
WGj:__ZN6il2cpp6icalls8mscorlib6SystemL12AssignSignedIiEEvNS2_17WidenedValueUnionEPv14Il2CppTypeEnumjj
bYa:__ZNK2UI13RectTransform22GetTypeVirtualInternalEv
XSg:__ZN28GenericInterfaceFuncInvoker2IP12Il2CppObjectS1_bE6InvokeEPK10MethodInfoS1_S1_b
to:getTempRet0
CTk:__ZL59LayerMask_t3493934918_CustomAttributesCacheGenerator_m_MaskP21CustomAttributesCache
D7i:__ZNK14dense_hash_setI10KeyWrapperIPK17Il2CppGenericInstEN6il2cpp8metadata21Il2CppGenericInstHashENS4_14EqualsComparerINS6_24Il2CppGenericInstCompareEEENSt3__29allocatorIS4_EEE8IdentityclERKS4_
dBg:_InternalEnumerator_1_MoveNext_m2234422530_gshared
XIe:__Z25Il2CppCodeGenWriteBarrierI29TlsClientSettings_t2486039503EvPPT_S2_
O6d:__ZNK26AssemblyBuilder_t35988525016get_resources_16Ev
ulk:_Object_Destroy_m565254235
K$j:_GC_min
fZc:__GLOBAL__sub_I_Runtime_Vehicles_0_cpp
bRf:_UnexceptionalStreamWriter_Write_m1834931241
y0i:___cxx_global_var_init_2_9688
aQ:__Z27UnregisterFrameCallbackImplPFvPvES_
k7c:__ZN31OpCodes_t126150456_StaticFields15set_Ldind_I1_69E17OpCode_t123070264
RFj:__ZN6il2cpp6icalls8mscorlib6System9ThreadingL21lookup_cached_cultureEP12Il2CppThreadi
g3j:__ZN6il2cpp2os11EventHandleD2Ev
BId:__ZNK26MethodResponse_t214751120119get__callContext_11Ev
dQb:__ZN18DeferredRenderLoopD2Ev
sfa:__ZNK16TypeTreeIterator4NameEv
yTk:__ZL121GraphicsFormatUtility_t3491748452_CustomAttributesCacheGenerator_GraphicsFormatUtility_GetRenderTextureFormat_m2347522639P21CustomAttributesCache
fgk:_GraphicsFormatUtility_GetRenderTextureFormat_m2347522639
yvk:__ZL40UIntPtr_t_CustomAttributesCacheGeneratorP21CustomAttributesCache
GW:__ZN15FileSystemEntry3SetEPKc
y7d:_ConstructorBuilder_Invoke_m3010446651
JYe:_IPv6Address_set_ScopeId_m3907190992
Fx:__ZN20SoundChannelInstance15ParameterBuffer5ApplyEPN4FMOD7ChannelE
wYe:_IPv6Address__ctor_m4117281080
E$i:__ZN33NativeMethodAttribute_t418742819342set_U3CHasExplicitThisU3Ek__BackingField_4Eb
d0g:__ZNK45MSCompatUnicodeTable_t1453885583_StaticFields12get_level1_3Ev
SSk:__ZL88GameObject_t1113636619_CustomAttributesCacheGenerator_GameObject_SendMessage_m3720186693P21CustomAttributesCache
Aal:_sbrk
cDk:__ZL92ResourceSet_t2827911187_CustomAttributesCacheGenerator_ResourceSet_GetEnumerator_m3459697719P21CustomAttributesCache
Mkb:__Z18Transfer_BlittableI18StreamedBinaryReadLb1E4AABBEvRK29SerializationCommandArgumentsR31RuntimeSerializationCommandInfo
CSc:__ZN11UnityEngine15PlatformWrapper24GetRuntimePlatformStringEv
ok:_glIsEnabled
sXa:__ZN15CacheWriterBaseD2Ev
ncb:__Z25scripting_class_get_image17ScriptingClassPtr
bve:_CaseInsensitiveComparer_Compare_m1224120810
JMh:_List_1_RemoveAt_m2730968292_gshared
mTa:__ZNSt3__26vectorIN4core12basic_stringIcNS1_20StringStorageDefaultIcEEEE13stl_allocatorIS5_L18MemLabelIdentifier13ELi16EEEC2INS_11__wrap_iterIPS5_EEEET_SE_RKS8_PNS_9enable_ifIXaasr21__is_forward_iteratorISE_EE5valuesr16is_constructibleIS5_NS_15iterator_traitsISE_E9referenceEEE5valueEvE4typeE
Df:_emscripten_glDrawElementsInstanced
dfh:_Array_InternalArray__IEnumerable_GetEnumerator_TisSlot_t3975888750_m1869932007_gshared
qVe:__ZN25FtpWebRequest_t157781830513set_binary_10Eb
ITk:__ZL48Mathf_t3464937446_CustomAttributesCacheGeneratorP21CustomAttributesCache
XRk:__ZL79Camera_t4157153871_CustomAttributesCacheGenerator_Camera_RaycastTry_m3913529496P21CustomAttributesCache
xua:__ZN18JobBatchDispatcherD2Ev
YXa:__ZN9Transform17MainThreadCleanupEv
u1j:_GC_clear_hdr_marks
qdl:_emscripten_glCreateShader__wrapper
Lke:__ZNK31ApplicationIdentity_t191773535615get__fullName_0Ev
jqg:__ZNK43U3CGetEnumeratorU3Ec__Iterator0_t375079332416get_U3CiU3E__0_0Ev
lkg:__ZN33Encoding_t1523322056_StaticFields18set_i18nAssembly_5EP10Assembly_t
m0e:_OidEnumerator_MoveNext_m3138911739
sTh:__ZNK24Collection_1_t166750607510get_list_0Ev
fui:__Z53RuntimeInvoker_Boolean_t97287965_Keyframe_t4206410242PFvvEPK10MethodInfoPvPS4_
lg:_emscripten_glGetShaderiv
rvh:__ZNK33TimeZone_t2038656743_StaticFields20get_timezone_check_2Ev
BYh:_InvokableCall_1_add_Delegate_m1011133128_gshared
_y:__ZN4FMOD6System10getVersionEPj
OEa:__Z26GetDecompressTextureFormat13TextureFormat
qu:__ZN9Scripting11UnityEngine2XR5Tango13PoseDataProxy12CleanupProxyEv
One:__ZNK34AttributeUsageAttribute_t29087731815get_inherited_2Ev
cpc:__ZN9JSONWrite8TransferIN4math12int2_storageEEEvRT_PKc17TransferMetaFlags
sAf:_CompareInfo_LastIndexOf_m2688553706
Vsf:_Enum__ctor_m3602080049
x4a:__ZN9GfxDevice21ReleaseSharedMeshDataEP14SharedMeshData
mkb:__Z29Transfer_Blittable_ArrayFieldI19StreamedBinaryWritehEvRT_R9ArrayInfoRK23StaticTransferFieldInfo
_Ii:_Uri_IsDomainAddress_m2867513594
O2g:__ZN25SortKeyBuffer_t294527527020get_address_of_l2b_9Ev
pSa:__ZNSt3__27__sort5IRNS_6__lessINS_4pairIPKN5Unity4TypeE7Hash128EES8_EEPS8_EEjT0_SC_SC_SC_SC_T_
UKk:__ZL79Convert_t2465617642_CustomAttributesCacheGenerator_Convert_ToDouble_m2949593046P21CustomAttributesCache
rrd:__Z25Il2CppCodeGenWriteBarrierI24ObjectU5BU5D_t2843939325EvPPT_S2_
Krj:__ZNK30dense_hashtable_const_iteratorINSt3__24pairIK10KeyWrapperIPK10Il2CppTypeEjEES6_N6il2cpp8metadata14Il2CppTypeHashEN14dense_hash_mapIS6_jSB_NS6_14EqualsComparerINSA_26Il2CppTypeEqualityComparerEEENS0_9allocatorIS8_EEE9SelectKeyESF_SH_EptEv
Vmk:_PlayerConnectionInternal_PollInternal_m3759016321
j3e:_X509Chain_ProcessCrlExtensions_m236234529
E2g:__ZNK19Context_t174453113017get_PrevSortKey_6Ev
Cwf:_ExecutionEngineException__ctor_m673563413
R3i:__ZN6il2cpp2vm5Class40GetInterfaceInvokeDataFromVTableSlowPathEPK12Il2CppObjectPK11Il2CppClassj
Kgh:_Array_InternalArray__IndexOf_TisLabelData_t360167391_m1826525656_gshared
Mte:__ZNK40SynchronizedArrayListWrapper_t228375709516get_m_SyncRoot_6Ev
Exg:_InternalEnumerator_1_System_Collections_IEnumerator_Reset_m521819017_gshared
nvd:_RealProxy_get_ObjectIdentity_m2790771985
sOd:_RemotingConfiguration_RegisterChannelTemplate_m3105688054
c2b:__ZN6Shader8TransferI19StreamedBinaryWriteEEvRT_
Goa:__ZN8Material28UpdateHashesOnPropertyChangeEN9ShaderLab16FastPropertyNameE
EFd:__ZNK21MethodCall_t86107814024get_ExternalProperties_9Ev
NXe:__ZNK26HttpWebRequest_t166943651514get_timeout_25Ev
vxe:_Locale_GetText_m3520169047
gbb:__Z18Transfer_BlittableI14SafeBinaryReadLb1E8Vector4fEvRK29SerializationCommandArgumentsR31RuntimeSerializationCommandInfo
kKe:__ZNK26RecordProtocol_t375904970117get_innerStream_1Ev
PIh:__Z64Enumerator_System_Collections_IEnumerator_get_Current_m472556657P22Enumerator_t3649184329PK10MethodInfo
pLj:__ZN6il2cpp2vm5Image13ClassFromNameEPK11Il2CppImagePKcS6_
Hbl:dynCall_vdddddd
p1b:__ZN24GenerateTypeTreeTransfer21TransferSTLStyleArrayINSt3__26vectorIN9ShaderLab14SerializedPassENS1_9allocatorIS4_EEEEEEvRT_17TransferMetaFlags
EZd:__Z25Il2CppCodeGenWriteBarrierI34AttributeUsageAttribute_t290877318EvPPT_S2_
jS:__ZL32MarkLevelGameManagerDependenciesR27GarbageCollectorThreadState
pKk:__ZL150ApplicationIdentity_t1917735356_CustomAttributesCacheGenerator_ApplicationIdentity_System_Runtime_Serialization_ISerializable_GetObjectData_m995105840P21CustomAttributesCache
mwb:__ZNK13GfxDeviceGLES26HasActiveRandomWriteTargetEv
apk:_ReflectionProbe_CallSetDefaultReflection_m2835659734
dOi:__ZNK32TriggerListContainer_t203271548313get_m_Rules_0Ev
vxk:__ZL54_MemberInfo_t3922476713_CustomAttributesCacheGeneratorP21CustomAttributesCache
Xjl:_glGetActiveUniformsiv__wrapper
Bui:__Z54RuntimeInvoker_Int32_t2950945753_LabelFixup_t858502054PFvvEPK10MethodInfoPvPS4_
iyc:__ZN17Physics2DSettings21SetAutoSyncTransformsEbb
Jgj:__ZNSt3__214__split_bufferIP12Il2CppThreadRNS_9allocatorIS2_EEED2Ev
bFk:__ZL83ConstructionCall_t4011594745_CustomAttributesCacheGenerator_U3CU3Ef__switchU24map20P21CustomAttributesCache
uUh:_ReadOnlyCollection_1_System_Collections_IList_get_Item_m1900827001_gshared
pjb:__Z18Transfer_BlittableI19StreamedBinaryWriteLb0EdEvRK29SerializationCommandArgumentsR31RuntimeSerializationCommandInfo
GKa:__ZN10GISettings8TransferI19StreamedBinaryWriteEEvRT_
B4h:__ZN21TlsStream_t236545396510set_temp_4EP22ByteU5BU5D_t4116647657
Ure:_ArrayList_get_IsReadOnly_m913775115
QIi:__ZNK27Uri_t100236324_StaticFields22get_UriSchemeNetTcp_27Ev
NSj:__ZNK30dense_hashtable_const_iteratorINSt3__24pairIK10KeyWrapperIPcES3_EES4_N6il2cpp5utils15PassThroughHashIS3_EEN14dense_hash_mapIS4_S3_SA_NS4_14EqualsComparerINS0_8equal_toIS3_EEEENS0_9allocatorIS6_EEE9SelectKeyESF_SH_EdeEv
kwh:_Type_get_TypeHandle_m160082026
n0:__ZZN15DirectorManager15InitializeClassEvEN52PreLateUpdateDirectorUpdateAnimationBeginRegistrator7ForwardEv
FHj:__ZN6il2cpp2vm13LivenessState18ShouldProcessValueEP12Il2CppObjectP11Il2CppClass
w4h:_TlsStream_get_Position_m1904146856
Wga:__ZN4PPtrI6SpriteE8TransferI14SafeBinaryReadEEvRT_
qZg:_EqualityComparer_1_System_Collections_IEqualityComparer_Equals_m1672604045_gshared
xYi:__ZL24UnresolvedVirtualCall_93P12Il2CppObjectS0_S0_S0_S0_PK10MethodInfo
sdk:__ZNK25ArgumentCache_t218795839938get_m_ObjectArgumentAssemblyTypeName_1Ev
eVe:__ZNK25FileWebRequest_t59185888521get_connectionGroup_8Ev
F0b:__ZNSt3__26vectorIN9ShaderLab14SerializedPassENS_9allocatorIS2_EEE8__appendEj
Bmk:_PlayableOutputHandle_op_Equality_m388301694
hkg:_Encoding_get_ISOLatin1_m2107621369
fyc:__ZNK16PhysicsManager2D21GetAutoSyncTransformsEv
aJa:__ZNK13ScreenManager21IsMultiDisplayEnabledEv
a2f:__ZN24DESTransform_t408890549918set_keySchedule_16EP22ByteU5BU5D_t4116647657
Qwc:__ZN12b2WheelJoint24SolveVelocityConstraintsERK12b2SolverData
$Jk:__ZL84WaitHandle_t1743403487_CustomAttributesCacheGenerator_WaitHandle_WaitAny_m1809371212P21CustomAttributesCache
svk:__ZL72IntPtr_t_CustomAttributesCacheGenerator_IntPtr_op_Inequality_m3063970704P21CustomAttributesCache
zpb:__ZNK25PathNamePersistentManager30PathIDToFileIdentifierInternalEi
Vhc:__Z33Camera_CUSTOM_RaycastTry_InjectedP12Il2CppObjectRK3Rayfi
DHc:__ZN10Collider2D8TransferI24GenerateTypeTreeTransferEEvRT_
Fue:_BitArrayEnumerator__ctor_m2359341397
eKh:_Enumerator_MoveNext_m1177880931_gshared
i$f:__ZNK29RuntimeTypeHandle_t302751541511get_value_0Ev
mJd:_MonoMethodMessage_System_Runtime_Remoting_Messaging_IInternalMessage_get_TargetIdentity_m929239303
D5i:__ZN30dense_hashtable_const_iteratorINSt3__24pairIK10KeyWrapperIPKcEP11Il2CppClassEES5_N6il2cpp5utils11StringUtils12StringHasherIS4_EEN14dense_hash_mapIS5_S8_SE_NS5_14EqualsComparerINSB_13VmStringUtils21CaseSensitiveComparerEEENS0_9allocatorIS9_EEE9SelectKeyESJ_SL_E30advance_past_empty_and_deletedEv
Hzf:__ZN27NumberFormatInfo_t43587713829set_numberDecimalSeparator_17EP8String_t
gV:__ZN16ScriptingManager27NativeTypeForScriptingClassE17ScriptingClassPtr
Hzh:_UInt64_System_IConvertible_ToDateTime_m3434604642
ewh:_Type_get_IsSerializable_m1040556850
CAk:__ZL55StreamWriter_t1266378904_CustomAttributesCacheGeneratorP21CustomAttributesCache
Jxk:__ZL73MarshalAsAttribute_t3522571978_CustomAttributesCacheGenerator_MarshalTypeP21CustomAttributesCache
v4j:__ZN6il2cpp5utilsL9ReadFloatEPKc
nLa:__ZN8Renderer20RendererAddedToSceneEv
ula:__ZN6Camera23VirtualRedirectTransferER18StreamedBinaryRead
GRb:__ZL22ScheduleSceneNodesJobsP25ScheduleSceneNodesJobDataj
Rh:_emscripten_set_canvas_size
Ixf:_CultureInfo__ctor_m3285927757
Ink:__ZNK35Quaternion_t2301928331_StaticFields24get_identityQuaternion_4Ev
$oc:__ZN9JSONWrite8TransferI13dynamic_arrayI11QuaternionfLj0EEEEvRT_PKc17TransferMetaFlags
XZk:__ZL120SupportedRenderingFeatures_t353898663_CustomAttributesCacheGenerator_U3CrendererSupportsReceiveShadowsU3Ek__BackingFieldP21CustomAttributesCache
Fkf:__ZN30CultureAwareComparer_t3064613917set__ignoreCase_4Eb
yBg:__Z39InternalEnumerator_1_Dispose_m130608859P32InternalEnumerator_1_t3232839231PK10MethodInfo
m0b:__ZNSt3__26vectorIN9ShaderLab20SerializedSubProgramENS_9allocatorIS2_EEE8__appendEj
jN:__ZN20DynamicHeapAllocatorI17LowLevelAllocatorE8AllocateEji
YTc:__ZN11UnityEngine9Analytics15UserCustomEvent12ToJsonStringER9JSONWrite
btg:__ZN31InternalEnumerator_1_t2465572919set_idx_1Ei
NJb:__ZN20DynamicPropertySheet15SetVectorQueuedERKN9ShaderLab16FastPropertyNameERK8Vector4fN19ShaderPropertySheet8SetFlagsE
Lxe:_BigInteger_get_Rng_m3283260184
zVf:_ObjectIDGenerator__ctor_m2117120656
wlj:__ZNSt3__26vectorIN6il2cpp2vm17TypeNameParseInfoENS_9allocatorIS3_EEE7reserveEj
G4h:_TlsStream_Write_m1412844442
p7d:_ConstructorBuilder_get_TypeBuilder_m2755629087
znc:__ZL26Transfer_SimpleNativeClassI9JSONWrite10RectOffsetLb0EEvRK29SerializationCommandArgumentsR31RuntimeSerializationCommandInfo
Q0j:_GC_push_conditional
MPc:__ZN21UnityAnalyticsManager23VirtualRedirectTransferER24GenerateTypeTreeTransfer
cNa:__ZN17GenericDynamicVBO10AllocateVBEjR21DynamicVBOChunkHandle
l1k:__ZL63RaycastHit2D_t2279581989_CustomAttributesCacheGenerator_m_PointP21CustomAttributesCache
Dlf:_DBNull_ToString_m3638608738
qNj:__ZN30dense_hashtable_const_iteratorI10KeyWrapperIP18Il2CppGenericClassES3_N6il2cpp8metadata22Il2CppGenericClassHashEN14dense_hash_setIS3_S6_NS3_14EqualsComparerINS5_25Il2CppGenericClassCompareEEENSt3__29allocatorIS3_EEE8IdentityESA_SD_EppEv
Cue:_BitArray_Clone_m3537018332
Kib:__Z35Transfer_Blittable_FixedBufferFieldI19StreamedBinaryWritexEvRK29SerializationCommandArgumentsR31RuntimeSerializationCommandInfo
OWf:_ObjectRecord_UnchainFixup_m3191243952
D9f:__ZNK25SHA512Managed_t178733633916get_byteCount1_6Ev
r4h:_TlsStream_get_CanWrite_m16389328
_Bb:__Z22TextureIdMapGLES_Alias9TextureIDS_
abc:__Z31Input_CUSTOM_GetMouseButtonDowni
f_i:__ZL25UnresolvedVirtualCall_183P12Il2CppObjectPK10MethodInfo
yHh:__Z58Enumerator_System_Collections_IEnumerator_Reset_m502339360P22Enumerator_t2017297076PK10MethodInfo
Jjb:__Z29Transfer_Blittable_ArrayFieldI19StreamedBinaryWritejEvRT_R9ArrayInfoRK23StaticTransferFieldInfo
JYa:__ZNK9Transform16GetLocalPositionEv
$mg:_EncoderExceptionFallbackBuffer_get_Remaining_m1573636148
d0d:_MonoType_get_BaseType_m1098640416
kUa:__ZN13LoadOperation19IntegrateTimeSlicedEi
O4h:_TlsStream_Read_m3392972801
YDa:__ZN18AsyncUploadManager16QueueUploadAssetEPKcjjjRK18AsyncUploadHandler
Lkg:__ZNK33Encoding_t1523322056_StaticFields30get_utf8EncodingWithMarkers_20Ev
wwb:__ZN13GfxDeviceGLES22DispatchComputeProgramE12ObjectHandleI18ComputeProgram_TagPvE15ComputeBufferIDj
DVi:__Z33KeyValuePair_2_get_Key_m256823211P25KeyValuePair_2_t968067334PK10MethodInfo
KDb:__ZN20DefaultGfxDeviceImpl32InitStereoGlobalsBuffersPlatformEiijPKv
KKk:__ZL77Convert_t2465617642_CustomAttributesCacheGenerator_Convert_ToChar_m1604365259P21CustomAttributesCache
Bog:_Latin1Encoding_GetString_m254210343
TVa:__Z17TransformAABBSlowRK4AABBRK10Matrix4x4fRS_
zme:_Array_combsort_m4052486289
Xz:__ZN24AudioScriptBufferManager27InitialCompleteDomainReloadEv
E8d:__ZN25DynamicMethod_t253777957013set_method_15EP12MonoMethod_t
Q_b:__ZN9ShaderLab21SerializedShaderState8TransferI14SafeBinaryReadEEvRT_
buf:_Environment_GetWindowsFolderPath_m1738399646
ZQh:_Queue_1_System_Collections_Generic_IEnumerableU3CTU3E_GetEnumerator_m2263220760_gshared
w8k:_ftruncate
uve:__ZNK43CaseInsensitiveHashCodeProvider_t196262911912get_m_text_2Ev
Apg:_U3CGetEnumeratorU3Ec__Iterator0_System_Collections_IEnumerator_get_Current_m3208659014_gshared
eah:__ZN30PKCS1_t1505584676_StaticFields15set_emptySHA1_0EP22ByteU5BU5D_t4116647657
Sed:_Module_GetCustomAttributes_m76573271
f1f:_CryptoConfig_EncodeOID_m2635914623
eza:__ZN15SerializeTraitsINSt3__24pairIN4core12basic_stringIcNS2_20StringStorageDefaultIcEEEES6_EEE8TransferI24GenerateTypeTreeTransferEEvRS7_RT_
Nil:b89
Mil:b88
Ahl:b81
c$i:__ZL6add192yyyyyyPyS_S_
MBb:__ZN7ApiGLES19CreateSparseTextureEjj14GraphicsFormatiiiiRiS1_S1_
WV:__ZN18ResourceImageGroup7CleanupEv
XGj:__ZN6il2cpp6icalls8mscorlib6SystemL12AssignSignedIxEEvNS2_17WidenedValueUnionEPv14Il2CppTypeEnumjj
Dhl:b84
Lil:b87
elg:_String_CharCopy_m3838781968
Ep:__ZN11Quaternionf8TransferI24GenerateTypeTreeTransferEEvRT_
lKd:_RemotingSurrogateSelector_GetSurrogate_m3900875713
Fpi:__Z69RuntimeInvoker_Boolean_t97287965_UInt16_t2177724958_Int16_t2552820387PFvvEPK10MethodInfoPvPS4_
X$g:__ZNK45MSCompatUnicodeTable_t1453885583_StaticFields15get_cjkJAlv1_12Ev
Kee:__ZN26X509Certificate_t48924302416set_signature_11EP22ByteU5BU5D_t4116647657
a4b:__Z61RenderTexture_CUSTOM_INTERNAL_CALL_SetRenderTextureDescriptorP12Il2CppObjectRK17RenderTextureDesc
v4i:__ZN15dense_hashtableINSt3__24pairIK10KeyWrapperIPK11Il2CppClassEPKcEES6_N6il2cpp5utils11PointerHashIS3_EEN14dense_hash_mapIS6_S9_SE_NS6_14EqualsComparerINS0_8equal_toIS5_EEEENS0_9allocatorISA_EEE9SelectKeyESJ_SL_EC2ERKSO_j
fj:_glDeleteShader
w8:__ZL57__ManagedRegistrationHelperFunction_ShaderKeywordSetProxyPv
m9:__ZN9Scripting11UnityEngine32UnitySynchronizationContextProxy9InitProxyEv
e4:__ZN6prcoreL17RemapGenericFloatI15TexFormatRGHalf16TexFormatRGFloatEEvPKNS_9InnerInfoE
BDh:_RSAPKCS1SignatureDeformatter_SetHashAlgorithm_m1602190713
$sf:_Enum_System_IConvertible_ToByte_m1219166845
A1g:__ZNK27Level2MapU5BU5D_t397336737914GetAtUncheckedEj
tZc:__ZL61__ManagedRegistrationHelperFunction_VideoAudioOutputModeProxyPv
rug:_InternalEnumerator_1_System_Collections_IEnumerator_Reset_m4239728915_AdjustorThunk
JZf:__ZN47SerializationCallbacks_t2570604627_StaticFields16set_cache_lock_5EP12Il2CppObject
MKf:__ZN28StreamAsyncResult_t78024851215set_completed_1Eb
T3b:__Z27scripting_add_internal_callPKcPKv
iFc:__ZN21b2ContactsCollideTaskD2Ev
MOg:_Enumerator_Dispose_m1360775770_gshared
Zoa:__Z17GetPlayerSettingsv
y0b:__ZNSt3__26vectorIN9ShaderLab20SerializedSubProgram16SamplerParameterENS_9allocatorIS3_EEE6assignIPS3_EENS_9enable_ifIXaasr21__is_forward_iteratorIT_EE5valuesr16is_constructibleIS3_NS_15iterator_traitsISA_E9referenceEEE5valueEvE4typeESA_SA_
o7c:__ZN31OpCodes_t126150456_StaticFields15set_Ldind_I4_73E17OpCode_t123070264
igd:_MonoField_get_FieldHandle_m3729647377
COg:_Enumerator_MoveNext_m1556953412_AdjustorThunk
a5h:__ZN43AuthorityKeyIdentifierExtension_t11226914299set_aki_3EP22ByteU5BU5D_t4116647657
zwa:__ZN13RenderTexture8TransferI24GenerateTypeTreeTransferEEvRT_
hNg:__Z71Enumerator_System_Collections_IDictionaryEnumerator_get_Key_m2502357460P22Enumerator_t3398877024PK10MethodInfo
pIg:__ZNK32InternalEnumerator_1_t249304194811get_array_0Ev
xPf:_StreamWriter_Write_m1660535366
X5j:__ZN6il2cpp2vm9Parameter30GetDefaultParameterValueObjectEPK10MethodInfoPK13ParameterInfoPb
a3k:__ZNK27ContactFilter2D_t380520344117get_useTriggers_0Ev
Eoh:_UTF8Encoding_GetByteCount_m4152118078
avi:__Z71RuntimeInvoker_Void_t1185182177_CustomAttributeNamedArgument_t287865710PFvvEPK10MethodInfoPvPS4_
w9g:_KeyPairPersistence__CanSecure_m3516574278
nke:__ZNK21Hashtable_t185388976611get_table_4Ev
kii:__Z95RuntimeInvoker_Void_t1185182177_RuntimeObject_RuntimeObject_Int32_t2950945753_SByte_t1669577662PFvvEPK10MethodInfoPvPS4_
N5f:_MD5CryptoServiceProvider_Dispose_m3502499818
Cqj:__ZN15dense_hashtableINSt3__24pairIK10KeyWrapperINS1_IPK9FieldInfoP11Il2CppClassEEEjEES9_17ReflectionMapHashIS8_EN14dense_hash_mapIS9_jSD_NS9_14EqualsComparerINS0_8equal_toIS8_EEEENS0_9allocatorISB_EEE9SelectKeyESI_SK_E21fill_range_with_emptyEPSB_SO_
Wkh:_Array_InternalArray__set_Item_TisRaycastHit2D_t2279581989_m3076882241_gshared
Kod:__ZN20GCHandle_t335143818712set_handle_0Ei
eua:__ZN12LightManager28IsLightTransformDataUpToDateEPK5Light
e1g:__ZN26SimpleCollator_t287783472916set_frenchSort_3Eb
oKg:__Z44InternalEnumerator_1_get_Current_m1655128652P32InternalEnumerator_1_t3186646106PK10MethodInfo
qwk:__ZL74RuntimeArray_CustomAttributesCacheGenerator_Array_BinarySearch_m3171087170P21CustomAttributesCache
Rvk:__ZL72Enum_t4135868527_CustomAttributesCacheGenerator_Enum_ToObject_m122225012P21CustomAttributesCache
sHe:_SecurityParameters_get_ServerWriteMAC_m3430427271
ZMd:_ObjRef_GetObjectData_m270012899
u1k:__ZL68g_UnityEngine_StandardEvents_Assembly_CustomAttributesCacheGeneratorP21CustomAttributesCache
Fqg:_ArrayReadOnlyList_1_RemoveAt_m2104218585_gshared
gcg:__Z25Il2CppCodeGenWriteBarrierI26X509Certificate_t489243024EvPPT_S2_
_4c:__Z37il2cpp_codegen_marshal_allocate_arrayIhEPT_j
vfh:_Array_InternalArray__IEnumerable_GetEnumerator_TisParameterModifier_t1461694466_m3675077728_gshared
NEc:__ZN35b2InitializeVelocityConstraintsTaskD2Ev
iqb:__Z19scripting_gc_enablev
zJg:_InternalEnumerator_1_get_Current_m2907722321_gshared
FEb:__ZZ23InitPlayerLoopCallbacksvEN41InitializationPlayerUpdateTimeRegistrator7ForwardEv
zXb:__Z29StdTemplateConversionFunctionIihEbPvR14SafeBinaryRead
avh:_TimeSpan_Subtract_m1264203589_AdjustorThunk
$Ed:__ZNK28ConstructionCall_t401159474528get__activationAttributes_13Ev
wBc:__ZN19OverlapPointQuery2D14InitializeAABBER6b2AABB
_ai:__ZNK19X509Crl_t114876738816get_nextUpdate_3Ev
vib:__Z18Transfer_BlittableI19StreamedBinaryWriteLb0EN4math12int2_storageEEvRK29SerializationCommandArgumentsR31RuntimeSerializationCommandInfo
Ugb:__ZL26Transfer_SimpleNativeClassI24GenerateTypeTreeTransfer8GradientLb0EEvRK29SerializationCommandArgumentsR31RuntimeSerializationCommandInfo
F$j:_GC_should_collect
l5a:__ZN9GfxDevice22UploadTextureCubeArrayE9TextureIDPKhjii14GraphicsFormati18TextureUploadFlags
Hxg:_InternalEnumerator_1_System_Collections_IEnumerator_get_Current_m888718134_gshared
Bgi:__Z175RuntimeInvoker_Void_t1185182177_SByte_t1669577662_SByte_t1669577662_SByte_t1669577662_SByte_t1669577662_SByte_t1669577662_SByte_t1669577662_SByte_t1669577662_SByte_t1669577662PFvvEPK10MethodInfoPvPS4_
SQk:__ZL62NativeTypeAttribute_t2250406315_CustomAttributesCacheGeneratorP21CustomAttributesCache
tlk:_Object_Destroy_m3118546832
wug:__ZNK32InternalEnumerator_1_t33081210259get_idx_1Ev
Pmf:_DateTime_FromTicks_m4059645178_AdjustorThunk
fxf:__ZNK20Calendar_t166112156916get_M_EraNames_3Ev
_lh:_Array_InternalArray__get_Item_TisClientCertificateType_t1004704908_m2297379651_gshared
Cud:_ConfigHandler_ParseTime_m1787834288
Nt:__ZN15PackedIntVector8TransferI19StreamedBinaryWriteEEvRT_
ZZc:__ZN9Scripting11UnityEngine5Video25VideoAudioOutputModeProxy12CleanupProxyEv
j3d:_Assembly_Load_m3487507613
ncl:dynCall_viiiifii
Tyj:__ZN6il2cpp2gc19AppendOnlyGCHashMapINSt3__24pairIPK11Il2CppImageP11Il2CppClassEEP22Il2CppReflectionModule17ReflectionMapHashIS9_ENS2_8equal_toIS9_EEEC2Ev
C9d:__ZNK24FieldBuilder_t262704999311get_attrs_0Ev
oT:__Z20GetPersistentManagerv
tbj:__ZNK24dense_hashtable_iteratorINSt3__24pairIK10KeyWrapperIPK19Il2CppGenericMethodEPK26Il2CppGenericMethodIndicesEES6_N6il2cpp8metadata23Il2CppGenericMethodHashEN14dense_hash_mapIS6_SA_SE_NS6_14EqualsComparerINSD_26Il2CppGenericMethodCompareEEENS0_9allocatorISB_EEE9SelectKeyESI_SK_EdeEv
IO:__ZN21SystemInfoStringCache16StaticInitializeEPv
SKk:__ZL80Convert_t2465617642_CustomAttributesCacheGenerator_Convert_ToDecimal_m1695757674P21CustomAttributesCache
BTj:__ZN6il2cpp2gc16GarbageCollector23MakeDescriptorForObjectEPji
mPj:__ZNK10KeyWrapperIP12Il2CppObjectE14EqualsComparerINSt3__28equal_toIS1_EEEclERKS2_S9_
R$b:__ZNSt3__26vectorIN9ShaderLab20SerializedSubProgram15StructParameterENS_9allocatorIS3_EEE6assignIPS3_EENS_9enable_ifIXaasr21__is_forward_iteratorIT_EE5valuesr16is_constructibleIS3_NS_15iterator_traitsISA_E9referenceEEE5valueEvE4typeESA_SA_
cAd:__ZN23GenericVirtFuncInvoker0I19TimeSpan_t881159249E6InvokeEPK10MethodInfoP12Il2CppObject
Snb:__ZNK13MonoBehaviour7GetNameEv
mPf:__ZNK24StreamWriter_t126637890420get_preamble_done_10Ev
byd:_SynchronizedClientContextSink_AsyncProcessMessage_m3574843998
ex:__Z15_CheckFMODError11FMOD_RESULTPKciS1_
C8i:__ZNK15dense_hashtableI10KeyWrapperIPK19Il2CppGenericMethodES4_N6il2cpp8metadata23Il2CppGenericMethodHashEN14dense_hash_setIS4_S7_NS4_14EqualsComparerINS6_26Il2CppGenericMethodCompareEEENSt3__29allocatorIS4_EEE8IdentityESB_SE_E4sizeEv
v4f:_HMAC_KeySetup_m661741544
dJg:_InternalEnumerator_1_get_Current_m1506120701_gshared
LKk:__ZL77Convert_t2465617642_CustomAttributesCacheGenerator_Convert_ToChar_m3178343373P21CustomAttributesCache
okg:_Latin1Encoding__ctor_m498920120
Acd:__ZNK27UnmanagedMarshal_t98401568715get_param_num_7Ev
kRh:__ZNK19Stack_1_t392349561914get__version_2Ev
rib:__Z18Transfer_BlittableI19StreamedBinaryWriteLb0EN4math12int3_storageEEvRK29SerializationCommandArgumentsR31RuntimeSerializationCommandInfo
xOf:_StreamReader_Peek_m2272511193
jSi:__ZN46AudioExtensionManager_t3220897493_StaticFields32set_m_SpatializerExtensionName_7E24PropertyName_t3749835189
ICf:_DateTimeFormatInfo_FillAllDateTimePatterns_m2683124783
Evg:__Z69InternalEnumerator_1_System_Collections_IEnumerator_Reset_m1256724261P31InternalEnumerator_1_t587985571PK10MethodInfo
eWd:_NumberFormatter_get_IsFloatingSource_m3714711779
r2k:__ZL67FieldWithTarget_t3058750293_CustomAttributesCacheGenerator_m_TargetP21CustomAttributesCache
wTf:__ZN29MetadataReference_t407787366014set_Metadata_0EP24TypeMetadata_t2187352167
Efg:__ZNK28SecurityException_t97554447315get__granted_13Ev
Wwh:_Type_GetConstructor_m1195697116
ti:_glBeginQuery
CXk:__ZL99RenderTextureDescriptor_t1974534975_CustomAttributesCacheGenerator_U3CmsaaSamplesU3Ek__BackingFieldP21CustomAttributesCache
cLc:__ZN10Effector2D25CheckEffectorColliderMaskEP10Collider2DS1_
BGb:__ZN6Camera12RenderStereoENS_10RenderFlagE8CullFlagPNS_24PerformEyeRenderFunctionE
Y_a:__ZN20LocalFileSystemPosix10ToAbsoluteEPKc
hFi:__ZN30Regex_t3657309853_StaticFields11set_cache_0EP24FactoryCache_t2327118887
$Va:__Z23CollectSceneGameObjectsR13dynamic_arrayIiLj0EE
OYj:__ZN6il2cpp2vm13ComObjectBase16DisconnectObjectEj
fFh:_GenericComparer_1__ctor_m3652072706_gshared
km:f0
Dga:__ZN9BehaviourD0Ev
f7k:_getcwd
$yc:__ZN16b2CapsuleContact6CreateEP9b2FixtureiS1_iP16b2BlockAllocator
Vcj:__ZNSt3__26__treeINS_12__value_typeIP11Il2CppClassS3_EENS_19__map_value_compareIS3_S4_NS_4lessIS3_EELb1EEENS_9allocatorIS4_EEE13__lower_boundIS3_EENS_15__tree_iteratorIS4_PNS_11__tree_nodeIS4_PvEEiEERKT_SH_PNS_15__tree_end_nodeIPNS_16__tree_node_baseISF_EEEE
Iha:__ZN25ThreadsafeLinearAllocatorD2Ev
Kbe:_ILGenerator_Emit_m3083135129
Ufc:__ZL50GetAndClearChangedTransformsForMultilpleSystemsJobP45GetChangedTransformsForMultipleSystemsJobDatajPK23TransformAccessReadOnlyPKyj
bVa:__Z21SendMessageToEveryoneRK17MessageIdentifier11MessageData
MZ:__ZN21BillboardBatchManager16StaticInitializeEPv
fgf:_DateTime_AbsoluteDays_m4235097773
$Q:__ZN12_GLOBAL__N_138ArchiveRedirectFileSystemStaticDestroyEPv
gxk:__ZL126U3CGetEnumeratorU3Ec__Iterator0_t1202911786_CustomAttributesCacheGenerator_U3CGetEnumeratorU3Ec__Iterator0_Dispose_m2078994225P21CustomAttributesCache
Kbi:__Z74RuntimeInvoker_RuntimeObject_RuntimeObject_RuntimeObject_SByte_t1669577662PFvvEPK10MethodInfoPvPS4_
qxk:__ZL69Type_t_CustomAttributesCacheGenerator_Type_GetConstructor_m1195697116P21CustomAttributesCache
vel:_emscripten_glLoadIdentity__wrapper
hVg:__ZN24Dictionary_2_t144469424911set_table_4EP22Int32U5BU5D_t385246372
M3k:_Physics2D_Raycast_m1407159225
RAk:__ZL94EnumBuilder_t2400448213_CustomAttributesCacheGenerator_EnumBuilder_GetConstructors_m3294436155P21CustomAttributesCache
mwi:__Z55RuntimeInvoker_TableRange_t3332867892_Int32_t2950945753PFvvEPK10MethodInfoPvPS4_
rEg:_InternalEnumerator_1_MoveNext_m1020308708_gshared
efj:__ZN39AnalyticsEvent_t4058973021_StaticFields18set_k_SdkVersion_0EP8String_t
LBb:__Z23CreateSparseTextureGLES9TextureIDii14GraphicsFormati
F3i:__ZN6il2cpp2vmL33resolve_generic_instance_internalERKNS0_17TypeNameParseInfoEP11Il2CppClassRNSt3__26vectorIPK10Il2CppTypeNS6_9allocatorISA_EEEEb
F1j:_GC_continue_reclaim
_Bc:__Z18AddCollisionReportP11Collision2DR13dynamic_arrayINS_15CollisionReportELj0EE
Nwf:_CCMath_mod_m3631663509
_uh:_TimeSpan_Negate_m1889505500_AdjustorThunk
$8g:__ZNK24CspParameters_t23985263918get_ProviderName_3Ev
lVj:__ZN6il2cpp2os10ThreadImpl10APCRequestC2EPFvPvES3_
t2a:__ZN16MemoryFileSystemD0Ev
fOi:_AnalyticsEventTracker_Awake_m2780522130
tHe:__ZN23CipherSuite_t341474457517set_serverHMAC_20EP29KeyedHashAlgorithm_t112861511
F0k:__ZL101Physics2D_t1528932956_CustomAttributesCacheGenerator_Physics2D_GetRayIntersectionNonAlloc_m2525277886P21CustomAttributesCache
$vc:__ZNK12b2MotorJoint16GetReactionForceEf
Xdj:__ZN6il2cpp2vm13MetadataCache37GetParameterDefaultValueDataFromIndexEi
sNi:__ZN24EventTrigger_t252745169519set_m_Repetitions_8Ei
a$c:__ZN9Scripting11UnityEngine12Experimental2XR19ReferencePointProxy12CleanupProxyEv
vmi:__Z50RuntimeInvoker_SByte_t1669577662_SByte_t1669577662PFvvEPK10MethodInfoPvPS4_
X1i:__ZN6il2cpp2vm5Class15GetEnumBaseTypeEP11Il2CppClass
AKe:_Context_set_WriteSequenceNumber_m942577065
il:_glVertexAttrib4fv
oZj:__ZNK6il2cpp5utils13VmStringUtils23CaseInsensitiveComparerclERKNSt3__212basic_stringIcNS3_11char_traitsIcEENS3_9allocatorIcEEEEPKc
hUj:__ZN6il2cpp5utils13dynamic_arrayIPNS_2os6ThreadELj4EEC2Ev
mIi:__ZNK27Uri_t100236324_StaticFields22get_UriSchemeMailto_23Ev
uFa:__ZNK9Texture2D16GetNpotTexelSizeEv
k1d:_NumberFormatter_Init_m3576155222
U$a:__ZL33FileEntryInfoListToFolderContentsRKN4core12basic_stringIcNS_20StringStorageDefaultIcEEEERK19dynamic_block_arrayI13FileEntryInfoLj32EERNSt3__23setIS3_NSB_4lessIS3_EENSB_9allocatorIS3_EEEE
Xse:_ArrayListWrapper_IndexOf_m3692065720
gJg:_InternalEnumerator_1_System_Collections_IEnumerator_get_Current_m2102877703_AdjustorThunk
aBh:__ZN23InterfaceActionInvoker1IP39UnhandledExceptionEventArgs_t2886101344E6InvokeEjP11Il2CppClassP12Il2CppObjectS1_
NUi:_Array_InternalArray__get_Item_TisX509ChainStatus_t133602714_m2237651489_gshared
Tbj:__ZL30GetImageForTypeDefinitionIndexi
DIe:__ZNK26SslCipherSuite_t198164574711get_pad1_21Ev
E0g:__ZN45MSCompatUnicodeTable_t1453885583_StaticFields20set_cjkCHScategory_6EPh
k4a:__ZN9GfxDevice22GetDefaultVertexBufferE26GfxDefaultVertexBufferTypej
jdh:_Array_InternalArray__ICollection_Contains_TisInt64_t3736567304_m2911357929_gshared
nrb:__Z17BeginSplashScreenb
C7k:___fseeko_unlocked
deg:__ZNK27SecurityElement_t10460760919get_tag_1Ev
N1d:_Object_ToString_m1740002499
s7k:_sscanf
mUj:__ZNK6il2cpp5utils13dynamic_arrayIPNS_2os6ThreadELj4EE8capacityEv
fPa:__ZN14SafeBinaryRead21TransferSTLStyleArrayINSt3__26vectorI17BlendShapeChannelNS1_9allocatorIS3_EEEEEEvRT_17TransferMetaFlags
GKb:__ZN29RenderNodeQueuePrepareContextD2Ev
j0f:_SByte_ToString_m3584531119_AdjustorThunk
fBa:__ZN10SpriteBone8TransferI24GenerateTypeTreeTransferEEvRT_
oMe:__ZN19Context_t397123470720set_serverWriteIV_26EP22ByteU5BU5D_t4116647657
XVi:_SessionStateChanged_BeginInvoke_m1132835327
oif:_Convert_ToInt32_m1876369743
mye:_ModulusRing__ctor_m2420310199
xgf:_Convert_ToDateTime_m626620011
yKa:__ZN18StreamedBinaryRead21TransferSTLStyleArrayI13dynamic_arrayI26EnlightenSystemInformationLj0EEEEvRT_17TransferMetaFlags
uPg:_Enumerator_System_Collections_IDictionaryEnumerator_get_Key_m2500634048_AdjustorThunk
mqa:__ZN12SharedObjectI19ShaderPropertySheetLb1E27SharedObjectDeleteReleaseOpIS0_EE5ResetEv
UBj:__ZN14dense_hash_mapI10KeyWrapperIP11Il2CppClassES2_N6il2cpp8metadata16SZArrayClassHashENS3_14EqualsComparerINS5_19SZArrayClassCompareEEENSt3__29allocatorINSA_4pairIKS3_S2_EEEEE15set_deleted_keyERSD_
Gbl:dynCall_vdd
PLh:_List_1_Remove_m3037048099_gshared
lzb:__ZN18GfxFramebufferGLES18GetFramebufferNameERK20GfxRenderTargetSetup
QRb:__Z23CullDynamicObjectsUmbraPK4AABBPKN5Umbra15OcclusionBufferER9IndexList
l1j:_GC_print_block_list
ulj:__ZN6il2cpp2vm14TypeNameParser12ParseVersionERKNSt3__212basic_stringIcNS2_11char_traitsIcEENS2_9allocatorIcEEEERtSB_SB_SB_
kLj:__ZNK30dense_hashtable_const_iteratorINSt3__24pairIK10KeyWrapperINS1_IPKcS4_EEEiEES6_24NamespaceAndNamePairHashN14dense_hash_mapIS6_iS9_NS6_14EqualsComparerI26NamespaceAndNamePairEqualsEENS0_9allocatorIS8_EEE9SelectKeyESD_SF_EneERKSI_
z0:__ZN13PlayableGraph27SchedulePlayableDestructionERK9HPlayable
Vil:_glGetFramebufferAttachmentParameteriv__wrapper
prd:_ChannelServices_GetCurrentChannelInfo_m3041604116
Oad:__Z29il2cpp_codegen_marshal_stringP8String_t
iKg:_InternalEnumerator_1__ctor_m2635640285_AdjustorThunk
okf:_Convert_ToUInt64_m786726853
Rdg:_Hash__ctor_m2891763106
QPf:_SynchronizedReader_Peek_m148942882
ufi:__Z95RuntimeInvoker_Void_t1185182177_RuntimeObject_Int32_t2950945753_Int32_t2950945753_RuntimeObjectPFvvEPK10MethodInfoPvPS4_
pXh:_Predicate_1_Invoke_m2308795536_gshared
VAa:__ZN14SafeBinaryRead20TransferTypelessDataEjPvi
xNa:__ZN14SpriteRenderer18UpdateCachedSpriteEb
xMd:__ZNK29SoapTypeAttribute_t175093081713get__isType_8Ev
nTj:__ZN15dense_hashtableINSt3__24pairIK10KeyWrapperIPcES3_EES4_N6il2cpp5utils15PassThroughHashIS3_EEN14dense_hash_mapIS4_S3_SA_NS4_14EqualsComparerINS0_8equal_toIS3_EEEENS0_9allocatorIS6_EEE9SelectKeyESF_SH_E3endEv
JAj:__ZNK6il2cpp2gc9AllocatorIP12Il2CppThreadE8max_sizeEv
Htc:__ZN9Scripting11UnityEngine19ParticleSystemProxy9InitProxyEv
Ooa:__Z19GetActiveColorSpacev
Afg:__ZNK28SecurityException_t97554447322get_permissionState_11Ev
O6:__ZL54__ManagedRegistrationHelperFunction_RenderTextureProxyPv
Cfd:_MonoMethodInfo_GetDeclaringType_m2924452727
Sal:dynCall_fii
GP:__Z6StrCmpPKcS0_
thh:_Array_InternalArray__ICollection_Add_TisByte_t1134296376_m2816118303_gshared
L3b:__Z21CheckGpuProgramUsable20ShaderGpuProgramType
P6b:__ZN13ProduceHelperI14Texture2DArrayLb0EE7ProduceE10MemLabelId18ObjectCreationMode
GVj:__ZN6il2cpp2os9Directory20GetFileSystemEntriesERKNSt3__212basic_stringIcNS2_11char_traitsIcEENS2_9allocatorIcEEEESA_iiPi
mle:_Array_System_Collections_IList_Add_m1063688101
SJi:__ZNK27Uri_t100236324_StaticFields14get_schemes_28Ev
fde:__ZN18PKCS12_t410153306012set__certs_4EP37X509CertificateCollection_t1542168549
Ghj:__ZN6il2cpp6icalls8mscorlib6SystemL12GetFieldImplINS_5utils10functional6FilterINSt3__212basic_stringIcNS7_11char_traitsIcEENS7_9allocatorIcEEEENS4_13VmStringUtils23CaseInsensitiveComparerEEEEEP21Il2CppReflectionFieldP11Il2CppClassiRKT_
DOb:__ZNK15SharedLightData24GetFinalShadowResolutionEv
XBi:_PatternCompiler_EmitAlternationEnd_m2444359097
icc:__ZN10GameObject14CopyPropertiesERS_
Ydh:_Array_InternalArray__ICollection_Remove_TisLink_t544317964_m1280781374_gshared
oVj:__ZNSt3__214__split_bufferIN6il2cpp2os10ThreadImpl10APCRequestERNS_9allocatorIS4_EEEC2EjjS7_
uuf:__ZN24StreamReader_t400993589913set_decoder_8EP19Decoder_t2204182725
Rne:_BitConverter_DoubleWordsAreSwapped_m1474345095
Rsi:__Z114RuntimeInvoker_Int32_t2950945753_Vector2_t2156229523_Vector2_t2156229523_ContactFilter2D_t3805203441_RuntimeObjectPFvvEPK10MethodInfoPvPS4_
nte:_FixedSizeArrayListWrapper_set_Capacity_m4221053039
_7k:_rand
xjl:_emscripten_glFramebufferRenderbuffer__wrapper
Xec:__ZN13MeshScripting10CreateMeshE21ScriptingObjectOfTypeI4MeshE
nRd:__ZNK27BinaryFormatter_t319775320218get_filter_level_5Ev
Tdl:b37
qri:__Z56RuntimeInvoker_Void_t1185182177_PropertyName_t3749835189PFvvEPK10MethodInfoPvPS4_
gdb:__ZN14SafeBinaryRead21TransferSTLStyleArrayINSt3__26vectorI17AnimationCurveTplIfE13stl_allocatorIS4_L18MemLabelIdentifier1ELi16EEEEEEvRT_17TransferMetaFlags
Wte:_SynchronizedArrayListWrapper_Contains_m3809499313
nZi:__ZL25UnresolvedVirtualCall_137P12Il2CppObjectsaaaPK10MethodInfo
jeh:_Array_InternalArray__ICollection_Remove_TisLabelData_t360167391_m3556246844_gshared
u0:__ZN17DirectorFrameTime14ResetDSPValuesEv
Ptj:__ZN15dense_hashtableINSt3__24pairIK10KeyWrapperINS1_IPK11Il2CppImageP11Il2CppClassEEEjEES9_17ReflectionMapHashIS8_EN14dense_hash_mapIS9_jSD_NS9_14EqualsComparerINS0_8equal_toIS8_EEEENS0_9allocatorISB_EEE9SelectKeyESI_SK_E12expand_arrayEjN21dense_hash_map_traits17integral_constantIbLb0EEE
Nxe:__ZN35BigInteger_t2902905090_StaticFields9set_rng_3EP32RandomNumberGenerator_t386037858
zag:_SymmetricAlgorithm_set_IV_m3196220308
aRb:__Z22PrepareOptimizedPlanesPK5PlaneiPKN4math7_float4E
dxg:_InternalEnumerator_1__ctor_m1559487635_gshared
aL:__ZN11UnityEngine15CloudWebService17WebFileDownloaderINS0_20WebRequestRestClientENS0_23WebRequestRestHeaderMapEE10InitializeERKN4core12basic_stringIcNS5_20StringStorageDefaultIcEEEE
KZ:__ZN17UniqueIDGenerator15CreatePureIndexEv
ree:__ZN26X509Certificate_t48924302413set_decoder_0EP16ASN1_t2114160832
Yug:__Z40InternalEnumerator_1_Dispose_m2342933386P32InternalEnumerator_1_t3437281436PK10MethodInfo
L_c:__ZL54__ManagedRegistrationHelperFunction_TrackingStateProxyPv
_Qk:__ZL64UnmarshalledAttribute_t1517743549_CustomAttributesCacheGeneratorP21CustomAttributesCache
h6b:__Z48InitializeRectTransformAnimationBindingInterfacev
M0i:__ZN15dense_hashtableINSt3__24pairIK10KeyWrapperIPK22Il2CppGenericParameterEP11Il2CppClassEES6_N6il2cpp5utils11PointerHashIS4_EEN14dense_hash_mapIS6_S9_SE_NS6_14EqualsComparerINS0_8equal_toIS5_EEEENS0_9allocatorISA_EEE9SelectKeyESJ_SL_E14squash_deletedEv
uxa:__ZN9ShaderLabL27GetDesiredRenderTextureDescEPK6Camera
UIg:_InternalEnumerator_1_get_Current_m1523142935_AdjustorThunk
vxc:__ZNK12b2MouseJoint17GetReactionTorqueEf
Pjh:_Array_InternalArray__Insert_TisMark_t3471605523_m2854535880_gshared
tva:__ZN13RenderTexture21FixInvalidDescOptionsER17RenderTextureDesc
TRg:__ZN26ShimEnumerator_t144141504621set_host_enumerator_0E22Enumerator_t3398877024
jJd:_MethodReturnDictionary__cctor_m278392388
EIb:__ZNK9Transform18TransformDirectionERK8Vector3f
W1h:_SslStreamBase_get_CanWrite_m1622082918
G0a:__ZNK17ArchiveFileSystem12GetAssetGUIDERK13FileEntryData
HNd:__ZN46RemotingConfiguration_t4113740665_StaticFields23set_defaultConfigRead_3Eb
gHk:__ZL47HMAC_t2621101144_CustomAttributesCacheGeneratorP21CustomAttributesCache
b6g:_PrimalityTests_RabinMillerTest_m1471415870
jSj:___cxx_global_var_init_11387
UIh:_Enumerator_MoveNext_m2114485647_gshared
yae:_GenericTypeParameterBuilder_GetCustomAttributes_m580748276
Neg:__ZN27WindowsIdentity_t294824240611set__type_1EP8String_t
ZOi:_AnalyticsTracker_get_TP_m2800669040
TXf:__ZNK24ObjectReader_t194095739218get__filterLevel_3Ev
yrh:__ZN18VirtActionInvoker2IP12Il2CppObjectbE6InvokeEjS1_S1_b
$Oc:__GLOBAL__sub_I_External_Yoga_Yoga_0_cpp
wye:_Kernel_LeftShift_m4140742987
T2d:_Assembly_GetManifestResourceInternal_m1224391897
xpa:__Z30AddDefaultStreamsToMeshBuffersR9GfxDeviceR11MeshBuffersj17ShaderChannelMaskS3_
wQ:__ZL16GetInterfaceImpl18UnityInterfaceGUID
qH:__ZNSt3__27__sort4IR14SortByHashPredI13FileEntryInfoN11UnityEngine15CloudWebService14DataDispatcher6HasherEEPS2_EEjT0_SA_SA_SA_T_
_Yj:__ZN6il2cpp6icalls8mscorlib6System15MonoCustomAttrs27GetCustomAttributesInternalEP12Il2CppObjectP20Il2CppReflectionTypeb
zb:invoke_viifi
O3c:__Z25Il2CppCodeGenWriteBarrierI21Hashtable_t1853889766EvPPT_S2_
lYj:___cxx_global_var_init_11733
zIh:__ZN22Enumerator_t36491843299set_ver_2Ei
LWe:__Z25Il2CppCodeGenWriteBarrierI24ServicePoint_t2786966844EvPPT_S2_
h0h:_InternalAsyncResult_get_FromWrite_m4228047810
gji:__Z53RuntimeInvoker_MonoEventInfo_t346866618_RuntimeObjectPFvvEPK10MethodInfoPvPS4_
Urb:__ZN14PreloadManager35WaitForAllAsyncOperationsToCompleteEv
hEh:__ZN28RijndaelTransform_t6312222419set_Nr_15Ei
GR:__ZNSt3__26__treeINS_12__value_typeIPKc11ShaderTagIDEENS_19__map_value_compareIS3_S5_27compare_tstring_insensitiveIS3_ELb1EEENS_9allocatorIS5_EEE7destroyEPNS_11__tree_nodeIS5_PvEE
zS:__ZNK18ScriptingObjectPtr17ToScriptingStringEv
Flg:__ZNK20Encoding_t152332205622get_encoder_fallback_4Ev
ax:__ZL31InitializeAudioScriptingClassesv
sUe:__ZN34TypeConverterAttribute_t327158442920set_converter_type_1EP8String_t
ZHb:__Z14SortGUIByDepthP10GUIElementS0_
Kmb:__Z19TransferField_ArrayI18StreamedBinaryRead16Converter_StringEvRK23StaticTransferFieldInfoR31RuntimeSerializationCommandInfoRT0_
ULi:__ZNK37AesTransform_t2957123611_StaticFields10get_iT1_23Ev
xoi:__Z69RuntimeInvoker_UInt32_t2560061978_Int32_t2950945753_SByte_t1669577662PFvvEPK10MethodInfoPvPS4_
vKi:_UriParser__cctor_m3655686731
nfd:_TargetInvocationException__ctor_m3011316584
R8f:__ZNK37SHAConstants_t1360924992_StaticFields8get_K2_1Ev
Yal:dynCall_ii
y2g:__ZNK25SortKeyBuffer_t294527527013get_source_16Ev
y$a:__ZNK20LocalFileSystemPosix21GetAvailableDiskSpaceEPKcRy
Xu:__ZNSt3__26__treeIiNS_4lessIiEENS_9allocatorIiEEE7destroyEPNS_11__tree_nodeIiPvEE
E6c:__ZN31OpCodes_t126150456_StaticFields13set_Ldc_R8_35E17OpCode_t123070264
X3a:__ZNK9GfxDevice14GetWorldMatrixEv
tpa:__Z30ExtractMeshBuffersAndDrawRangeR11MeshBuffersR16DrawBuffersRangeRK9GfxDeviceRK17MeshRenderingData16VertexInputMasksib
mWi:_RemoteConfigSettings_t1247263429_marshal_pinvoke
DWb:__ZNSt3__227__insertion_sort_incompleteIRPFbPK35RegisterRuntimeInitializeAndCleanupS3_EPPS1_EEbT0_S9_T_
fUi:_AudioSampleProvider_InternalSetScriptingPtr_m3742743270
_8:__Z19scripting_array_new17ScriptingClassPtrjj
Mwi:__Z60RuntimeInvoker_PlayerLoopSystem_t105772105_Int32_t2950945753PFvvEPK10MethodInfoPvPS4_
zxj:__ZNK30dense_hashtable_const_iteratorINSt3__24pairIK10KeyWrapperIPK14Il2CppAssemblyEPK22Il2CppMonoAssemblyNameEES6_N6il2cpp5utils11PointerHashIS4_EEN14dense_hash_mapIS6_SA_SF_NS6_14EqualsComparerINS0_8equal_toIS5_EEEENS0_9allocatorISB_EEE9SelectKeyESK_SM_EneERKSP_
Pie:__ZNK25SmallXmlParser_t97378783918get_resetColumn_11Ev
aZa:__Z30CreateBoxedObjectFromPrimitivei
lrh:_WaitCallback_BeginInvoke_m3012509827
RPf:__ZNK30SynchronizedReader_t116311577512get_reader_1Ev
u0b:__ZNSt3__26vectorIN9ShaderLab20SerializedSubProgram16TextureParameterENS_9allocatorIS3_EEE6assignIPS3_EENS_9enable_ifIXaasr21__is_forward_iteratorIT_EE5valuesr16is_constructibleIS3_NS_15iterator_traitsISA_E9referenceEEE5valueEvE4typeESA_SA_
e_:__Z30CreateBoxedObjectFromPrimitiveb
A9i:__ZN13Il2CppHashMapIN6il2cpp5utils13dynamic_arrayIPK10Il2CppTypeLj4EEEPFvvENS0_8metadata19Il2CppSignatureHashENS9_22Il2CppSignatureCompareENSt3__29allocatorINSC_4pairIK10KeyWrapperIS6_ES8_EEEEEC2EjRKSA_RKSB_
I0k:__ZL104Physics2D_t1528932956_CustomAttributesCacheGenerator_Physics2D_GetRayIntersectionAll_Internal_m643548862P21CustomAttributesCache
Wfi:__Z122RuntimeInvoker_Void_t1185182177_RuntimeObject_RuntimeObject_ContractionU5BU5DU26_t2277527001_Level2MapU5BU5DU26_t359320357PFvvEPK10MethodInfoPvPS4_
Vxj:__ZN15dense_hashtableINSt3__24pairIK10KeyWrapperIPK22Il2CppGenericParameterEPK24MonoGenericParameterInfoEES6_N6il2cpp5utils11PointerHashIS4_EEN14dense_hash_mapIS6_SA_SF_NS6_14EqualsComparerINS0_8equal_toIS5_EEEENS0_9allocatorISB_EEE9SelectKeyESK_SM_E15set_deleted_keyERKSB_
h0f:_SByte_TryParse_m2431806379
j6i:__ZNK15dense_hashtableINSt3__24pairIK10KeyWrapperIP9FieldInfoEiEES5_N6il2cpp5utils11PointerHashIS3_EEN14dense_hash_mapIS5_iSB_NS5_14EqualsComparerINS0_8equal_toIS4_EEEENS0_9allocatorIS7_EEE9SelectKeyESG_SI_E8min_sizeEjj
bNk:__ZL64ObjectDisposedException_t21392786_CustomAttributesCacheGeneratorP21CustomAttributesCache
pdb:__ZN14SafeBinaryRead21TransferSTLStyleArrayI13dynamic_arrayI12PropertyNameLj0EEEEvRT_17TransferMetaFlags
FBi:_PatternCompiler_EmitSub_m193323684
t3f:_DSACryptoServiceProvider_get_KeySize_m786836990
Rwc:__ZN12b2WheelJoint24SolvePositionConstraintsERK12b2SolverData
ve:_emscripten_exit_fullscreen
MGh:_Enumerator_System_Collections_IEnumerator_Reset_m1564381721_gshared
n6b:__ZZL31RegisterRectTransformPropertiesR22GenericPropertyBindingEN39Wrapper_RectTransformAnchoredPositiony113GetFloatValueEPv
B1d:_Object_MemberwiseClone_m1474068832
Fnk:__ZN22Quaternion_t23019283317set_w_3Ef
YTj:__ZN6il2cpp6icalls8mscorlib6System6String19InternalAllocateStrEi
csc:__Z29Transfer_Blittable_ArrayFieldI8JSONRead11QuaternionfEvRT_R9ArrayInfoRK23StaticTransferFieldInfo
f$a:__ZN20LocalFileSystemPosix8SetFlagsER13FileEntryDatajj
hic:__Z45Register_UnityEngine_Camera_get_targetDisplayv
W9b:__ZNK24RendererAnimationBinding15GenerateBindingERKN4core12basic_stringIcNS0_20StringStorageDefaultIcEEEEbRN11UnityEngine9Animation14GenericBindingE
tYe:_IPv6Address__ctor_m3704187391
ZHh:__Z34Enumerator_VerifyState_m2933667029P22Enumerator_t2146457487PK10MethodInfo
cua:__Z15GetFlareManagerv
Occ:__ZN15ApplicationInfo24GetApplicationIdentifierEv
Ycf:__ZNK17Stack_t232966228014get_contents_0Ev
Slc:__GLOBAL__sub_I_InputScriptingClasses_cpp
Thh:_Array_InternalArray__ICollection_Add_TisResourceCacheItem_t51292791_m3851804827_gshared
o5k:___toread
Dpb:__ZNSt3__26vectorI10vector_mapIiiNS_4lessIiEE13stl_allocatorINS_4pairIiiEEL18MemLabelIdentifier38ELi16EEES4_IS9_LS7_38ELi16EEE26__swap_out_circular_bufferERNS_14__split_bufferIS9_RSA_EE
hBe:__ZN16HMAC_t368952521013set_hashing_6Eb
Svj:__ZN15dense_hashtableINSt3__24pairIK10KeyWrapperINS1_IPK9EventInfoP11Il2CppClassEEEjEES9_17ReflectionMapHashIS8_EN14dense_hash_mapIS9_jSD_NS9_14EqualsComparerINS0_8equal_toIS8_EEEENS0_9allocatorISB_EEE9SelectKeyESI_SK_E12maybe_shrinkEv
MNk:__ZL55EventHandler_t1348719766_CustomAttributesCacheGeneratorP21CustomAttributesCache
KAb:__ZN4gles20DestroyRenderSurfaceEP7ApiGLESP17RenderSurfaceGLES
fmh:_Array_InternalArray__get_Item_TisKeyValuePair_2_t2530217319_m2886833132_gshared
b3j:__ZN6il2cpp2os11EventHandle3GetEv
Yad:__ZNK23TypeBuilder_t107394815422get_underlying_type_33Ev
cpj:__ZNK15dense_hashtableINSt3__24pairIK10KeyWrapperINS1_IPK14Il2CppAssemblyP11Il2CppClassEEEjEES9_17ReflectionMapHashIS8_EN14dense_hash_mapIS9_jSD_NS9_14EqualsComparerINS0_8equal_toIS8_EEEENS0_9allocatorISB_EEE9SelectKeyESI_SK_E10test_emptyEj
IQi:__ZN27FieldWithTarget_t305875029317set_m_FieldPath_2EP8String_t
ctd:__ZNK28SinkProviderData_t415137297416get_properties_2Ev
pSk:__ZL57SetupCoroutine_t2062820429_CustomAttributesCacheGeneratorP21CustomAttributesCache
vXh:__Z30Predicate_1_Invoke_m3369767990P23Predicate_1_t3905400288P12Il2CppObjectPK10MethodInfo
IIj:__ZN10KeyWrapperIP14Il2CppIUnknownE14EqualsComparerINSt3__28equal_toIS1_EEEC2ES6_
vEk:__ZL91UrlAttribute_t221584584_CustomAttributesCacheGenerator_UrlAttribute_IsContextOK_m1228378186P21CustomAttributesCache
RNd:_RemotingConfiguration_get_ProcessId_m2180277012
yH:__ZN11UnityEngine15CloudWebService17SessionEventQueue14ParseEventDataERKN4core12basic_stringIcNS2_20StringStorageDefaultIcEEEE
XKh:_List_1_Remove_m2605758101_gshared
DNa:__ZThn356_N14SpriteRendererD1Ev
cyb:__ZN13TranslateGLES4InitERK12GraphicsCaps16GfxDeviceLevelGL
O$i:_NativeTypeAttribute_set_CodegenOptions_m3839252515
zZg:_EqualityComparer_1_get_Default_m180770000_gshared
cXd:_Int64_System_IConvertible_ToUInt16_m848637338_AdjustorThunk
rVc:__Z32CustomEventData_CUSTOM_AddUInt32P12Il2CppObjectP12Il2CppStringj
IVe:__ZN38FtpWebRequest_t1577818305_StaticFields24set_supportedCommands_14EP24StringU5BU5D_t1281789340
xgh:_Array_InternalArray__IndexOf_TisLink_t544317964_m455584088_gshared
SMj:__ZN10KeyWrapperIP18Il2CppGenericClassEC2ENS2_11KeyTypeEnumE
sy:__ZNK14SoundHandleAPI12GetLoadStateEv
Lbh:_KeyGeneratedEventHandler__ctor_m1990062371
yEi:_ExpressionAssertion_set_Reverse_m4141031406
$Yg:_EqualityComparer_1_get_Default_m3783840260_gshared
gZe:__ZN43ServicePointManager_t170559685_StaticFields29set_maxServicePointIdleTime_3Ei
rIc:__ZN20SpriteTilingProperty8TransferI19StreamedBinaryWriteEEvRT_
epc:__ZN9JSONWrite8TransferI13dynamic_arrayIN4math12int3_storageELj0EEEEvRT_PKc17TransferMetaFlags
XBj:__ZNK14dense_hash_mapI10KeyWrapperIP11Il2CppClassES2_N6il2cpp8metadata16SZArrayClassHashENS3_14EqualsComparerINS5_19SZArrayClassCompareEEENSt3__29allocatorINSA_4pairIKS3_S2_EEEEE9SelectKeyclERKSE_
$eb:__Z18Transfer_BlittableI17RemapPPtrTransferLb0E11ColorRGBA32EvRK29SerializationCommandArgumentsR31RuntimeSerializationCommandInfo
tqj:__ZN15dense_hashtableINSt3__24pairIK10KeyWrapperINS1_IPK9FieldInfoP11Il2CppClassEEEjEES9_17ReflectionMapHashIS8_EN14dense_hash_mapIS9_jSD_NS9_14EqualsComparerINS0_8equal_toIS8_EEEENS0_9allocatorISB_EEE9SelectKeyESI_SK_E9copy_fromERKSN_j
LRe:_HybridDictionary__ctor_m1681134385
H7g:__ZNK26BlockProcessor_t185103122515get_transform_0Ev
gla:__ZN21ScalableBufferManager11GetInstanceEv
Mcc:__ZN18BackgroundJobQueue19ScheduleJobInternalEPFvPvES0_RKNS_8JobFenceEN8JobQueue16JobQueuePriorityE
OPj:__ZNSt3__218uninitialized_fillIPNS_4pairIK10KeyWrapperIP12Il2CppObjectEN6il2cpp2gc9CachedCCWEEESA_EEvT_SC_RKT0_
tCa:__ZN12CubemapArray23VirtualRedirectTransferER17RemapPPtrTransfer
ivh:_TimeSpan_op_LessThan_m1594498345
Dgc:__ZL27GetComponentsImplementationILb0ELi0EEbR10GameObjectbRK17CompareParametersRK39GetComponentsImplementation_ReturnValue
Upk:__ZNK17Scene_t234837556114get_m_Handle_0Ev
Eob:__ZN9Scripting36IsSystemCollectionsGenericDictionaryE17ScriptingClassPtr
g$h:_UnityEvent_1_FindMethod_Impl_m322741469_gshared
m7k:___ofl_unlock
NHh:__Z31Enumerator_MoveNext_m1050804954P22Enumerator_t2017297076PK10MethodInfo
dFk:__ZL92ConstructionCallDictionary_t686578562_CustomAttributesCacheGenerator_U3CU3Ef__switchU24map24P21CustomAttributesCache
RHd:__ZNK44MethodCallDictionary_t605791082_StaticFields18get_InternalKeys_6Ev
AW:__ZL16ReadTypeTreeImplILb0EEbR8TypeTreeRK16TypeTreeIteratorRPKhS6_i
Vyi:_Interval_Contains_m110351300_AdjustorThunk
pif:_Convert_ToInt32_m3048308591
bof:_DateTimeOffset_Equals_m3030958070
Gta:__ZNK22BuiltinResourceManager21GetResourceInstanceIDEPKN5Unity4TypeERKN4core12basic_stringIcNS4_20StringStorageDefaultIcEEEE
FYh:_InvokableCall_1_remove_Delegate_m1293546855_gshared
dPi:_AnalyticsTracker_BuildParameters_m43920649
Frf:__ZN16VirtFuncInvoker0IP12MethodBase_tE6InvokeEjP12Il2CppObject
XBf:_DateTimeFormatInfo_GetMonthName_m2034512315
aKb:__ZN28LightProbeProxyVolumeContext8CopyFromERKS_
n0i:_RequiredByNativeCodeAttribute_set_Optional_m1276771824
lyi:__ZN29InterpreterFactory_t5332166249set_gap_3Ei
fka:__ZN23TransformChangeDispatch32QueueTransformChangeIfHasChangedER18TransformHierarchy
hJg:__Z75InternalEnumerator_1_System_Collections_IEnumerator_get_Current_m2102877703P32InternalEnumerator_1_t1012836222PK10MethodInfo
K1g:_SimpleCollator_ToDashTypeValue_m6184468
_si:__Z105RuntimeInvoker_RuntimeObject_Vector3_t3722313464_Vector3_t3722313464_Single_t1397266774_Int32_t2950945753PFvvEPK10MethodInfoPvPS4_
LAb:__ZN7ApiGLES18DeleteRenderbufferERj
Xzb:__ZL23ProgramUniformMatrix4fvPK7ApiGLESjiihPKv
_3f:__ZNK16HMAC_t262110114421get__blockSizeValue_9Ev
Vtb:__ZN7ApiGLES13CreateTextureEjj14GraphicsFormatiiiii
Eme:_Array_new_gap_m262136975
_ne:_BitConverter_GetBytes_m2120707223
VDf:__ZNK27NumberFormatInfo_t43587713830get_percentDecimalSeparator_22Ev
Fgc:__ZL27GetComponentsImplementationILb0ELi1EEbR10GameObjectbRK17CompareParametersRK39GetComponentsImplementation_ReturnValue
w3e:_X509Store__ctor_m275383717
c4g:_SimpleCollator_LastIndexOfOrdinalIgnoreCase_m2984667899
oYb:__Z29StdTemplateConversionFunctionIatEbPvR14SafeBinaryRead
oVe:__ZN25FtpWebRequest_t157781830513set_timeout_8Ei
Dma:__ZN13RenderTexture7ReleaseEv
Nba:__ZN9Scripting11UnityEngine12Hash128Proxy12CleanupProxyEv
zpc:__Z18Transfer_BlittableI8JSONReadLb1EN4math12int3_storageEEvRK29SerializationCommandArgumentsR31RuntimeSerializationCommandInfo
U_e:_AsnEncodedData_get_Oid_m402887164
G5e:__ZNK26X509ChainStatus_t13360271410get_info_1Ev
EIg:_InternalEnumerator_1_System_Collections_IEnumerator_Reset_m500203932_gshared
s8a:__ZN22CreateGpuProgramOutput12CreateParamsEv
med:_MethodBase_GetMethodFromHandle_m286788163
G8d:_DynamicMethod_IsDefined_m2556354904
Wxi:__Z96RuntimeInvoker_RuntimeObject_CustomAttributeNamedArgument_t287865710_RuntimeObject_RuntimeObjectPFvvEPK10MethodInfoPvPS4_
Tyg:_InternalEnumerator_1_System_Collections_IEnumerator_get_Current_m548105685_gshared
Uxb:__ZNK14GfxContextGLES13GetDefaultFBOEv
EEi:__ZN31ExpressionAssertion_t186121081112set_negate_2Eb
Zoe:_Byte_System_IConvertible_ToType_m2251112646
g$j:_GC_unix_get_mem
xjc:__Z55Register_UnityEngine_MonoBehaviour_StopCoroutineManagedv
Bhe:__ZN25SmallXmlParser_t97378783916set_attributes_8EP23AttrListImpl_t567962447
Tmf:_DateTime_get_Hour_m4153505178_AdjustorThunk
TSi:_AudioExtensionManager_WriteExtensionProperties_m3028464154
Bdg:_Evidence_Equals_m1478353107
xzi:_CostDelegate__ctor_m4027655829
inj:_il2cpp_class_is_enum
MNd:__ZN46RemotingConfiguration_t4113740665_StaticFields29set_activatedServiceEntries_9EP21Hashtable_t1853889766
_Pf:__ZNK30SynchronizedWriter_t172285322016get_neverClose_3Ev
oBf:_CultureInfo_construct_datetime_format_m1928121315
Olg:__ZNK20Encoding_t152332205622get_decoder_fallback_3Ev
Wtb:__ZNK13TranslateGLES25GetTextureTargetDimensionEj
E2d:_RankException__ctor_m3453633632
Irc:__Z29Transfer_Blittable_ArrayFieldI8JSONRead8Vector4fEvRT_R9ArrayInfoRK23StaticTransferFieldInfo
W6i:__ZN10KeyWrapperIPK19Il2CppGenericMethodEC2Ev
UUh:_ReadOnlyCollection_1_System_Collections_IList_Remove_m1842121503_gshared
nmk:_PlayableHandle_Equals_m2546735654
SP:__ZN9profiling27GetBuiltinCategoryRgbaColorEt
kOa:__Z16SnapToPixelSpaceRK8Vector3f
nuf:_File_OpenRead_m2936789020
Ecf:_Enumerator_get_Entry_m3561948123
Uri:__Z94RuntimeInvoker_Void_t1185182177_RuntimeObject_PlayableGraph_t3515989261_RuntimeObject_IntPtr_tPFvvEPK10MethodInfoPvPS4_
Gh:_emscripten_glVertexAttrib4f
_db:__ZN14SafeBinaryRead21TransferSTLStyleArrayI13dynamic_arrayIN4math12int3_storageELj0EEEEvRT_17TransferMetaFlags
$Oh:__ZN18List_1_t305805257314set__version_3Ei
Llb:__Z19TransferField_ArrayI18StreamedBinaryRead27Converter_UnityEngineObjectEvRK23StaticTransferFieldInfoR31RuntimeSerializationCommandInfoRT0_
T4e:_X509CertificateCollection_AddRange_m3683116910
OSf:__ZNK24ObjectWriter_t296840623120get__assemblyCache_3Ev
aWi:_CustomEventData_t317522481_marshal_pinvoke_cleanup
axj:__ZN10KeyWrapperIPK14Il2CppAssemblyEC2ENS3_11KeyTypeEnumE
Xsd:_SinkProviderData__ctor_m1624738837
uLb:__ZN11HaloManager21ReleaseGeometryJobMemEP25DynamicVBOGeometryJobData
vJf:_DirectoryNotFoundException__ctor_m1689636868
uoi:__Z88RuntimeInvoker_RuntimeObject_RuntimeObject_SByte_t1669577662_RuntimeObject_RuntimeObjectPFvvEPK10MethodInfoPvPS4_
osg:_InternalEnumerator_1_System_Collections_IEnumerator_Reset_m903423974_gshared
kVh:_ReadOnlyCollection_1_System_Collections_Generic_IListU3CTU3E_get_Item_m978644313_gshared
Tad:_RefEmitPermissionSet_t484390987_marshal_pinvoke_cleanup
M5d:_CustomAttributeTypedArgument_Equals_m2261980307
h3d:__ZNK10Assembly_t18get_assemblyName_9Ev
gmh:_Array_InternalArray__get_Item_TisLink_t544317964_m1669566993_gshared
T5a:__ZN9GfxDevice18SetGlobalDepthBiasEff
khj:__ZN6il2cpp6icalls8mscorlib6System8MonoType12get_AssemblyEP20Il2CppReflectionType
fMf:_IsolatedStorageException__ctor_m3386787868
_bd:_TypeBuilder_MakeGenericType_m2799607032
NOd:__ZNK41RemotingServices_t1401195504_StaticFields29get__serializationFormatter_1Ev
Tqa:__ZN14SharedMeshData22ClearCachedBoneWeightsEv
xn:FUNCTION_TABLE_vi
eg:_emscripten_glGetPointerv
j3h:__ZN26X509Certificate_t48924302528set_m_signaturealgoparams_13EP22ByteU5BU5D_t4116647657
Blh:_Dictionary_2_Do_CopyTo_TisKeyValuePair_2_t3842366416_TisRuntimeObject_m1564656153_gshared
Yld:__ZN16VirtFuncInvoker0ItE6InvokeEjP12Il2CppObject
fNj:__ZN15dense_hashtableI10KeyWrapperIP18Il2CppGenericClassES3_N6il2cpp8metadata22Il2CppGenericClassHashEN14dense_hash_setIS3_S6_NS3_14EqualsComparerINS5_25Il2CppGenericClassCompareEEENSt3__29allocatorIS3_EEE8IdentityESA_SD_E5clearEv
brb:__Z26ApplyMaterialPassWithCacheRK18SharedMaterialDataR17ShaderPassContextP6ShaderPN9ShaderLab4PassEibPKNS6_10GrabPassesEPNS6_11SubProgramsEPK22DeviceRenderStateBlock
ani:__Z55RuntimeInvoker_DateTime_t3738529785_TimeSpan_t881159249PFvvEPK10MethodInfoPvPS4_
YRk:__ZL81Camera_t4157153871_CustomAttributesCacheGenerator_Camera_RaycastTry2D_m2460696262P21CustomAttributesCache
L0d:_MulticastDelegate_KPM_m22863605
mHg:_InternalEnumerator_1_get_Current_m1897120917_AdjustorThunk
Y$d:_MonoType_ReorderParamArrayArguments_m2458683451
IQd:_FormatterConverter_ToInt16_m4282804414
Cki:__Z81RuntimeInvoker_Void_t1185182177_Int64_t3736567304_RuntimeObject_Int64_t3736567304PFvvEPK10MethodInfoPvPS4_
jJj:__ZN30dense_hashtable_const_iteratorINSt3__24pairIK10KeyWrapperIP14Il2CppIUnknownEjEES5_N6il2cpp5utils11PointerHashIS3_EEN14dense_hash_mapIS5_jSB_NS5_14EqualsComparerINS0_8equal_toIS4_EEEENS0_9allocatorIS7_EEE9SelectKeyESG_SI_EppEv
Duf:_FileStream__ctor_m3151488352
Dme:_Array_swap_m547389985
fLa:__ZN8Renderer23VirtualRedirectTransferER14SafeBinaryRead
yzh:_UInt32_ToString_m2420423038
UNh:_List_1_System_Collections_IList_Add_m634558835_gshared
gKf:_FileStream_get_Length_m426703983
T_h:__ZN24UnityEvent_1_t383260525719set_m_InvokeArray_4EP24ObjectU5BU5D_t2843939325
ICi:__ZN17Regex_t36573098539set_gap_4Ei
_Yb:__ZL13MotionHandleriPK27EmscriptenDeviceMotionEventPv
_Cg:__ZNK32InternalEnumerator_1_t23687585839get_idx_1Ev
QIe:__ZN19Context_t397123470720set_serverSettings_3EP29TlsServerSettings_t4144396432
Hw:__ZN12AudioManager5ResetEv
Rci:__Z67RuntimeInvoker_Boolean_t97287965_RuntimeObject_SByteU26_t3619038962PFvvEPK10MethodInfoPvPS4_
Xdi:__Z143RuntimeInvoker_Boolean_t97287965_RuntimeObject_Int32_t2950945753_RuntimeObject_SByte_t1669577662_DoubleU26_t1739162597_ExceptionU26_t3600731591PFvvEPK10MethodInfoPvPS4_
bVh:_ReadOnlyCollection_1_get_Count_m1336304542_gshared
VLg:__ZN16VirtFuncInvoker2Ii26DateTimeOffset_t3229287507S0_E6InvokeEjP12Il2CppObjectS0_S0_
q4:__ZN6prcoreL17RemapGenericFloatI17TexFormatRGBAHalf15TexFormatRGHalfEEvPKNS_9InnerInfoE
GWe:__ZNK26HttpWebRequest_t166943651519get_servicePoint_24Ev
Dxj:__ZNK15dense_hashtableINSt3__24pairIK10KeyWrapperIPK14Il2CppAssemblyEPK22Il2CppMonoAssemblyNameEES6_N6il2cpp5utils11PointerHashIS4_EEN14dense_hash_mapIS6_SA_SF_NS6_14EqualsComparerINS0_8equal_toIS5_EEEENS0_9allocatorISB_EEE9SelectKeyESK_SM_E10test_emptyEj
_xg:_InternalEnumerator_1_System_Collections_IEnumerator_Reset_m779787360_gshared
yCf:__ZNK30DateTimeFormatInfo_t240585370126get_fullDateTimePattern_21Ev
VVj:__ZN6il2cpp6icalls8mscorlib6System11Environment20GetWindowsFolderPathEi
mef:_Convert_ToBoolean_m2833752130
Hed:__Z25Il2CppCodeGenWriteBarrierI18Missing_t508514592EvPPT_S2_
C2j:_GC_is_heap_ptr
Plc:__ZN9Scripting11UnityEngine8GUIProxy12CleanupProxyEv
Q6g:_ASN1_DecodeTLV_m1200977460
yfk:_UnityEventBase_PrepareInvoke_m1785382128
Idk:_Object_op_Inequality_m4071470834
ddd:__ZN23InterfaceActionInvoker2IP12Il2CppObjectP20Delegate_t1188392813E6InvokeEjP11Il2CppClassS1_S1_S3_
R0h:_InternalAsyncResult_get_CompletedWithError_m3777099678
Gqe:_Char_System_IConvertible_ToUInt32_m3901815580
lKc:__ZN13ProduceHelperI13BoxCollider2DLb0EE7ProduceE10MemLabelId18ObjectCreationMode
ini:__Z157RuntimeInvoker_Int32_t2950945753_RuntimeObject_Int32_t2950945753_Int32_t2950945753_Int32_t2950945753_SByte_t1669577662_SByte_t1669577662_Int32U26_t1369213839PFvvEPK10MethodInfoPvPS4_
VFk:__ZL105ConfigHandler_t4192437216_CustomAttributesCacheGenerator_ConfigHandler_ValidatePath_m3895556516____paths1P21CustomAttributesCache
Iz:__ZN4FMOD6System17setSoftwareFormatEi17FMOD_SOUND_FORMATii18FMOD_DSP_RESAMPLER
sWf:__ZN24ObjectRecord_t118746727216set_ArrayIndex_9EP22Int32U5BU5D_t385246372
iBg:__ZN32InternalEnumerator_1_t323283923111set_array_0EP11Il2CppArray
JNi:__ZNK24EventTrigger_t252745169513get_m_Rules_4Ev
pya:__ZN14SafeBinaryRead19TransferSTLStyleMapINSt3__23mapIN4core12basic_stringIcNS3_20StringStorageDefaultIcEEEES7_NS1_4lessIS7_EE13stl_allocatorINS1_4pairIKS7_S7_EEL18MemLabelIdentifier1ELi16EEEEEEvRT_17TransferMetaFlags
h8:__ZL51__ManagedRegistrationHelperFunction_QuaternionProxyPv
HH:__ZN11UnityEngine15CloudWebService16SessionContainer21PrepareDataErrorEventERN4core12basic_stringIcNS2_20StringStorageDefaultIcEEEE
e7i:__ZNK30dense_hashtable_const_iteratorINSt3__24pairIK10KeyWrapperIPK19Il2CppGenericMethodEPK26Il2CppGenericMethodIndicesEES6_N6il2cpp8metadata23Il2CppGenericMethodHashEN14dense_hash_mapIS6_SA_SE_NS6_14EqualsComparerINSD_26Il2CppGenericMethodCompareEEENS0_9allocatorISB_EEE9SelectKeyESI_SK_EneERKSN_
Ore:_ArrayList_set_Item_m2003485935
WWj:__ZNSt3__218uninitialized_copyIPNS_4pairIK10KeyWrapperIPK19Il2CppGenericMethodEP10MethodInfoEESB_EET0_T_SD_SC_
End:_SatelliteContractVersionAttribute__ctor_m3630863995
lTb:__Z36CreateScriptingArrayFromUnityObjectsI13dynamic_arrayIP6CameraLj0EEE17ScriptingArrayPtrRKT_PKN5Unity4TypeE
cMk:__ZL79Convert_t2465617642_CustomAttributesCacheGenerator_Convert_ToUInt64_m3102114524P21CustomAttributesCache
LZi:__ZL25UnresolvedVirtualCall_161P12Il2CppObjectaaiPK10MethodInfo
jVh:_ReadOnlyCollection_1_System_Collections_Generic_IListU3CTU3E_RemoveAt_m3969985996_gshared
fLi:_SymmetricTransform_CFB_m1755507252
ISi:__ZNK45AudioAmbisonicExtensionDefinition_t411842689016get_definition_1Ev
xkl:_emscripten_glCopyTexSubImage2D__wrapper
TIa:__ZNK13ScreenManager12GetIsFocusedEv
Ijk:_PlayerConnection_get_isConnected_m911966057
ULf:__ZN23InterfaceActionInvoker3IP22ByteU5BU5D_t4116647657iiE6InvokeEjP11Il2CppClassP12Il2CppObjectS1_ii
Rue:__ZN29BitArrayEnumerator_t89349621814set__current_1Eb
kWd:_NumberFormatter_FastToDecHex_m699829267
npc:__Z35Transfer_Blittable_FixedBufferFieldI8JSONReadiEvRK29SerializationCommandArgumentsR31RuntimeSerializationCommandInfo
qv:__ZN20DiagnosticSwitchEnumI23FMODDebugDisplayOptionsE18SetValueFromStringEPKc
zfj:__ZNSt3__213__vector_baseIN6il2cpp2os19SocketHandleWrapperENS_9allocatorIS3_EEED2Ev
xxk:__ZL48_Type_t3588564251_CustomAttributesCacheGeneratorP21CustomAttributesCache
ure:__ZN26CharEnumerator_t112147042112set_length_2Ei
QLa:__ZN28ReflectionProbeAnchorManager18RemoveCachedAnchorERK4PPtrI9TransformE
yb:invoke_viiffi
Pzk:__ZL103RegionInfo_t1090270226_CustomAttributesCacheGenerator_RegionInfo_t1090270226____NativeName_PropertyInfoP21CustomAttributesCache
dXd:_Int64_System_IConvertible_ToUInt32_m109903525
EDh:__ZN40RSAPKCS1SignatureDeformatter_t37672230089set_rsa_0EP15RSA_t2385438082
WAf:__ZNK23CultureInfo_t415784306815get_textInfo_16Ev
NIe:__Z25Il2CppCodeGenWriteBarrierI27SslClientStream_t3914624661EvPPT_S2_
Esc:__ZN5Unity9rapidjson13GenericReaderINS0_4UTF8IcEES3_13JSONAllocatorE10ParseFalseILj0ENS0_19GenericStringStreamIS3_EENS0_15GenericDocumentIS3_S4_S4_EEEEvRT0_RT1_
g5d:__ZN37ConstructorInfo_t5769829_StaticFields25set_TypeConstructorName_1EP8String_t
Suh:_TimeSpan_FromHours_m1109641064
D3h:__ZNK29X501_t1758824426_StaticFields25get_stateOrProvinceName_5Ev
Y0b:__Z14resize_trimmedINSt3__26vectorIN9ShaderLab18SerializedPropertyENS0_9allocatorIS3_EEEEEvRT_j
web:__Z18Transfer_BlittableI17RemapPPtrTransferLb0EN4math12int3_storageEEvRK29SerializationCommandArgumentsR31RuntimeSerializationCommandInfo
dRk:__ZL92StaticAccessorAttribute_t2432663902_CustomAttributesCacheGenerator_U3CNameU3Ek__BackingFieldP21CustomAttributesCache
fBg:__Z41InternalEnumerator_1_MoveNext_m2234422530P32InternalEnumerator_1_t1765566171PK10MethodInfo
LJg:_InternalEnumerator_1__ctor_m4124630986_gshared
wbj:__ZN6il2cpp2vm13MetadataCache38GetMethodInfoFromMethodDefinitionIndexEi
AIc:__ZN13BoxCollider2D23VirtualRedirectTransferER18StreamedBinaryRead
zzi:_CostDelegate_EndInvoke_m2797921932
hBa:__ZN10VertexData8TransferI24GenerateTypeTreeTransferEEvRT_
RFf:__ZN6Guid_t9set__k_10Eh
xtd:__ZNK26ClientIdentity_t142804684421get__proxyReference_7Ev
xhf:__ZN21InterfaceFuncInvoker1I19Decimal_t2948259380P12Il2CppObjectE6InvokeEjP11Il2CppClassS2_S2_
rWj:__ZN13Il2CppHashMapIPK19Il2CppGenericMethodP10MethodInfoN6il2cpp8metadata23Il2CppGenericMethodHashENS6_26Il2CppGenericMethodCompareENSt3__29allocatorINS9_4pairIK10KeyWrapperIS2_ES4_EEEEEC2EjRKS7_RKS8_
Doh:_UTF8Encoding_InternalGetByteCount_m2120178851
vDe:__ZN18VirtActionInvoker1I25RSAParameters_t1728406613E6InvokeEjP12Il2CppObjectS0_
NP:__ZN24ProfilerCallbacksHandler22CreateCategoryCallbackEtPv
a$j:_GC_default_oom_fn
AQb:__ZL10CullLightsRK22SceneCullingParametersR11CullResults
wkf:_Convert_ToUInt64_m3170916409
rZh:_InvokableCall_3__ctor_m4245235439_gshared
SWd:_Int64_System_IConvertible_ToInt16_m4062196970_AdjustorThunk
y0d:_MonoType_GetGenericTypeDefinition_m3201894896
qec:__Z40GetTemporaryCachePathApplicationSpecificv
s4a:__ZN9GfxDevice16EndAsyncJobFrameEv
Zsi:__Z99RuntimeInvoker_Int32_t2950945753_Ray_t3785851493_RuntimeObject_Single_t1397266774_Int32_t2950945753PFvvEPK10MethodInfoPvPS4_
Buj:__ZNK15dense_hashtableINSt3__24pairIK10KeyWrapperINS1_IPK12PropertyInfoP11Il2CppClassEEEjEES9_17ReflectionMapHashIS8_EN14dense_hash_mapIS9_jSD_NS9_14EqualsComparerINS0_8equal_toIS8_EEEENS0_9allocatorISB_EEE9SelectKeyESI_SK_E10test_emptyERK30dense_hashtable_const_iteratorISB_S9_SD_SM_SI_SK_E
Wz:__ZN12AudioManager27InitialCompleteDomainReloadEv
CAf:__ZN36CultureInfo_t4157843068_StaticFields23set_shared_table_lock_5EP12Il2CppObject
Vd:___syscall3
UTk:__ZL95MonoBehaviour_t3962482529_CustomAttributesCacheGenerator_MonoBehaviour_CancelInvoke_m3252264575P21CustomAttributesCache
Psi:__Z135RuntimeInvoker_RaycastHit2D_t2279581989_Vector2_t2156229523_Vector2_t2156229523_Single_t1397266774_Int32_t2950945753_Single_t1397266774PFvvEPK10MethodInfoPvPS4_
de:___syscall6
y5a:__ZN9GfxDevice15GetNextCPUFenceEv
Zd:___syscall4
lQ:__ZN24ProfilerCallbacksHandler27RegisterCreateEventCallbackEPFvPK23UnityProfilerMarkerDescPvES3_
rKd:_ReturnMessage__ctor_m2352989078
bmk:__ZN39PlayableBinding_t354260709_StaticFields21set_DefaultDuration_5Ed
b4k:__ZN34Physics2D_t1528932956_StaticFields31set_m_LastDisabledRigidbody2D_0EP18List_1_t2411569343
o3a:__ZNSt3__26__treeINS_12__value_typeIN4core12basic_stringIcNS2_20StringStorageDefaultIcEEEEPN16MemoryFileSystem4NodeEEENS_19__map_value_compareIS6_SA_NS_4lessIS6_EELb1EEE13stl_allocatorISA_L18MemLabelIdentifier55ELi16EEE7destroyEPNS_11__tree_nodeISA_PvEE
P0k:__ZL74ContactFilter2D_t3805203441_CustomAttributesCacheGenerator_useOutsideDepthP21CustomAttributesCache
kQj:__ZN6il2cpp2vm3RCW14QueryInterfaceILb1EEEP14Il2CppIUnknownP15Il2CppComObjectRK10Il2CppGuid
RJe:_TlsServerCertificateRequest__ctor_m1334974076
G2g:__ZNK23Contraction_t158927535417get_Replacement_1Ev
Stc:__ZN27PerformanceReportingManager23VirtualRedirectTransferER14SafeBinaryRead
Bs:__ZN9Scripting11UnityEngine30RuntimeAnimatorControllerProxy9InitProxyEv
qnd:__ZNK23ResourceSet_t282791118711get_Table_1Ev
DQj:__ZN6il2cpp2vmL25InflatePropertyDefinitionEPK12PropertyInfoPS1_P11Il2CppClassP20Il2CppGenericContext
sif:_Convert_ToInt32_m1613163543
Jwi:__Z52RuntimeInvoker_TimeSpan_t881159249_Int32_t2950945753PFvvEPK10MethodInfoPvPS4_
MUh:_ReadOnlyCollection_1_System_Collections_ICollection_CopyTo_m3127175806_gshared
Sg:_emscripten_glShaderBinary
mZk:__ZL80Logger_t274032455_CustomAttributesCacheGenerator_U3ClogEnabledU3Ek__BackingFieldP21CustomAttributesCache
UI:__ZN15DownloadHandler19OnFinishReceiveDataEv
Byh:_UInt16_ToString_m760649087
q$a:__ZNK20LocalFileSystemPosix6ExistsERK13FileEntryData
hbf:_Queue_Dequeue_m2397857002
Mni:__Z21RuntimeInvoker_Guid_tPFvvEPK10MethodInfoPvPS4_
Goi:__Z46RuntimeInvoker_CipherAlgorithmType_t1174400495PFvvEPK10MethodInfoPvPS4_
Tug:__ZNK32InternalEnumerator_1_t343728143611get_array_0Ev
ebk:_Camera_GetAllCameras_m668492922
wii:__Z32RuntimeInvoker_Label_t2281661643PFvvEPK10MethodInfoPvPS4_
eQh:__ZNK19Queue_1_t120077810614get__version_3Ev
hvh:_TimeSpan_op_Inequality_m2467851530
YGd:__ZN28GenericInterfaceFuncInvoker1IP12Il2CppObjectP23HeaderU5BU5D_t204812840E6InvokeEPK10MethodInfoS1_S3_
Rag:_ToBase64Transform_get_CanReuseTransform_m702204640
dTe:__ZNK36NameObjectCollectionBase_t209184736419get_m_defCapacity_5Ev
W0k:__ZL73ContactFilter2D_t3805203441_CustomAttributesCacheGenerator_maxNormalAngleP21CustomAttributesCache
M9c:__ZN31OpCodes_t126150456_StaticFields13set_Ldftn_205E17OpCode_t123070264
Qlk:__ZNK39PlayableBinding_t354260709_StaticFields21get_DefaultDuration_5Ev
ori:__Z53RuntimeInvoker_PropertyName_t3749835189_RuntimeObjectPFvvEPK10MethodInfoPvPS4_
$me:_Swapper_BeginInvoke_m1688449973
zmj:_il2cpp_set_data_dir
Koi:__Z81RuntimeInvoker_Void_t1185182177_RuntimeObject_Int32_t2950945753_Int64_t3736567304PFvvEPK10MethodInfoPvPS4_
BWe:__ZNK26HttpWebRequest_t166943651515get_actualUri_7Ev
YNh:_List_1_System_Collections_IList_Remove_m3654336679_gshared
cu:__ZNSt3__26vectorIN4core12basic_stringIcNS1_20StringStorageDefaultIcEEEE13stl_allocatorIS5_L18MemLabelIdentifier1ELi16EEE21__push_back_slow_pathIS5_EEvOT_
y6f:__ZNK23RC2Transform_t4583214879get_R3_15Ev
Tui:__Z52RuntimeInvoker_Int32_t2950945753_HitInfo_t3229609740PFvvEPK10MethodInfoPvPS4_
gli:__Z86RuntimeInvoker_Boolean_t97287965_Int16_t2552820387_Int16_t2552820387_Int32_t2950945753PFvvEPK10MethodInfoPvPS4_
BKk:__ZL80Convert_t2465617642_CustomAttributesCacheGenerator_Convert_ToBoolean_m2807110707P21CustomAttributesCache
Jda:__ZN9Scripting11UnityEngine11CameraProxy12CleanupProxyEv
fIh:__ZNK22Enumerator_t214645748710get_next_1Ev
fSc:__ZN11UnityEngine15PlatformWrapper30GetGraphicsDriverLibraryStringEv
tjb:__ZL17Transfer_GUIStyleI19StreamedBinaryWriteLb1EEvRK29SerializationCommandArgumentsR31RuntimeSerializationCommandInfo
UDd:_CADMethodReturnMessage_GetException_m4034410903
Wzh:_UInt64_System_IConvertible_ToSingle_m925613075_AdjustorThunk
Fwj:__ZN6il2cpp2vm10Reflection27GetCustomAttributesCacheForEPK12PropertyInfo
yXi:__ZL24UnresolvedVirtualCall_40P12Il2CppObjectS0_PK10MethodInfo
HAk:__ZL57AssemblyBuilder_t359885250_CustomAttributesCacheGeneratorP21CustomAttributesCache
dGb:__Z14DrawGUITextureRK5RectTIfEP7Texture11ColorRGBA32P8Materiali
Zae:__ZN23ILTokenInfo_t232577511414set_code_pos_1Ei
fVh:_ReadOnlyCollection_1_System_Collections_Generic_ICollectionU3CTU3E_Add_m2686599243_gshared
cAc:__ZNK11b2EdgeShape7RayCastEP15b2RayCastOutputRK14b2RayCastInputRK11b2Transformi
Eog:__Z27Action_1_Invoke_m1892723854P19Action_1_t269755560bPK10MethodInfo
Yoc:__ZN9JSONWrite8TransferI4AABBEEvRT_PKc17TransferMetaFlags
d$b:__ZN15dense_hashtableINSt3__24pairIKiN4core17string_with_labelILi1EEEEEi18SInt32HashFunctionN14dense_hash_mapIiS5_S7_NS0_8equal_toIiEE13stl_allocatorIS6_L18MemLabelIdentifier1ELi16EEE9SelectKeyESA_SD_E12expand_arrayEjN21dense_hash_map_traits17integral_constantIbLb0EEE
pvi:__Z58RuntimeInvoker_Void_t1185182177_ContactPoint2D_t3390240644PFvvEPK10MethodInfoPvPS4_
r1e:__ZN27X509Certificate2_t71404912618set_issuer_name_10EP32X500DistinguishedName_t875709727
$th:__ZN32TimeSpan_t881159249_StaticFields14set_MaxValue_0E19TimeSpan_t881159249
qti:__Z94RuntimeInvoker_Void_t1185182177_ObjectU5BU5DU26_t712384779_Int32_t2950945753_Int32_t2950945753PFvvEPK10MethodInfoPvPS4_
LFc:__ZN10Collider2D13AwakeFromLoadE17AwakeFromLoadMode
GLi:_Aes__ctor_m178909601
kFa:__ZNK9Texture2D20GetRuntimeMemorySizeEv
OHd:_MethodCall_get_MethodSignature_m2407904958
Dsc:__ZN5Unity9rapidjson13GenericReaderINS0_4UTF8IcEES3_13JSONAllocatorE9ParseTrueILj0ENS0_19GenericStringStreamIS3_EENS0_15GenericDocumentIS3_S4_S4_EEEEvRT0_RT1_
mh:_emscripten_glUniform2iv
gHf:_Guid_ToString_m2120285561
wyg:__Z69InternalEnumerator_1_System_Collections_IEnumerator_Reset_m3873091784P31InternalEnumerator_1_t348664125PK10MethodInfo
rph:_UnicodeEncoding_CopyChars_m785272451
uDg:__ZNK31InternalEnumerator_1_t9583569089get_idx_1Ev
JGe:_CipherSuite_get_ExchangeAlgorithmType_m1633709183
PQk:__ZL118NativeMethodAttribute_t4187428193_CustomAttributesCacheGenerator_NativeMethodAttribute_set_HasExplicitThis_m2961870915P21CustomAttributesCache
U2i:__ZN6il2cpp2vm5Class10GetMethodsEP11Il2CppClassPPv
IXc:__ZNK25UnityWebRequestJavaScript17GetUploadProgressEv
gMb:__Z30AddDefaultStreamsToMeshBuffersR9GfxDeviceR11MeshBuffersRK16DrawBuffersRange17ShaderChannelMaskS6_
puf:__ZN24StreamReader_t400993589917set_base_stream_9EP18Stream_t1273022909
kPh:_List_1_GetEnumerator_m1430071802_gshared
Vpg:__ZNK31ArrayReadOnlyList_1_t147838354311get_array_0Ev
nAb:__ZN7ApiGLES17DeleteFramebufferERN2gl6HandleILNS0_10ObjectTypeE9EEES3_
DCb:__ZN15UniformTFMethod13MapBoneBufferEj
bCg:__Z38InternalEnumerator_1__ctor_m3734157836P32InternalEnumerator_1_t2811293600P11Il2CppArrayPK10MethodInfo
IUi:_Array_InternalArray__get_Item_TisParameterModifier_t1461694466_m29553316_gshared
udd:_FieldInfo_internal_from_handle_type_m3256989094
iXd:_Int64_CompareTo_m1928360444_AdjustorThunk
Lij:__ZN6il2cpp6icalls8mscorlib6SystemL23GetPropertiesByNameImplINS_5utils10functional6FilterINSt3__212basic_stringIcNS7_11char_traitsIcEENS7_9allocatorIcEEEENS4_13VmStringUtils21CaseSensitiveComparerEEEEEP11Il2CppArrayPK10Il2CppTypejRKT_
yrb:__Z9SetupArgviPPKc
Nif:_Convert_ToInt64_m2075031821
HWk:__ZL111ScriptableObject_t2528358522_CustomAttributesCacheGenerator_ScriptableObject_CreateScriptableObject_m3504774547P21CustomAttributesCache
aNd:__ZNK24ProviderData_t32721233189get_Ref_0Ev
I_c:__ZL55__ManagedRegistrationHelperFunction_ReferencePointProxyPv
Ohl:_glTexParameteri__wrapper
Zog:__ZN25GenericVirtActionInvoker2IP12Il2CppObjectiE6InvokeEPK10MethodInfoS1_S1_i
uCa:__ZN12CubemapArray23VirtualRedirectTransferER24GenerateTypeTreeTransfer
eX:__ZN12FileAccessor4OpenER15FileSystemEntry14FilePermission16FileAutoBehavior
Tra:__ZNSt3__26vectorI4PPtrI6ShaderE13stl_allocatorIS3_L18MemLabelIdentifier53ELi16EEE8__appendEj
FVj:__ZN6il2cpp2os9Directory6CreateERKNSt3__212basic_stringIcNS2_11char_traitsIcEENS2_9allocatorIcEEEEPi
L5i:__ZNK10KeyWrapperIPKcE8isNormalEv
_sk:__ZN19Vector3_t372231346418get_address_of_y_1Ev
cka:__ZN23TransformChangeDispatch32QueueTransformChangeIfHasChangedERK15TransformAccess
a1d:__ZN40NumberFormatter_t1182924621_StaticFields34get_address_of_TensExponentTable_1Ev
Gkl:_glTexImage3D__wrapper
Y0a:__ZN15ArchiveReadFile5WriteEyPKvPy
O2d:_Assembly_get_FullName_m293988418
hLc:__ZN22WorldContactListener2D8PreSolveEP9b2ContactPK10b2Manifold
y1c:__ZN25MethodBuilder_t280731675311set_ilgen_8EP23ILGenerator_t1388622344
Mak:_Camera_get_pixelRect_Injected_m2326986893
yZh:__ZN27InvokableCall_4_t275698074614set_Delegate_0EP24UnityAction_4_t682480391
qba:__ZN9Scripting11UnityEngine25ManagedStreamHelpersProxy9InitProxyEv
x:tempValue
A8f:__ZN23SHA384Managed_t741585759set_H7_14Ey
mYb:__Z29StdTemplateConversionFunctionIaiEbPvR14SafeBinaryRead
B7j:__ZN6il2cpp8metadata24Il2CppGenericContextHash4HashEPK20Il2CppGenericContext
iDg:_InternalEnumerator_1_get_Current_m356936020_AdjustorThunk
RGb:__ZN6Camera21RenderODSWorldTextureERK11CullResultsRK19SharedRendererSceneR17ShaderPassContextNS_10RenderFlagE
yWd:_Int32_ToString_m141394615_AdjustorThunk
dte:_ArrayListWrapper_CopyTo_m498486826
uvf:_Directory_GetCurrentDirectory_m219218555
ADf:__ZNK27NumberFormatInfo_t43587713821get_currencySymbol_12Ev
s$g:__ZN45MSCompatUnicodeTable_t1453885583_StaticFields21set_tailoringInfos_16EP31TailoringInfoU5BU5D_t1797664499
tie:_SmallXmlParser_UnexpectedEndError_m1914362401
iGk:__ZL61FormatterTypeStyle_t3400733584_CustomAttributesCacheGeneratorP21CustomAttributesCache
eWb:__ZN20TextureStreamingData19AllocateTextureInfoEP17StreamingRendererjPK20StreamingTextureInfo
Q1g:_SortKeyBuffer__ctor_m1384677558
EFh:__Z36KeyValuePair_2_set_Value_m3305319569P26KeyValuePair_2_t3842366416bPK10MethodInfo
dUi:_AudioSampleProvider_Dispose_m1993565764
hej:__ZN24dense_hashtable_iteratorINSt3__24pairIK10KeyWrapperIP9FieldInfoEiEES5_N6il2cpp5utils11PointerHashIS3_EEN14dense_hash_mapIS5_iSB_NS5_14EqualsComparerINS0_8equal_toIS4_EEEENS0_9allocatorIS7_EEE9SelectKeyESG_SI_EC2EPK15dense_hashtableIS7_S5_SB_SK_SG_SI_EPS7_SQ_b
Wth:_TimeSpan__ctor_m1896986612_AdjustorThunk
j6f:__ZNK36RC2Transform_t458321487_StaticFields14get_pitable_18Ev
g8a:__ZN13ComputeBuffer7SetDataER9GfxDevicePKvjj
aaj:__ZN15dense_hashtableINSt3__24pairIK10KeyWrapperIN6il2cpp5utils13dynamic_arrayIPK10Il2CppTypeLj4EEEEPFvvEEESA_NS3_8metadata19Il2CppSignatureHashEN14dense_hash_mapISA_SD_SG_NSA_14EqualsComparerINSF_22Il2CppSignatureCompareEEENS0_9allocatorISE_EEE9SelectKeyESK_SM_E9set_valueEPSE_RKSE_
yud:__Z25Il2CppCodeGenWriteBarrierI23ChannelData_t3353629972EvPPT_S2_
rce:_ArgumentException__ctor_m1216717135
jok:_Ray_ToString_m1732834890_AdjustorThunk
xoj:__ZN10KeyWrapperINSt3__24pairIPK14Il2CppAssemblyP11Il2CppClassEEEC2ERKS7_
krh:__ZNK32RegisteredWaitHandle_t152953845417get__finalEvent_6Ev
Moc:__ZN9JSONWrite8TransferI13dynamic_arrayI5RectTIfELj0EEEEvRT_PKc17TransferMetaFlags
AE:__ZN11AudioModule22CreateAudioClipFromWWWEP10IWWWStreamPKcbbi
S6b:__ZN9Texture2DC2E10MemLabelId18ObjectCreationMode
utb:__Z17DebugStringToFileIA59_cEvRKT_iPKci15LogMessageFlagsiiPFvRK11CppLogEntryE
gZf:_ObjectRecord_get_IsUnsolvedObjectReference_m1163921033
Fyh:_UInt32_System_IConvertible_ToBoolean_m1763673183_AdjustorThunk
x8e:_RepeatContext_get_Count_m1112834530
tJd:__Z25Il2CppCodeGenWriteBarrierI31MethodCallDictionary_t605791082EvPPT_S2_
Qua:__ZN6prcoreL11inner_clearILj4EEEvPhjjj
bZi:__ZL25UnresolvedVirtualCall_125P12Il2CppObjectS0_aPK10MethodInfo
LHd:_MethodCall_get_Args_m148309537
TCi:__ZNK18Parser_t24305093839get_gap_5Ev
sAi:__ZN30Match_t3408321083_StaticFields12set_empty_10EP17Match_t3408321083
yId:_DictionaryEnumerator_get_Value_m2166220004
U$i:_NativeTypeAttribute__ctor_m1677513894
kM:__GLOBAL__sub_I_Runtime_SceneManager_0_cpp
Kei:__Z74RuntimeInvoker_Void_t1185182177_RuntimeObject_StreamingContext_t3711869237PFvvEPK10MethodInfoPvPS4_
T1j:_GC_initialize_offsets
rIh:_Enumerator_MoveNext_m2142368520_AdjustorThunk
y0:__ZNK8Playable6HandleEv
Z9k:___cxa_guard_abort
nNg:_Enumerator_MoveNext_m481679286_gshared
dV:__ZN14MessageHandler28MessageIDToMessageIdentifierEi
RBa:__ZNK11SpriteAtlas20GetRuntimeRenderDataEPK6Sprite
udk:__ZNK25ArgumentCache_t218795839919get_m_IntArgument_2Ev
dJf:_FileSystemInfo__ctor_m3035148496
QSd:_Int32_System_IConvertible_ToDecimal_m2190376994_AdjustorThunk
tri:__Z57RuntimeInvoker_PropertyName_t3749835189_Int32_t2950945753PFvvEPK10MethodInfoPvPS4_
zNi:__Z25Il2CppCodeGenWriteBarrierI18List_1_t3418373063EvPPT_S2_
LTh:_Collection_1_CopyTo_m3142835220_gshared
gm:emscriptenWebGLGetUniform
kn:FUNCTION_TABLE_iiiiiiiiiii
Fpb:__ZN19GfxThreadableDevice15OnDeviceCreatedEb
qSb:__ZL10CleanUpJobP20CullingGroupsJobData
VPa:__ZN16BlendShapeVertex8TransferI19StreamedBinaryWriteEEvRT_
eMb:__Z20IsRunningNativeTestsv
TIf:_DirectoryInfo_get_Exists_m3142069876
WFb:__ZN13RenderManager15BatchModeUpdateEv
rjk:__Z25Il2CppCodeGenWriteBarrierI40PlayerEditorConnectionEvents_t3411787513EvPPT_S2_
tw:__ZL16FMOD_ErrorString11FMOD_RESULT_656
pwf:__ZNK11Exception_t12get_source_9Ev
VAk:__ZL123GenericTypeParameterBuilder_t1988827940_CustomAttributesCacheGenerator_GenericTypeParameterBuilder_IsSubclassOf_m2266644074P21CustomAttributesCache
N0k:__ZL71ContactFilter2D_t3805203441_CustomAttributesCacheGenerator_useLayerMaskP21CustomAttributesCache
Jdg:__ZNK20Evidence_t200814414815get__hashCode_3Ev
mHc:__ZN10ClipperLib7Clipper15SetWindingCountERNS_5TEdgeE
dZf:_InstanceComparer_System_Collections_IHashCodeProvider_GetHashCode_m1305577427
gqg:__ZN43U3CGetEnumeratorU3Ec__Iterator0_t375079332416set_U3CiU3E__0_0Ei
l$d:__ZNK24MonoTypeInfo_t336698902518get_default_ctor_1Ev
UIi:_UriParser_set_DefaultPort_m4007715058
ric:__Z36CreateScriptingArrayFromUnityObjectsI13dynamic_arrayIP10GameObjectLj0EEE17ScriptingArrayPtrRKT_PKN5Unity4TypeE
qca:__ZN9Scripting11UnityEngine12Experimental9Rendering21CameraPropertiesProxy9InitProxyEv
jl:_glVertexAttribIPointer
Rmh:_StringBuilder_ToString_m3317489284
zeh:_Array_InternalArray__ICollection_Remove_TisUInt32_t2560061978_m733727733_gshared
E0f:_CryptographicException__ctor_m503735289
_Ed:_ConstructionCall_get_CallSiteActivationAttributes_m3498917408
EYh:__Z30InterlockedCompareExchangeImplIP24UnityAction_1_t682124106ET_PS2_S2_S2_
QKf:_Stream_EndRead_m1896469262
bci:__Z93RuntimeInvoker_Boolean_t97287965_Int32_t2950945753_SByte_t1669577662_ExceptionU26_t3600731591PFvvEPK10MethodInfoPvPS4_
wGf:_Guid_CompareTo_m243656946
wmk:_PlayableOutput__ctor_m3330119218_AdjustorThunk
OAg:__ZN32InternalEnumerator_1_t176556617111set_array_0EP11Il2CppArray
vVg:_Dictionary_2_GetObjectData_m3463318060_gshared
iPe:_RSASslSignatureDeformatter_SetHashAlgorithm_m895570787
pR:__ZL36TransformAccessArray_InitializeClassPv
Gai:_X509CrlEntry__ctor_m4013514048
OOe:__ZN25SslStreamBase_t166741340714set_protocol_6EP26RecordProtocol_t3759049701
zGf:__ZNK6Guid_t8get__b_1Ev
M7i:__ZN15dense_hashtableI10KeyWrapperIPK17Il2CppGenericInstES4_N6il2cpp8metadata21Il2CppGenericInstHashEN14dense_hash_setIS4_S7_NS4_14EqualsComparerINS6_24Il2CppGenericInstCompareEEENSt3__29allocatorIS4_EEE8IdentityESB_SE_E16reset_thresholdsEv
Vca:__ZN9Scripting11UnityEngine31ExcludeFromPresetAttributeProxy12CleanupProxyEv
r1h:__ZNK29TlsServerSettings_t414439643218get_certificates_0Ev
h1k:__ZL74ContactPoint2D_t3390240644_CustomAttributesCacheGenerator_m_OtherRigidbodyP21CustomAttributesCache
J5c:_OpCode_get_OperandType_m1634816806_AdjustorThunk
AXc:__ZN9Scripting11UnityEngine10Networking23CertificateHandlerProxy12CleanupProxyEv
x$e:__ZNK33X509KeyUsageExtension_t204210159116get__keyUsages_7Ev
K8k:__ZNKSt3__221__basic_string_commonILb1EE20__throw_length_errorEv
kEj:__ZN6il2cpp2vmL38TryGetExceptionFromRestrictedErrorInfoEP26Il2CppIRestrictedErrorInfo
Vmi:__Z52RuntimeInvoker_UInt64_t4134040092_Single_t1397266774PFvvEPK10MethodInfoPvPS4_
LAi:__ZNK27MatchCollection_t139536372010get_list_1Ev
ENd:__ZN46RemotingConfiguration_t4113740665_StaticFields19set_applicationID_0EP8String_t
F9c:__ZN31OpCodes_t126150456_StaticFields17set_Prefixref_198E17OpCode_t123070264
Qgh:_Array_InternalArray__IndexOf_TisParameterModifier_t1461694466_m1227120810_gshared
YAb:__ZN18GfxFramebufferGLES13ReadbackImageER14ImageReferenceiiiiii
dtc:__ZN5Unity9rapidjson6WriterI16TempBufferWriterNS0_4UTF8IcEES4_13JSONAllocatorE11WriteStringEPKcj
n0g:__ZNK45MSCompatUnicodeTable_t1453885583_StaticFields20get_ignorableFlags_1Ev
a_f:_SerializationInfo_SetType_m3923964808
V4:__ZN6prcoreL12RemapGenericI17TexFormatARGB888815TexFormatRGB565EEvPKNS_9InnerInfoE
Tx:__ZN4FMOD7Channel19setReverbPropertiesEPK29FMOD_REVERB_CHANNELPROPERTIES
WPi:_StandardEventPayload_GetParameters_m2672427676
lOf:_StreamReader_Dispose_m156389394
HU:__ZN13MonoBehaviour22GetScriptFullClassNameEv
Snj:_il2cpp_object_get_class
Iag:_SymmetricAlgorithm_get_Padding_m1011382560
udc:__ZN13ProduceHelperI11MonoManagerLb0EE7ProduceE10MemLabelId18ObjectCreationMode
W6f:_RIPEMD160Managed_JJ_m112143231
$Mh:_List_1_System_Collections_IList_Contains_m727430316_gshared
OJh:__Z27Enumerator__ctor_m504791950P21Enumerator_t652329154P18List_1_t3058052573PK10MethodInfo
A4g:_PreviousInfo_t2148130204_marshal_pinvoke_back
c3a:__ZNK16MemoryFileSystem9EnumerateEPKcP19dynamic_block_arrayI13FileEntryInfoLj32EEbPPv19FileEnumerationFlag
mob:__ZN13MonoBehaviour9CallAwakeEv
C3d:__ZN37AssemblyDelaySignAttribute_t17644165411set_delay_0Eb
nfg:__ZN40SecurityElement_t1046076091_StaticFields19set_invalid_chars_8EP22CharU5BU5D_t3528271667
Eua:__ZN20SphericalHarmonicsL211AddWeightedERKS_f
gfi:__Z82RuntimeInvoker_RuntimeObject_Int64_t3736567304_Int64_t3736567304_Int64_t3736567304PFvvEPK10MethodInfoPvPS4_
fse:__Z41Array_IndexOf_TisRuntimeObject_m828474689P12Il2CppObjectP24ObjectU5BU5D_t2843939325S0_iiPK10MethodInfo
Ifb:__Z19TransferField_ArrayI17RemapPPtrTransfer27Converter_SimpleNativeClassI8GUIStyleEEvRK23StaticTransferFieldInfoR31RuntimeSerializationCommandInfoRT0_
hKd:__ZN50RemotingSurrogateSelector_t2472351973_StaticFields22set__objRefSurrogate_1EP27ObjRefSurrogate_t3860276170
pmc:__ZN9JSONWrite8TransferI10ColorRGBAfEEvRT_PKc17TransferMetaFlags
IHf:__ZN16VirtFuncInvoker5IiP22ByteU5BU5D_t4116647657iiP22CharU5BU5D_t3528271667iE6InvokeEjP12Il2CppObjectS1_iiS3_i
SUc:__ZN11UnityEngine9Analytics22EventLimitResumedEventC2EjRKN4core12basic_stringIcNS2_20StringStorageDefaultIcEEEEb
EKg:_InternalEnumerator_1__ctor_m3913006324_AdjustorThunk
ZU:__Z25scripting_method_get_name18ScriptingMethodPtr
XQe:_SslCipherSuite_ComputeKeys_m661027754
aeb:__Z19TransferField_ArrayI14SafeBinaryRead16Converter_StringEvRK23StaticTransferFieldInfoR31RuntimeSerializationCommandInfoRT0_
CVk:__ZL68UpdateCanvasRectTransform_t1832875547_CustomAttributesCacheGeneratorP21CustomAttributesCache
UKd:__Z25Il2CppCodeGenWriteBarrierI34MethodReturnDictionary_t2551046119EvPPT_S2_
tWd:__ZN27NumberFormatter_t118292462122set__isCustomFormat_10Eb
t6d:__ZN26AssemblyBuilder_t3598852509set_sn_43EP22StrongName_t4093849377
xpf:_Decimal_Equals_m2486655999
W1j:_GC_exit_check
v4d:_AssemblyName_SetPublicKeyToken_m582470133
C0h:__ZNK31InternalAsyncResult_t350428282014get__offset_10Ev
qtj:__ZNK30dense_hashtable_const_iteratorINSt3__24pairIK10KeyWrapperINS1_IPK11Il2CppImageP11Il2CppClassEEEjEES9_17ReflectionMapHashIS8_EN14dense_hash_mapIS9_jSD_NS9_14EqualsComparerINS0_8equal_toIS8_EEEENS0_9allocatorISB_EEE9SelectKeyESI_SK_EdeEv
PNg:__Z26Enumerator__ctor_m65667165P22Enumerator_t1957567516P21Dictionary_2_t3384741PK10MethodInfo
UA:__ZNK4PPtrI9AudioClipEcvPS0_Ev
JT:__Z20UnlockObjectCreationv
gNb:__Z34SetupObjectBakedOcclusionInForwardbRK15SharedLightDataRK26SharedLightmapSettingsDataRK15LightmapIndicesR17ShaderPassContext
l8g:_DSAManaged_get_Random_m923751780
tR:__ZL29TransformAccessChangeCallbackPK15TransformAccessj
fvc:__ZL53__ManagedRegistrationHelperFunction_RaycastHit2DProxyPv
c8e:_Interpreter_PopulateGroup_m4042796257
G3d:__ZN38AssemblyFileVersionAttribute_t1492797210set_name_0EP8String_t
cXb:__ZNSt3__26vectorINS_4pairIN4core12basic_stringIcNS2_20StringStorageDefaultIcEEEES6_EE13stl_allocatorIS7_L18MemLabelIdentifier38ELi16EEE6insertENS_11__wrap_iterIPKS7_EERSD_
Agk:_RenderPipelineManager_DoRenderLoop_Internal_m3799666479
dYf:__ZNK25TypeTagU5BU5D_t156391866414GetAtUncheckedEj
LHi:__ZN14Uri_t10023632414set_userinfo_8EP8String_t
lXi:__ZL24UnresolvedVirtualCall_27P12Il2CppObjectS0_aPK10MethodInfo
Q1d:_Object_FieldSetter_m3873125190
Zg:_emscripten_glStencilOpSeparate
l7h:_PKCS12_get_Certificates_m26161562
bTe:_NameObjectCollectionBase_Init_m2525481323
fMb:__ZN15SkyboxGenerator28GetCubemapSkyboxVertexFormatEv
r7a:__ZN19ShaderPropertySheet24SetTextureWithExplicitIDERK23FastTexturePropertyNameP7Texture9TextureID
wfj:__ZN6il2cpp2os19SocketHandleWrapperC2ERKS1_
VKh:_List_1_Insert_m1582252370_gshared
rYj:__ZN6il2cpp2vm6String8NewUtf16EPKDsi
kVj:__ZN6il2cpp2os10ThreadImpl12QueueUserAPCEPFvPvES2_
_Ci:_RegularExpression__ctor_m119502265
TUc:__ZN22BaseUnityConnectClient10QueueEventERN11UnityEngine15CloudWebService17CloudServiceEventEPKcjb
gVh:_ReadOnlyCollection_1_System_Collections_Generic_ICollectionU3CTU3E_Clear_m522482168_gshared
CId:_MethodResponse_System_Runtime_Remoting_Messaging_IInternalMessage_get_Uri_m3937741607
fFd:_ConstructionCall_InitMethodProperty_m2021094586
L6:__ZL48__ManagedRegistrationHelperFunction_TextureProxyPv
Xkg:__ZN20Encoding_t152332205624set_is_mail_news_save_12Eb
Xda:__ZN9Scripting11UnityEngine15BoneWeightProxy12CleanupProxyEv
_6b:__ZN23TextureStreamingResultsC2Ev
Rjk:__ZN40U3CRegisterU3Ec__AnonStorey0_t240559509015set_messageId_0E6Guid_t
eCc:__ZN7b2World19ContactsCollideTaskEv
IG:__ZN23CloudWebServicesManager25RemoveCloudServiceHandlerEP19CloudServiceHandler
IBd:_MethodDictionary_get_InternalProperties_m321207497
N_k:__ZL53SpriteAtlas_t646931412_CustomAttributesCacheGeneratorP21CustomAttributesCache
gQh:__Z25Il2CppCodeGenWriteBarrierI19Queue_1_t1200778106EvPPT_S2_
ZUj:__ZN6il2cpp5utils9HashUtils18AlignedPointerHashEPv
Yje:__ZNK26DelegateU5BU5D_t170362784014GetAtUncheckedEj
_f:_emscripten_glGetError
i8d:__ZN23ILGenerator_t138862234414set_code_len_2Ei
Yy:__Z14FMOD_FILE_SeekPvjS_
xCg:__Z37InternalEnumerator_1__ctor_m236665673P32InternalEnumerator_1_t1391455104P11Il2CppArrayPK10MethodInfo
ddj:__ZN14dense_hash_mapI10KeyWrapperIPK11Il2CppClassEPKcN6il2cpp5utils11PointerHashIS1_EENS4_14EqualsComparerINSt3__28equal_toIS3_EEEENSC_9allocatorINSC_4pairIKS4_S6_EEEEE3endEv
Qvd:__ZN39ClientContextTerminatorSink_t406411502114set__context_0EP19Context_t3285446944
Kva:__ZN7TextureC2E10MemLabelId18ObjectCreationMode
Xaj:__ZN14dense_hash_mapI10KeyWrapperIN6il2cpp5utils13dynamic_arrayIPK10Il2CppTypeLj4EEEEPFvvENS1_8metadata19Il2CppSignatureHashENS8_14EqualsComparerINSB_22Il2CppSignatureCompareEEENSt3__29allocatorINSG_4pairIKS8_SA_EEEEEC2EjRKSC_RKSF_
yVc:__Z56Register_UnityEngine_Analytics_CustomEventData_AddStringv
sBh:_ValueType_t3640485471_marshal_pinvoke_cleanup
BTb:__ZNK13RenderTexture32CalculateNeedsInvertedProjectionEv
qZb:__ZN10systeminfo18GetOperatingSystemEv
w$c:_Label__ctor_m4171632839
ELj:__ZN14dense_hash_mapI10KeyWrapperINSt3__24pairIPKcS4_EEEi24NamespaceAndNamePairHashNS6_14EqualsComparerI26NamespaceAndNamePairEqualsEENS1_9allocatorINS2_IKS6_iEEEEED2Ev
tX:__Z19CanReplaceComponentRN5Unity9ComponentEPKNS_4TypeEPN4core12basic_stringIcNS5_20StringStorageDefaultIcEEEE
xRf:_UnmanagedMemoryStream_Flush_m1540584491
Ywd:__ZN25ReturnMessage_t137698560816set__exception_6EP11Exception_t
_Ff:_GuidParser_ParseGuid2_m1914838819
R8b:__ZN12CubemapArray11InitTextureEiii13TextureFormatb
$Nh:_List_1_System_Collections_IList_get_Item_m1112579679_gshared
vjf:_Convert_ToSingle_m3983149863
Xrg:_InternalEnumerator_1_System_Collections_IEnumerator_get_Current_m55999184_gshared
D0d:__ZN19MulticastDelegate_t15set_kpm_next_10EPS_
LCh:_RSA_Create_m2021570897
Z1j:_GC_print_all_errors
frj:__ZN24dense_hashtable_iteratorINSt3__24pairIK10KeyWrapperIPK10Il2CppTypeEjEES6_N6il2cpp8metadata14Il2CppTypeHashEN14dense_hash_mapIS6_jSB_NS6_14EqualsComparerINSA_26Il2CppTypeEqualityComparerEEENS0_9allocatorIS8_EEE9SelectKeyESF_SH_E30advance_past_empty_and_deletedEv
l7g:_BitConverterLE_GetULongBytes_m1393773100
NJd:__ZN29MonoMethodMessage_t28076369449set_uri_8EP8String_t
UMb:__ZL24AssignProjectorQueuesJobP30AssignProjectorQueuesJobHeader
C8d:__ZNK25DynamicMethod_t253777957013get_method_15Ev
bGh:_KeyValuePair_2_get_Key_m1218836954_gshared
aZi:__ZL25UnresolvedVirtualCall_124P12Il2CppObjectPK10MethodInfo
Wid:_ParameterModifier_t1461694466_marshal_pinvoke
SHg:__Z44InternalEnumerator_1_get_Current_m1007906068P32InternalEnumerator_1_t1629489814PK10MethodInfo
A3b:__ZNSt3__26vectorIN9ShaderLab20SerializedSubProgram15StructParameterENS_9allocatorIS3_EEE21__push_back_slow_pathIS3_EEvOT_
eSf:_Int16_System_IConvertible_ToUInt32_m3410279543
n3b:__ZN9ShaderLab20SerializedSubProgram14SetConstBufferEPKci
Skj:__ZN6il2cpp2os4File5CloseEPNS0_10FileHandleEPi
DPg:__ZNK23Dictionary_2_t13254515214get_keySlots_6Ev
ine:__ZN18VirtActionInvoker2IP12Il2CppObjectP33AssemblyLoadEventArgs_t2792010465E6InvokeEjS1_S1_S3_
Urh:_Thread_GetDomain_m1615404259
Mti:__Z48RuntimeInvoker_Boolean_t97287965_Link_t544317964PFvvEPK10MethodInfoPvPS4_
TEd:__ZNK28ConstructionCall_t401159474522get__activationType_15Ev
gyh:_UInt16_CompareTo_m2664746316_AdjustorThunk
B3a:__ZN9GfxDevice13SetActiveTierE12GraphicsTier
drc:__Z29Transfer_Blittable_ArrayFieldI8JSONReadjEvRT_R9ArrayInfoRK23StaticTransferFieldInfo
pQc:__ZN11UnityEngine9Analytics15DeviceInfoEvent7GFXInfoD2Ev
a2j:_GC_check_finalizer_nested
Oib:__Z18Transfer_BlittableI19StreamedBinaryWriteLb0E8Vector4fEvRK29SerializationCommandArgumentsR31RuntimeSerializationCommandInfo
me:__setLetterbox
jff:__ZNK33DateTime_t3738529785_StaticFields27get_DayMonthShortFormats_10Ev
Frg:__ZNK32InternalEnumerator_1_t423993200911get_array_0Ev
L5g:_BigInteger_op_LessThanOrEqual_m2553515144
r3k:__ZN27ContactFilter2D_t380520344127set_useOutsideNormalAngle_5Eb
p_k:__ZL72FormerlySerializedAsAttribute_t2859083114_CustomAttributesCacheGeneratorP21CustomAttributesCache
kPa:__ZNSt3__26vectorI17BlendShapeChannelNS_9allocatorIS1_EEE6assignINS_11__wrap_iterIPS1_EEEENS_9enable_ifIXaasr21__is_forward_iteratorIT_EE5valuesr16is_constructibleIS1_NS_15iterator_traitsISA_E9referenceEEE5valueEvE4typeESA_SA_
tce:_StrongName__ctor_m3939359439
vtb:__Z12SetGfxDeviceP9GfxDevice
f8i:__ZNK10KeyWrapperIPK17Il2CppGenericInstE8isNormalEv
gfc:__ZN22AnimationCurveBindings7SetKeysEP17AnimationCurveTplIfERK13dynamic_arrayI11KeyframeTplIfELj0EE
jZb:__ZN11TimeManager11GetRealtimeEv
mlk:_Object_GetHashCode_m1944636947
YHf:_BinaryReader_ReadUInt32_m2210658763
vJh:_Enumerator_Dispose_m3500272053_gshared
sz:__ZN29AudioEffectInternalDefinitionC2EP26UnityAudioEffectDefinitionb
P5i:__ZN14dense_hash_mapI10KeyWrapperIP9FieldInfoEiN6il2cpp5utils11PointerHashIS1_EENS3_14EqualsComparerINSt3__28equal_toIS2_EEEENS9_9allocatorINS9_4pairIKS3_iEEEEED2Ev
rSg:_ShimEnumerator_get_Value_m1878724567_gshared
bXg:_Dictionary_2_System_Collections_Generic_ICollectionU3CSystem_Collections_Generic_KeyValuePairU3CTKeyU2CTValueU3EU3E_Contains_m2803718146_gshared
Mjk:_PlayerConnection_OnEnable_m4286555589
qxf:_CultureInfo_get_IcuName_m2258611679
R4h:__ZNK28ValidationResult_t383429873613get_trusted_0Ev
VCc:__ZN35b2SynchronizeContinuousFixturesTaskD2Ev
wmj:__ZNSt3__2plIcNS_11char_traitsIcEENS_9allocatorIcEEEENS_12basic_stringIT_T0_T1_EERKS9_PKS6_
vjk:__ZN40PlayerEditorConnectionEvents_t341178751321set_connectionEvent_1EP33ConnectionChangeEvent_t3251856151
q8f:_SHA384Managed__ctor_m3220477113
vki:__Z110RuntimeInvoker_Void_t1185182177_RuntimeObject_StreamingContext_t3711869237_Int32_t2950945753_Int32_t2950945753PFvvEPK10MethodInfoPvPS4_
WCa:_stbir_resize
kgh:_Array_IndexOf_TisCustomAttributeTypedArgument_t2723150157_m3158556463_gshared
PZg:_EqualityComparer_1_System_Collections_IEqualityComparer_GetHashCode_m360549782_gshared
vq:__GLOBAL__sub_I_AnimationScriptingClasses_cpp
Vtf:_Environment_GetOSVersionString_m407782784
nmg:_DecoderExceptionFallback_Equals_m1082173956
lEj:__ZN6il2cpp2vmL33GetMessageFromRestrictedErrorInfoEP26Il2CppIRestrictedErrorInfo
Qhd:__ZNK28MonoPropertyInfo_t308735606612get_parent_0Ev
eyg:__ZNK32InternalEnumerator_1_t38580098709get_idx_1Ev
KBk:__ZL69Assembly_t_CustomAttributesCacheGenerator_Assembly_GetName_m981771927P21CustomAttributesCache
hzc:__ZN24b2ChainAndCapsuleContact6CreateEP9b2FixtureiS1_iP16b2BlockAllocator
FHa:__ZN13dynamic_arrayI29StreamingTextureFinalMipLevelLj0EE18resize_initializedEjRKS0_12ResizePolicy
u1a:__Z37ReadDirectoryInfo_UnityWebAndUnityRawR12FileAccessorRKN20ArchiveStorageHeader6HeaderERNS1_13DirectoryInfoE
HR:__ZNSt3__26__treeINS_12__value_typeIPKciEENS_19__map_value_compareIS3_S4_15compare_tstringIS3_ELb1EEENS_9allocatorIS4_EEE7destroyEPNS_11__tree_nodeIS4_PvEE
p1e:_X509Certificate2_get_IssuerName_m1277209535
WEk:__ZL52LeaseState_t747101024_CustomAttributesCacheGeneratorP21CustomAttributesCache
p_g:_Locale_GetText_m3374010885
rEh:_RijndaelManaged_CreateEncryptor_m263736311
hrh:_WaitCallback__ctor_m1893321019
b8d:__ZNK21LabelFixup_t85850205415get_label_idx_2Ev
Ria:__ZN17GlobalGameManager23VirtualRedirectTransferER18StreamedBinaryRead
Ewe:__Z25Il2CppCodeGenWriteBarrierI28SerializationInfo_t950877179EvPPT_S2_
RWf:__ZNK27BaseFixupRecord_t318565345622get_NextSameRequired_3Ev
JJj:__ZN6il2cpp2vm12ReboxIfBoxedEP14Il2CppIUnknownP11Il2CppClass
upb:__ZN25PathNamePersistentManagerD2Ev
rUa:__ZN17PersistentManager48IntegrateObjectAndUnlockIntegrationMutexInternalEi
QYk:__ZL85NativeDisableUnsafePtrRestrictionAttribute_t2582701661_CustomAttributesCacheGeneratorP21CustomAttributesCache
l3:__ZZ29InitializeSortingGroupManagerPvEN44PostLateUpdateSortingGroupsUpdateRegistrator7ForwardEv
qfg:_SecurityElement_SearchForChildByTag_m900466299
Phh:_Array_InternalArray__ICollection_Add_TisMonoResource_t4103430009_m2699164149_gshared
Qo:__ZN6Object12SetHideFlagsENS_9HideFlagsE
pyc:__ZN9b2Fixture11SynchronizeEP12b2BroadPhaseRK11b2TransformS4_
ojf:_Convert_ToSingle_m3227075028
uwd:__ZNK19Context_t328544694422get_callback_object_13Ev
RSb:__ZN13RendererScene15InitializeUmbraEv
LTf:__ZN46U3CRegisterObjectU3Ec__AnonStorey3_t35165111439set_obj_1EP12Il2CppObject
vsa:__Z28CalculateGlobalMatrixInverse23TransformAccessReadOnly
Hje:_AppDomain_InternalSetDomain_m3622943898
yFh:_GenericEqualityComparer_1_Equals_m3457564127_gshared
gye:_BigInteger_ModInverse_m2426215562
Q1:__ZN17CallbackArrayBaseIPFvPK9IndexListPK16RendererCullDataEPFvPKvS2_S5_EE8RegisterES7_SB_S9_
czb:__ZN4gles15UpdateDepthTestER15DeviceStateGLESPK20DeviceDepthStateGLESb
jmg:_DecoderExceptionFallback__ctor_m4044614564
Ryg:_InternalEnumerator_1_System_Collections_IEnumerator_Reset_m3011999097_AdjustorThunk
Xud:__ZN16VirtFuncInvoker1IP11Il2CppArrayP6Type_tE6InvokeEjP12Il2CppObjectS3_
QAj:__ZN6il2cpp2vm6Thread17FullMemoryBarrierEv
DYd:_LocalDataStoreSlot__cctor_m644942532
Dhd:_MonoProperty_CachePropertyInfo_m2968057423
HXc:__ZNK25UnityWebRequestJavaScript18GetDownloadedBytesEv
Kzk:__ZL53RegionInfo_t1090270226_CustomAttributesCacheGeneratorP21CustomAttributesCache
m3c:__ZN18VirtActionInvoker1I17OpCode_t123070264E6InvokeEjP12Il2CppObjectS0_
Suk:__ZL74Single_t1397266774_CustomAttributesCacheGenerator_Single_IsNaN_m4024467661P21CustomAttributesCache
LNf:__ZN29Path_t1605229823_StaticFields21set_dirEqualsVolume_7Eb
UXc:__ZN12HeaderHelper14SetUnvalidatedERKN4core12basic_stringIcNS0_20StringStorageDefaultIcEEEES6_b
yx:__ZN4FMOD6SoundI7releaseEv
kNa:__ZN14SpriteRenderer13AwakeFromLoadE17AwakeFromLoadMode
U1a:__ZN10MemoryFile9SetLengthEy
Nhb:__ZN5RectTIiE8TransferI24GenerateTypeTreeTransferEEvRT_
bxc:__ZNK15b2RevoluteJoint10GetAnchorBEv
jwf:_Exception_get_ClassName_m2428844642
Qob:__Z28scripting_class_is_interface17ScriptingClassPtr
Lk:_glTexStorage2D
y7c:__ZN31OpCodes_t126150456_StaticFields15set_Stind_I4_83E17OpCode_t123070264
hid:_MonoProperty_GetOptionalCustomModifiers_m62958967
Txa:__ZNK9ShaderLab10SubProgram14EnsureCompiledEv
gld:__ZNK40ResourceManager_t4037989559_StaticFields25get_HeaderVersionNumber_2Ev
fnf:_DateTime_CompareTo_m3687348273
E0j:_GC_push_marked
Dnf:_DateTime_ToUniversalTime_m1945318289_AdjustorThunk
o5g:_Kernel_modInverse_m668448880
Ssf:_Enum_t4135868527_marshal_pinvoke
PU:__Z18BuildScriptClassId17ScriptingClassPtr
bbh:_RSAManaged_Finalize_m3915335854
pxf:__ZNK23CompareInfo_t109293496214get_collator_5Ev
No:__ZNK16LevelGameManager7GetNameEv
Uij:__ZNKSt3__26vectorIN6il2cpp6icalls8mscorlib6System12PropertyPairENS_9allocatorIS5_EEE8max_sizeEv
akd:_TypeDelegator_GetElementType_m4265261164
G$a:__ZL31DeleteLastPathNameComponentImplRKN4core12basic_stringIcNS_20StringStorageDefaultIcEEEEPKc
Blf:_DBNull_System_IConvertible_ToUInt64_m4072736670
WPc:__ZN18UnityConnectClient15GetCloudServiceEv
xdb:__Z29Transfer_Blittable_ArrayFieldI14SafeBinaryRead5RectTIiEEvRT_R9ArrayInfoRK23StaticTransferFieldInfo
BAg:_InternalEnumerator_1_get_Current_m2698009637_gshared
pfj:__ZN6il2cpp2os19SocketHandleWrapperD2Ev
$jk:_U3CAddAndCreateU3Ec__AnonStorey1__ctor_m1186055370
Nyc:__ZN15b2CircleContact6CreateEP9b2FixtureiS1_iP16b2BlockAllocator
Lob:__ZL28SerializationCommandGroupForRK31TransferFunctionScriptingTraits17ScriptingClassPtr17ScriptingFieldPtrRK20CoreScriptingClasses
mia:__ZN10TagManager32RegisterDefaultTagsAndLayerMasksEv
kNe:__ZN24TlsClientHello_t9796599812set_random_9EP22ByteU5BU5D_t4116647657
imi:__Z50RuntimeInvoker_Double_t594665363_Int32_t2950945753PFvvEPK10MethodInfoPvPS4_
xXh:_Predicate_1_EndInvoke_m1490920825_gshared
NMk:__ZL78LoaderOptimization_t1484956347_CustomAttributesCacheGenerator_DisallowBindingsP21CustomAttributesCache
cXg:_Dictionary_2_System_Collections_Generic_ICollectionU3CSystem_Collections_Generic_KeyValuePairU3CTKeyU2CTValueU3EU3E_CopyTo_m3122240003_gshared
s1i:__ZN6il2cpp2vm5Class20GetBoundedArrayClassEP11Il2CppClassjb
Ygg:_Single_System_IConvertible_ToInt16_m809233024_AdjustorThunk
AVc:__Z56Register_UnityEngine_Analytics_CustomEventData_AddUInt32v
S6k:_fmodf
VLc:__Z75Register_UnityEngine_Physics2D_GetRayIntersectionNonAlloc_Internal_Injectedv
Imd:__Z36il2cpp_codegen_com_get_or_create_ccwI14Il2CppIUnknownEPT_P12Il2CppObject
Xt:__ZN4PPtrI13MonoBehaviourE8TransferI18StreamedBinaryReadEEvRT_
dwb:__ZN13GfxDeviceGLES22GetNativeBufferPointerEP9GfxBuffer
mYf:__ZNK24ObjectReader_t194095739224get__typeMetadataCache_6Ev
lua:__Z24CalculateVertexLightDataRK15SharedLightDataR14GfxVertexLight
uj:_glEnable
dDj:__ZN10KeyWrapperIP11Il2CppClassEC2ERKS1_
PGg:_InternalEnumerator_1_MoveNext_m973048327_gshared
Pxa:__ZNK9ShaderLab7Program28BeginReadUnsupportedVariantsEv
aga:__ZN12CachedWriter11Align4WriteEv
eTa:__ZNSt3__26vectorIN30RuntimeInitializeOnLoadManager9ClassInfoE13stl_allocatorIS2_L18MemLabelIdentifier13ELi16EEE7reserveEj
AKi:__ZNK21UriParser_t389015040017get_scheme_name_2Ev
Bmc:__Z35Transfer_Blittable_FixedBufferFieldI9JSONWriteiEvRK29SerializationCommandArgumentsR31RuntimeSerializationCommandInfo
sWj:__ZN14dense_hash_mapI10KeyWrapperIPK19Il2CppGenericMethodEP10MethodInfoN6il2cpp8metadata23Il2CppGenericMethodHashENS4_14EqualsComparerINS8_26Il2CppGenericMethodCompareEEENSt3__29allocatorINSD_4pairIKS4_S6_EEEEED2Ev
o0i:__ZN41RequiredByNativeCodeAttribute_t413084635735set_U3COptionalU3Ek__BackingField_0Eb
Kyj:__ZN14dense_hash_mapI10KeyWrapperINSt3__24pairIPK10MethodInfoP11Il2CppClassEEEj17ReflectionMapHashIS8_ENS9_14EqualsComparerINS1_8equal_toIS8_EEEENS1_9allocatorINS2_IKS9_jEEEEEC2EjRKSB_RKSF_
dlb:__Z18Transfer_BlittableI18StreamedBinaryReadLb1E10Matrix4x4fEvRK29SerializationCommandArgumentsR31RuntimeSerializationCommandInfo
yTg:__ZN16VirtFuncInvoker2I26KeyValuePair_2_t2401056908P12Il2CppObjectiE6InvokeEjS2_S2_i
$Fk:__ZL54SoapServices_t133988723_CustomAttributesCacheGeneratorP21CustomAttributesCache
RQf:_UnexceptionalStreamReader_Peek_m1842169584
T0g:__ZN47MSCompatUnicodeTableUtil_t88013251_StaticFields12set_CjkCHS_5EP28CodePointIndexer_t4134431086
_Qh:_Queue_1_System_Collections_IEnumerable_GetEnumerator_m3464578225_gshared
Htk:_TypeInferenceRuleAttribute__ctor_m2736695831
Keg:__ZNK27WindowsIdentity_t294824240611get__name_4Ev
j1f:_CryptographicException__ctor_m1422015889
K$e:__ZNK25OidCollection_t423476684411get__list_0Ev
tRd:_BinaryFormatter_NoCheckDeserializeMethodResponse_m1919376975
ks:__ZN9Scripting11UnityEngine14HumanBoneProxy12CleanupProxyEv
ykf:_Convert_ChangeType_m739676612
WAj:__ZN14dense_hash_mapI10KeyWrapperINSt3__24pairIP11Il2CppClassjEEES4_N6il2cpp8metadata14ArrayClassHashENS6_14EqualsComparerINS8_17ArrayClassCompareEEENS1_9allocatorINS2_IKS6_S4_EEEEED2Ev
WSd:_Int32_System_IConvertible_ToInt32_m265310525_AdjustorThunk
q8k:_atol
vAi:__ZNK30Match_t3408321083_StaticFields12get_empty_10Ev
$fg:__ZNK36RuntimeDeclSecurityEntry_t314446915610get_blob_0Ev
uFe:_Alert_GetAlertMessage_m1942367141
mvd:_RemotingServices_GetRealProxy_m2081098851
mwj:__ZNK30dense_hashtable_const_iteratorINSt3__24pairIK10KeyWrapperINS1_IPK9EventInfoP11Il2CppClassEEEjEES9_17ReflectionMapHashIS8_EN14dense_hash_mapIS9_jSD_NS9_14EqualsComparerINS0_8equal_toIS8_EEEENS0_9allocatorISB_EEE9SelectKeyESI_SK_EeqERKSN_
E7g:_BlockProcessor_Core_m189015002
N5i:__ZN15dense_hashtableINSt3__24pairIK10KeyWrapperIPKcEP11Il2CppClassEES5_N6il2cpp5utils11StringUtils12StringHasherIS4_EEN14dense_hash_mapIS5_S8_SE_NS5_14EqualsComparerINSB_13VmStringUtils21CaseSensitiveComparerEEENS0_9allocatorIS9_EEE9SelectKeyESJ_SL_EC2EjRKSE_RKSJ_RKSN_
Gjl:_emscripten_glScissor__wrapper
Pn:FUNCTION_TABLE_viifi
Mn:FUNCTION_TABLE_viiff
Oxh:_UInt16_System_IConvertible_ToDouble_m333121300_AdjustorThunk
Lee:__ZNK26X509Certificate_t48924302416get_signature_11Ev
$5g:_PrimalityTests_Test_m2932837908
mxk:__ZL37Type_t_CustomAttributesCacheGeneratorP21CustomAttributesCache
mBc:__ZNSt3__26__sortIRN18Overlap2DQueryBase29ColliderHitsByDepthComparitorEPP10Collider2DEEvT0_S7_T_
oBj:__ZN15dense_hashtableINSt3__24pairIK10KeyWrapperINS1_IP11Il2CppClassjEEES4_EES6_N6il2cpp8metadata14ArrayClassHashEN14dense_hash_mapIS6_S4_SB_NS6_14EqualsComparerINSA_17ArrayClassCompareEEENS0_9allocatorIS8_EEE9SelectKeyESF_SH_E5clearEv
Tgi:__Z88RuntimeInvoker_RuntimeObject_RuntimeObject_RuntimeObject_Int32_t2950945753_RuntimeObjectPFvvEPK10MethodInfoPvPS4_
R4i:__ZNSt3__218uninitialized_copyIPNS_4pairIK10KeyWrapperIPK11Il2CppClassEPKcEESB_EET0_T_SD_SC_
blj:__ZN6il2cpp2vm14TypeNameParser5ParseEb
n2j:_GC_grow_table
$Yd:_Math_Sqrt_m1297338011
SOf:_StreamWriter_Initialize_m3490883444
bIk:__ZL66StrongNamePublicKeyBlob_t3355146440_CustomAttributesCacheGeneratorP21CustomAttributesCache
_wh:_Type_GetGenericArguments_m3500465462
eej:__ZN15dense_hashtableINSt3__24pairIK10KeyWrapperIP9FieldInfoEiEES5_N6il2cpp5utils11PointerHashIS3_EEN14dense_hash_mapIS5_iSB_NS5_14EqualsComparerINS0_8equal_toIS4_EEEENS0_9allocatorIS7_EEE9SelectKeyESG_SI_E12resize_deltaEjj
_Sg:__ZN16VirtFuncInvoker2IP12Il2CppObjectS1_bE6InvokeEjS1_S1_b
ZWc:__ZN23UnityPurchasingSettingsC2Ev
Yed:_Module_IsDefined_m2423524910
A4e:_X509Certificate2Enumerator__ctor_m1083666285
ana:__ZN17GPUFenceInternals7ReleaseEv
Akd:_ResolveEventHandler__ctor_m1911137231
Rec:__ZN17MaterialScripting18CreateWithMaterialE21ScriptingObjectOfTypeI8MaterialEPS1_
_lb:__ZN8Gradient8TransferI18StreamedBinaryReadEEvRT_
MWh:__Z35il2cpp_codegen_is_fake_boxed_objectP12Il2CppObject
Lyi:_Interval_get_IsEmpty_m2731597232_AdjustorThunk
jgh:_Array_IndexOf_TisCustomAttributeNamedArgument_t287865710_m2817957199_gshared
VHd:__ZN44MethodCallDictionary_t605791082_StaticFields18set_InternalKeys_6EP24StringU5BU5D_t1281789340
eyf:__ZN23CultureInfo_t415784306815set_win3lang_24EP8String_t
u5h:_ExtendedKeyUsageExtension_ToString_m2116504780
dXa:__ZNK5Unity9Component38MarkGameObjectAndComponentDependenciesER27GarbageCollectorThreadState
FHf:_BinaryReader_Read_m3708759962
QC:__ZNK7Texture21GetShadowSamplingModeEv
oV:__ZNK11TypeManager15ClassNameToRTTIEPKcb
hAi:__ZN17Match_t340832108313set_machine_7EP12Il2CppObject
fJa:__ZN13ScreenManager21OnWindowRegainedFocusEv
chl:_emscripten_glVertexAttrib2fv__wrapper
mEh:__ZNK41RijndaelTransform_t631222241_StaticFields11get_SBox_17Ev
hZc:__ZN13RuntimeStaticINSt3__26vectorIPN5physx15PxVehicleWheelsENS0_9allocatorIS4_EEEELb0EE13StaticDestroyEPv
TPf:_SynchronizedReader_ReadToEnd_m2160105378
vsf:_Double_System_IConvertible_ToUInt16_m4132603953_AdjustorThunk
zEa:__ZN4crnd12symbol_codec32decode_receive_static_data_modelERNS_25static_huffman_data_modelE
w7b:__ZN18ScriptingArguments8AddFloatEf
WVk:__ZL66PlayerSendFrameComplete_t3284237406_CustomAttributesCacheGeneratorP21CustomAttributesCache
DVj:__ZN6il2cpp2vmL24HexValueToLowercaseAsciiEh
tRc:__ZN11UnityEngine15PlatformWrapper16GetVRRenderScaleEv
Bnc:__Z18Transfer_BlittableI9JSONWriteLb0EaEvRK29SerializationCommandArgumentsR31RuntimeSerializationCommandInfo
JPh:__ZNK22Enumerator_t35882777609get_ver_2Ev
RG:__ZN11UnityEngine15CloudWebService14DataDispatcher34OnSessionContainerArchivedAndReadyERNS0_16SessionContainerE
Gvh:__ZN19Type_t_StaticFields21set_FilterAttribute_4EP23MemberFilter_t426314064
Svc:__ZN7b2World11CreateJointEPK10b2JointDef
Dye:_Kernel_Multiply_m193213393
L_d:_IntComparer__ctor_m2901422390
Bkd:_ResolveEventHandler_Invoke_m1337322179
hHk:__ZL50HMACMD5_t2742219965_CustomAttributesCacheGeneratorP21CustomAttributesCache
CPd:__ZNK36SoapServices_t133988723_StaticFields16get__typeInfos_4Ev
HJc:__ZN7b2World11DestroyBodyEP6b2Body
OIi:_UriParser_InternalRegister_m3643767086
P_b:__ZN14SafeBinaryRead19TransferSTLStyleMapINSt3__23mapIN4core12basic_stringIcNS3_20StringStorageDefaultIcEEEEiNS1_4lessIS7_EENS1_9allocatorINS1_4pairIKS7_iEEEEEEEEvRT_17TransferMetaFlags
ZBf:_DateTimeFormatInfo_get_RawAbbreviatedDayNames_m1257850285
Itj:__ZN15dense_hashtableINSt3__24pairIK10KeyWrapperINS1_IPK11Il2CppImageP11Il2CppClassEEEjEES9_17ReflectionMapHashIS8_EN14dense_hash_mapIS9_jSD_NS9_14EqualsComparerINS0_8equal_toIS8_EEEENS0_9allocatorISB_EEE9SelectKeyESI_SK_ED2Ev
xlf:_DBNull_System_IConvertible_ToSingle_m13713620
jdk:__Z25Il2CppCodeGenWriteBarrierI33DisplaysUpdatedDelegate_t51287044EvPPT_S2_
Bxj:__ZNK10KeyWrapperIPK14Il2CppAssemblyEcvRKS2_Ev
EPj:__ZNK10KeyWrapperIP12Il2CppObjectEcvRKS1_Ev
qbk:_CameraCallback__ctor_m899467377
hvj:__ZN6il2cpp2vm10Reflection14GetEventObjectEP11Il2CppClassPK9EventInfo
UAi:__Z25Il2CppCodeGenWriteBarrierI27MatchCollection_t1395363720EvPPT_S2_
pxh:_TypeLoadException__ctor_m1154572625
Aza:__ZNSt3__27__sort4IRPFbRKNS_4pairIN9ShaderLab16FastPropertyNameE10ColorRGBAfEES7_EPS5_EEjT0_SC_SC_SC_T_
$uk:__ZL75Decimal_t2948259380_CustomAttributesCacheGenerator_Decimal__ctor_m593929528P21CustomAttributesCache
zKe:_Context_get_WriteSequenceNumber_m1115956887
tje:_Activator_CreateInstanceInternal_m1337209899
Klh:_Dictionary_2_Do_ICollectionCopyTo_TisKeyValuePair_2_t2401056908_m1169495264_gshared
W5c:_OpCodes__cctor_m3821715395
nkd:__ZN16VirtFuncInvoker2IbP6Type_tbE6InvokeEjP12Il2CppObjectS1_b
MOk:__ZL56TypeConverter_t2249118273_CustomAttributesCacheGeneratorP21CustomAttributesCache
pve:__Z25Il2CppCodeGenWriteBarrierI43CaseInsensitiveHashCodeProvider_t1962629119EvPPT_S2_
Hjj:__ZN6il2cpp5utils9PathUtils13DirectoryNameIcEENSt3__212basic_stringIT_NS3_11char_traitsIS5_EENS3_9allocatorIS5_EEEERKNS0_10StringViewIS5_EE
Ppa:__Z26TransformVerticesInnerLoopILb1ELb0ELb0EEvPhRK10Matrix4x4fRK10Matrix3x3fjPKhiS8_ii25GfxTransformVerticesFlagsj
Xrc:__ZN8JSONRead8TransferI9BoundsIntEEvRT_PKc17TransferMetaFlagsb
jTj:__ZN24dense_hashtable_iteratorINSt3__24pairIK10KeyWrapperIPcES3_EES4_N6il2cpp5utils15PassThroughHashIS3_EEN14dense_hash_mapIS4_S3_SA_NS4_14EqualsComparerINS0_8equal_toIS3_EEEENS0_9allocatorIS6_EEE9SelectKeyESF_SH_E30advance_past_empty_and_deletedEv
tb:invoke_viidi
P2k:__ZL66RockSpawner_t891829047_CustomAttributesCacheGenerator_pf_greenRockP21CustomAttributesCache
f$i:__ZNSt3__211char_traitsIcE6lengthEPKc
DLk:__ZL78Convert_t2465617642_CustomAttributesCacheGenerator_Convert_ToUInt16_m867476252P21CustomAttributesCache
x$f:_SByte_System_IConvertible_ToChar_m1489191771_AdjustorThunk
ox:__ZN9AudioClip7CleanupEv
qXj:__ZNK24dense_hashtable_iteratorINSt3__24pairIK10KeyWrapperIPK19Il2CppGenericMethodEP10MethodInfoEES6_N6il2cpp8metadata23Il2CppGenericMethodHashEN14dense_hash_mapIS6_S9_SD_NS6_14EqualsComparerINSC_26Il2CppGenericMethodCompareEEENS0_9allocatorISA_EEE9SelectKeyESH_SJ_EdeEv
TDc:__ZN21b2ReportPostSolveTaskD0Ev
H5h:__ZN24GeneralNames_t270229415912set_ipAddr_4EP21ArrayList_t2718874744
$vi:__Z76RuntimeInvoker_Void_t1185182177_Int32_t2950945753_PlayableBinding_t354260709PFvvEPK10MethodInfoPvPS4_
Cyi:_Interval_t1802865632_marshal_pinvoke_cleanup
qDj:__ZNK15dense_hashtableINSt3__24pairIK10KeyWrapperIP11Il2CppClassES4_EES5_N6il2cpp8metadata16SZArrayClassHashEN14dense_hash_mapIS5_S4_SA_NS5_14EqualsComparerINS9_19SZArrayClassCompareEEENS0_9allocatorIS7_EEE9SelectKeyESE_SG_E12test_deletedEj
wqc:__Z18Transfer_BlittableI8JSONReadLb0EdEvRK29SerializationCommandArgumentsR31RuntimeSerializationCommandInfo
fGa:__ZN14SafeBinaryRead22TransferWithTypeStringI7CubemapEEvRT_PKcS5_17TransferMetaFlags
ayd:_SynchronizationAttribute_EnterContext_m1660729920
D5h:__ZN24GeneralNames_t270229415920set_directoryNames_2EP21ArrayList_t2718874744
tUh:_ReadOnlyCollection_1_System_Collections_ICollection_get_SyncRoot_m2522539235_gshared
Zge:__ZNK26X509Certificate_t48924302412get_m_from_2Ev
dgj:__ZN6il2cpp2vm21ThreadPoolCompartment13QueueWorkItemEP17Il2CppAsyncResult
g7d:__ZN30ConstructorBuilder_t281352410818set_paramModReq_11EP28TypeU5BU5DU5BU5D_t4042077012
Y3a:__ZNK9GfxDevice13GetViewMatrixEv
yRf:_UnmanagedMemoryStream_Dispose_m2681886347
wzd:_Lease_get_CurrentState_m2210872233
eWa:__ZN17RemapPPtrTransferC2E24TransferInstructionFlagsb
Dtg:_InternalEnumerator_1_System_Collections_IEnumerator_get_Current_m1295084274_gshared
ohf:_Convert_ToDecimal_m889385228
_sf:_Enum_get_value_m3943994903
lBj:__ZN10KeyWrapperINSt3__24pairIP11Il2CppClassjEEEC2Ev
Kmd:__ZN6il2cpp2vm9Exception13RaiseIfFailedEibP19Il2CppSequencePoint
ISk:__ZL87Display_t1387065949_CustomAttributesCacheGenerator_Display_GetSystemExtImpl_m2808197389P21CustomAttributesCache
vme:_Array_Reverse_m3714848183
DOk:__ZL60MonoTODOAttribute_t4131080582_CustomAttributesCacheGeneratorP21CustomAttributesCache
AJg:__ZNK31InternalEnumerator_1_t8185070639get_idx_1Ev
VFh:_KeyValuePair_2__ctor_m880186442_gshared
EUa:__ZN18LoadSceneOperation23GetAllowSceneActivationEv
nla:__ZN6CameraD0Ev
A3i:__ZNK6il2cpp2vm17TypeNameParseInfo10is_boundedEv
hPc:__ZN31CanvasBatchIntermediateRenderer16StaticInitializeEPv
gTc:__ZN11UnityEngine9Analytics20BasePersistentValues5ResetEv
U$d:__ZN16VirtFuncInvoker7IP12MethodBase_tiP27MethodBaseU5BU5D_t779831733PP24ObjectU5BU5D_t2843939325P35ParameterModifierU5BU5D_t2943407543P23CultureInfo_t4157843068P24StringU5BU5D_t1281789340PP12Il2CppObjectE6InvokeEjSE_iS3_S6_S8_SA_SC_SF_
USa:__ZN14SafeBinaryRead21TransferSTLStyleArrayINSt3__26vectorIi13stl_allocatorIiL18MemLabelIdentifier13ELi16EEEEEEvRT_17TransferMetaFlags
jng:_EncoderFallback__cctor_m3806755293
Utg:_InternalEnumerator_1__ctor_m962177456_AdjustorThunk
A6d:__Z25Il2CppCodeGenWriteBarrierI22StrongName_t4093849377EvPPT_S2_
E_c:__ZL50__ManagedRegistrationHelperFunction_SubsystemProxyPv
Dzb:__ZL18ProgramUniform1uivPK7ApiGLESjiihPKv
_8b:__ZN14Texture2DArray13RebuildMipMapEv
t7i:__ZN13Il2CppHashSetIPK17Il2CppGenericInstN6il2cpp8metadata21Il2CppGenericInstHashENS4_24Il2CppGenericInstCompareENSt3__29allocatorI10KeyWrapperIS2_EEEEC2EjRKS5_RKS6_
Abb:__Z18Transfer_BlittableI14SafeBinaryReadLb1EaEvRK29SerializationCommandArgumentsR31RuntimeSerializationCommandInfo
Npk:__ZN48RenderTextureDescriptor_t1974534975_StaticFields21set_depthFormatBits_6EP22Int32U5BU5D_t385246372
o3b:__ZN9ShaderLab20SerializedSubProgram14AddVectorParamEPKcii15ShaderParamTypei
T2k:_Collision2D_t2842956331_marshal_pinvoke
J$j:_GC_max
idf:_Enumerator__ctor_m3362421874
pyf:__ZN30DateTimeFormatInfo_t240585370119set_m_isReadOnly_10Eb
z$k:__ZL94AudioSampleProvider_t3950279772_CustomAttributesCacheGenerator_U3CtrackIndexU3Ek__BackingFieldP21CustomAttributesCache
yOj:__ZN6il2cpp2vm6Object3BoxEP11Il2CppClassPv
PAj:__ZN6il2cpp2vm6Thread7SetNameEP12Il2CppThreadP12Il2CppString
SZg:__ZN16VirtFuncInvoker2Ib40CustomAttributeTypedArgument_t2723150157S0_E6InvokeEjP12Il2CppObjectS0_S0_
vI:__ZN11UnityEngine15CloudWebService10RestClientINS0_23WebRequestRestHeaderMapEE16SetRequestHeaderERKN4core12basic_stringIcNS4_20StringStorageDefaultIcEEEESA_
ZSa:__ZN30RuntimeInitializeOnLoadManager15ClassMethodInfo8TransferI14SafeBinaryReadEEvRT_
EEd:_ConstructionCall_InitDictionary_m2824447813
Gjd:_TargetException__ctor_m3701535709
rF:__ZL22InitializeModule_Audiov
Q2a:__ZN16MemoryFileSystem8IsLockedERK13FileEntryData
UFh:__Z35KeyValuePair_2_ToString_m2480962023P26KeyValuePair_2_t3842366416PK10MethodInfo
sGj:__ZN6il2cpp6icalls8mscorlib6System2IO6MonoIO5WriteEiP11Il2CppArrayiiPi
lii:__Z92RuntimeInvoker_RuntimeObject_RuntimeObject_RuntimeObject_SByte_t1669577662_SByte_t1669577662PFvvEPK10MethodInfoPvPS4_
Ke:_emscripten_glBindRenderbuffer
CJi:_UriScheme__ctor_m1399779782
_yf:__ZNK43DateTimeFormatInfo_t2405853701_StaticFields39get_INVARIANT_ABBREVIATED_MONTH_NAMES_6Ev
I_e:__ZN15Oid_t355212026012set__value_0EP8String_t
O1j:_GC_dirty_init
Rah:__ZNK25PrivateKeyInfo_t66802799210get__key_2Ev
WIg:__ZN32InternalEnumerator_1_t101283622211set_array_0EP11Il2CppArray
cMj:__ZN6il2cpp2vm5Image33GetCachedMemoryMappedResourceFileEP24Il2CppReflectionAssembly
wMj:__ZN6il2cpp2vm5Field14GetValueObjectEP9FieldInfoP12Il2CppObject
xVc:__Z63Register_UnityEngine_Analytics_CustomEventData_Internal_Destroyv
mjk:__ZN28PlayerConnection_t308169404936set_m_PlayerEditorConnectionEvents_5EP40PlayerEditorConnectionEvents_t3411787513
tvc:__ZN9Scripting11UnityEngine15Collider2DProxy12CleanupProxyEv
jNh:__ZN46CustomAttributeNamedArgumentU5BU5D_t371046479514SetAtUncheckedEj39CustomAttributeNamedArgument_t287865710
Guh:_TimeSpan_CompareTo_m3633415627_AdjustorThunk
joc:__ZN9JSONWrite8TransferI4PPtrI9Texture2DEEEvRT_PKc17TransferMetaFlags
F9g:__ZNK30KeyPairPersistence_t209454746116get__container_7Ev
RTh:_Collection_1_Remove_m3611142372_gshared
gob:__ZN13MonoBehaviour17RemoveFromManagerEv
Bzi:__ZNK21Enumerator_t7377252769get_ptr_1Ev
_la:__ZN12ImageFilters14AddImageFilterERK11ImageFilter
Ofd:_MonoEventInfo_GetEventInfo_m873645389
Jvd:_Context_NotifyDynamicSinks_m1841702879
NEd:__ZN27MethodDictionary_t20789420417set__methodKeys_2EP24StringU5BU5D_t1281789340
Geg:_WindowsIdentity_System_Runtime_Serialization_IDeserializationCallback_OnDeserialization_m3428853631
ZM:__ZN13MemoryManagerC2Ev
s5i:__ZNK15dense_hashtableINSt3__24pairIK10KeyWrapperIPKcEP11Il2CppClassEES5_N6il2cpp5utils11StringUtils12StringHasherIS4_EEN14dense_hash_mapIS5_S8_SE_NS5_14EqualsComparerINSB_13VmStringUtils21CaseSensitiveComparerEEENS0_9allocatorIS9_EEE9SelectKeyESJ_SL_E8min_sizeEjj
R9j:_AttributeHelperEngine_GetParentTypeDisallowingMultipleInclusion_m681389990
SDh:_RSAParameters_t1728406613_marshal_pinvoke_cleanup
h2a:__ZN20ArchiveStorageReader28AcquireAndPrefillUnusedBlockEjPNS_11CacheResultE
moe:_Boolean_System_IConvertible_ToDateTime_m603510836
V8b:__Z12NHxRoughnessIA4_tEvP9Texture2DPT_iiii
X6g:_ASN1_get_Value_m1857007406
fth:__ZN29Timer_t716671026_StaticFields15set_scheduler_1EP21Scheduler_t3215764947
l_:__ZN18AsyncUploadManagerD2Ev
QYa:__ZN9Transform5ResetEv
Cqf:_DelegateSerializationHolder__ctor_m23226427
s8:__ZL59__ManagedRegistrationHelperFunction_GraphicsDeviceTypeProxyPv
qif:_Decimal_op_Explicit_m1842265407
aib:__Z22TransferField_NonArrayI24GenerateTypeTreeTransfer16Converter_StringEvRK23StaticTransferFieldInfoR31RuntimeSerializationCommandInfoRT0_
xIa:__ZNK9Texture3D16ExtractImageImplEP14ImageReference13ImageBlitModebi
Csg:_InternalEnumerator_1_MoveNext_m154749640_AdjustorThunk
vqb:__Z17MainLoopKeepalivePv
dna:__ZN12SharedObjectI22RenderingCommandBufferLb1E27SharedObjectDeleteReleaseOpIS0_EE5ResetEv
S7i:__ZN15dense_hashtableI10KeyWrapperIPK17Il2CppGenericInstES4_N6il2cpp8metadata21Il2CppGenericInstHashEN14dense_hash_setIS4_S7_NS4_14EqualsComparerINS6_24Il2CppGenericInstCompareEEENSt3__29allocatorIS4_EEE8IdentityESB_SE_E12expand_arrayEjN21dense_hash_map_traits17integral_constantIbLb0EEE
Lak:_Camera_get_pixelRect_m2283183456
IHg:_InternalEnumerator_1_get_Current_m1588647567_AdjustorThunk
FIj:__ZN14dense_hash_mapI10KeyWrapperIP14Il2CppIUnknownEjN6il2cpp5utils11PointerHashIS1_EENS3_14EqualsComparerINSt3__28equal_toIS2_EEEENS9_9allocatorINS9_4pairIKS3_jEEEEED2Ev
Mbe:_ILGenerator_Emit_m2239205197
zDk:__ZL51GCHandle_t3351438187_CustomAttributesCacheGeneratorP21CustomAttributesCache
_Oh:__ZN28OrderBlockU5BU5D_t238920259014SetAtUncheckedEj22OrderBlock_t1585977831
IZg:__ZN16VirtFuncInvoker2Ib39CustomAttributeNamedArgument_t287865710S0_E6InvokeEjP12Il2CppObjectS0_S0_
zWa:__ZN11PreloadData39ShouldIgnoreInGarbageDependencyTrackingEv
Xtg:_InternalEnumerator_1_System_Collections_IEnumerator_Reset_m1716381123_AdjustorThunk
JDh:_RSAPKCS1SignatureFormatter_CreateSignature_m3191980616
Jxa:__ZN10builtintex16GetDefaultTexEnvE16TextureDimensionb
JJb:__Z19SetupLODFadeKeywordR17ShaderPassContextb
NBb:__ZL25CheckCopyTextureArgumentsRK7ApiGLESP11GLESTextureS3_
MHg:_InternalEnumerator_1__ctor_m362401472_AdjustorThunk
svi:__Z58RuntimeInvoker_Void_t1185182177_PlayableBinding_t354260709PFvvEPK10MethodInfoPvPS4_
afl:_glDeleteShader__wrapper
h1:__ZNK15PlayableMethods18InvokeOnGraphStartER18ScriptingObjectPtrRK9HPlayable
zhb:__Z29Transfer_Blittable_ArrayFieldI24GenerateTypeTreeTransferyEvRT_R9ArrayInfoRK23StaticTransferFieldInfo
wBh:_ValueType_Equals_m1524437845
jQg:__Z31Enumerator_MoveNext_m3542650857P22Enumerator_t1626871233PK10MethodInfo
q$c:_LabelData__ctor_m3949021681_AdjustorThunk
lXd:_Int64_GetHashCode_m703091690
vBf:_CultureInfo_set_DateTimeFormat_m1843682751
teg:__ZNK22StrongName_t367572461410get_name_1Ev
gbi:_X509CrlEntry_get_RevocationDate_m606796547
vhf:_Decimal_op_Implicit_m4256234411
ccb:__Z24TransferPPtrToMonoObjecti17ScriptingClassPtrP23DataToCreateNullWrapper24TransferInstructionFlags
_ei:__Z60RuntimeInvoker_RuntimeObject_RuntimeObject_Int16_t2552820387PFvvEPK10MethodInfoPvPS4_
JXh:__ZN28GenericInterfaceFuncInvoker1Ib40CustomAttributeTypedArgument_t2723150157E6InvokeEPK10MethodInfoP12Il2CppObjectS0_
fOf:_StreamReader__ctor_m3941437302
Sba:__ZN9Scripting11UnityEngine13GradientProxy9InitProxyEv
lYe:_IPv6Address_get_Address_m1389170741
MSa:__ZN30RuntimeInitializeOnLoadManager23VirtualRedirectTransferER17RemapPPtrTransfer
_bl:dynCall_viif
Mqd:_RemoteActivator_Activate_m3917386814
a4d:_AssemblyName_get_Flags_m1616840602
NIf:_BinaryWriter_Write_m1304446817
MPf:_StringReader_ReadLine_m2337102945
_kf:__ZN33CurrentSystemTimeZone_t399835225522set_utcOffsetWithDLS_8E19TimeSpan_t881159249
$Pi:__Z28List_1_get_Count_m3831796040P18List_1_t3952196670PK10MethodInfo
B0k:__ZL109Physics2D_t1528932956_CustomAttributesCacheGenerator_Physics2D_GetRayIntersectionAll_m2567878449____distance1P21CustomAttributesCache
hfb:__ZL26Transfer_SimpleNativeClassI17RemapPPtrTransfer8GradientLb0EEvRK29SerializationCommandArgumentsR31RuntimeSerializationCommandInfo
u6b:__ZZL31RegisterRectTransformPropertiesR22GenericPropertyBindingEN32Wrapper_RectTransformAnchorMaxx013SetFloatValueEPvf
Caf:_SyncHashtable_Add_m3016107307
Gnd:__Z25Il2CppCodeGenWriteBarrierI19Version_t3456873960EvPPT_S2_
Loe:_Boolean_Equals_m2410333903_AdjustorThunk
lhj:__ZN6il2cpp6icalls8mscorlib6System8MonoType14get_attributesEP20Il2CppReflectionType
rGk:__ZL61ISurrogateSelector_t3040401154_CustomAttributesCacheGeneratorP21CustomAttributesCache
Gdc:__ZL41RuntimeInitializeOnSceneLoadedBeforeAwakeiR18AwakeFromLoadQueue16SceneLoadingMode
NAf:__ZNK23CultureInfo_t415784306816get_territory_25Ev
qJ:__ZN13UploadHandlerD2Ev
Au:__GLOBAL__sub_I_Modules_AssetBundle_Public_1_cpp
Xoh:__ZN23UTF8Decoder_t215921486218set_leftOverBits_2Ej
oek:_InvokableCallList_PrepareInvoke_m4003891334
Re:_emscripten_glBlendFuncSeparate
iaa:__ZN9Scripting11UnityEngine9Rendering28AsyncGPUReadbackRequestProxy9InitProxyEv
AS:__Z20scripting_string_newPKc
fsa:__ZN18StreamedBinaryRead21TransferSTLStyleArrayI13dynamic_arrayI21PlatformShaderDefinesLj0EEEEvRT_17TransferMetaFlags
n_e:__ZNK20WebProxy_t201676054213get_address_0Ev
K0g:__ZN45MSCompatUnicodeTable_t1453885583_StaticFields19set_cjkKOcategory_9EPh
EDi:_Parser_IsSingleline_m326238187
Gve:_CollectionBase_get_Count_m1708965601
T3f:_HMAC__ctor_m97939284
TKj:__ZNK24NamespaceAndNamePairHashclERKNSt3__24pairIPKcS3_EE
gmc:__ZN9JSONWrite12AppendToNodeEPN5Unity9rapidjson12GenericValueINS1_4UTF8IcEE13JSONAllocatorEEPKcRS6_
c7g:_ASN1_ToString_m1340204511
NOe:__ZNK25SslStreamBase_t166741340713get_context_5Ev
nek:__Z23List_1_Clear_m803816076P18List_1_t4176035766PK10MethodInfo
byc:__ZN16PhysicsManager2D20GetRigidBodyVelocityERK11Rigidbody2D
G3e:_X509Store_get_Certificates_m2149701265
F7a:__ZN20GfxAsyncReadbackDataD2Ev
eYg:_DefaultComparer_GetHashCode_m2865442331_gshared
Bwh:_Type_GetField_m2961003358
Jtj:__ZN15dense_hashtableINSt3__24pairIK10KeyWrapperINS1_IPK11Il2CppImageP11Il2CppClassEEEjEES9_17ReflectionMapHashIS8_EN14dense_hash_mapIS9_jSD_NS9_14EqualsComparerINS0_8equal_toIS8_EEEENS0_9allocatorISB_EEE9SelectKeyESI_SK_E15destroy_bucketsEjj
Zwd:__ZN25ReturnMessage_t137698560817set__methodBase_7EP12MethodBase_t
wCj:__ZNSt3__218uninitialized_copyIPNS_4pairIK10KeyWrapperIP11Il2CppClassES4_EES8_EET0_T_SA_S9_
Gkj:__ZN6il2cpp2os4File17GetFileAttributesERKNSt3__212basic_stringIcNS2_11char_traitsIcEENS2_9allocatorIcEEEEPi
Kui:__Z59RuntimeInvoker_Int32_t2950945753_X509ChainStatus_t133602714PFvvEPK10MethodInfoPvPS4_
IC:__ZN17AudioCustomFilterD2Ev
FVg:__ZN16VirtFuncInvoker2IbbbE6InvokeEjP12Il2CppObjectbb
ilb:__Z18Transfer_BlittableI18StreamedBinaryReadLb0E12PropertyNameEvRK29SerializationCommandArgumentsR31RuntimeSerializationCommandInfo
fvi:__Z56RuntimeInvoker_Void_t1185182177_MonoResource_t4103430009PFvvEPK10MethodInfoPvPS4_
jYa:__ZN9Transform16ResetReplacementEv
Ssj:__ZN30dense_hashtable_const_iteratorINSt3__24pairIK10KeyWrapperINS1_IPK10MethodInfoP11Il2CppClassEEEjEES9_17ReflectionMapHashIS8_EN14dense_hash_mapIS9_jSD_NS9_14EqualsComparerINS0_8equal_toIS8_EEEENS0_9allocatorISB_EEE9SelectKeyESI_SK_EC2ERK24dense_hashtable_iteratorISB_S9_SD_SM_SI_SK_E
pzk:__ZL64DebuggerBrowsableState_t747501856_CustomAttributesCacheGeneratorP21CustomAttributesCache
HAb:__ZN18GfxFramebufferGLES18ReleaseFramebufferEP17RenderSurfaceBaseP14GfxContextGLES
X_d:__ZNK37MonoEnumInfo_t3694469084_StaticFields20get_long_comparer_10Ev
mpc:__Z18Transfer_BlittableI8JSONReadLb1EiEvRK29SerializationCommandArgumentsR31RuntimeSerializationCommandInfo
A6f:__ZNK23RC2Transform_t4583214879get_R1_13Ev
Gkb:__Z18Transfer_BlittableI18StreamedBinaryReadLb1EN4math12int2_storageEEvRK29SerializationCommandArgumentsR31RuntimeSerializationCommandInfo
nQf:_TextReader_Dispose_m4253712522
UJ:__ZN19CloudServiceHandler34HandleSaveFileWebRequestPlayerLoopEv
lAk:__ZL57FileAttributes_t3417205536_CustomAttributesCacheGeneratorP21CustomAttributesCache
_B:__Z31GetParentSampleClipFromInstancePN11SoundHandle8InstanceE
G1h:_InternalAsyncResult_get_BytesRead_m3975435112
X5b:__ZNK28RectTransformPropertyBinding13GetFloatValueERKN11UnityEngine9Animation10BoundCurveE
ZTb:__ZN6Camera22StandaloneCustomRenderENS_10RenderFlagEP6ShaderRKN4core12basic_stringIcNS3_20StringStorageDefaultIcEEEEPNS_21PerformRenderFunctionE
vgh:_Array_InternalArray__IndexOf_TisKeyValuePair_2_t2401056908_m4118889689_gshared
q7c:__ZN31OpCodes_t126150456_StaticFields15set_Ldind_I8_75E17OpCode_t123070264
jPk:__ZL68X509CertificateCollection_t3399372417_CustomAttributesCacheGeneratorP21CustomAttributesCache
Jmk:__ZN32PlayableOutputHandle_t420805379315set_m_Version_1Ej
U7j:__ZN6il2cpp2os16ThreadLocalValue8GetValueEPPv
x1e:_X509Certificate2_get_PublicKey_m370665820
mQg:__Z34Enumerator_get_Current_m2704389975P22Enumerator_t1626871233PK10MethodInfo
Kcj:__ZN6il2cpp2vm13MetadataCache14GetGenericInstEPKPK10Il2CppTypej
exg:__ZN32InternalEnumerator_1_t150172948011set_array_0EP11Il2CppArray
xD:__ZN13AudioListener17ReadExtensionNameEi
Tk:_glUniform1uiv
rTh:_Collection_1_System_Collections_Generic_ICollectionU3CTU3E_get_IsReadOnly_m1419845799_gshared
tZi:__ZL25UnresolvedVirtualCall_143P12Il2CppObject29CullingGroupEvent_t1722745023PK10MethodInfo
EWb:__Z25RegisterModuleICalls_Jobsv
DOi:_U3CTimedTriggerU3Ec__Iterator0_System_Collections_Generic_IEnumeratorU3CobjectU3E_get_Current_m3822291412
ro:setThrew
HRe:_SslClientStream_OnLocalPrivateKeySelection_m1934775249
fCj:__ZN15dense_hashtableINSt3__24pairIK10KeyWrapperIP11Il2CppClassES4_EES5_N6il2cpp8metadata16SZArrayClassHashEN14dense_hash_mapIS5_S4_SA_NS5_14EqualsComparerINS9_19SZArrayClassCompareEEENS0_9allocatorIS7_EEE9SelectKeyESE_SG_E5clearEv
FRk:__ZL106AsyncOperation_t1445031843_CustomAttributesCacheGenerator_AsyncOperation_InvokeCompletionEvent_m1410305036P21CustomAttributesCache
R_b:__ZN14SafeBinaryRead21TransferSTLStyleArrayINSt3__26vectorIN9ShaderLab20SerializedSubProgramENS1_9allocatorIS4_EEEEEEvRT_17TransferMetaFlags
Vgh:_Array_InternalArray__IndexOf_TisX509ChainStatus_t133602714_m48896230_gshared
J$a:__ZN19dynamic_block_arrayI13FileEntryInfoLj32EE4growEj
vpc:__Z15Transfer_StringI8JSONReadLb1EEvRK29SerializationCommandArgumentsR31RuntimeSerializationCommandInfo
N_:__ZN16LightmapSettings15AppendLightmapsEiRK13dynamic_arrayI12LightmapDataLj0EE
dIf:__ZN24BinaryWriter_t399259504212set_buffer_3EP22ByteU5BU5D_t4116647657
H3:__ZN6prcoreL17RemapGenericFloatI17TexFormatRGBFloat15TexFormatRGHalfEEvPKNS_9InnerInfoE
MEk:__ZL63IContributeEnvoySink_t2817847987_CustomAttributesCacheGeneratorP21CustomAttributesCache
uEj:__ZNSt3__212basic_stringIDsNS_11char_traitsIDsEENS_9allocatorIDsEEE21__grow_by_and_replaceEjjjjjjPKDs
afb:__Z18Transfer_BlittableI17RemapPPtrTransferLb1E11ColorRGBA32EvRK29SerializationCommandArgumentsR31RuntimeSerializationCommandInfo
F4f:_HMAC_Initialize_m3157696427
Mr:__ZL59__ManagedRegistrationHelperFunction_RotationConstraintProxyPv
A6k:___strchrnul
g2:__ZN4core8hash_mapINS_12basic_stringIcNS_20StringStorageDefaultIcEEEEPKvNS_4hashIS4_EENSt3__28equal_toIS4_EEEixERKS4_
iO:__ZN13BaseAllocator13TryDeallocateEPv
h$e:_X509SubjectKeyIdentifierExtension__ctor_m2055934916
xvf:__ZNK29Path_t1605229823_StaticFields21get_dirEqualsVolume_7Ev
lAh:_UInt64_Equals_m367573732
y2a:__ZN16MemoryFileSystem5WriteER13FileEntryDatayPvPy
O5k:___DOUBLE_BITS_670
vCc:__ZNK21b2ClearBodyForcesTask13GetRangeCountEv
w5k:_sprintf
X3b:__ZN9Scripting25CreateNullExceptionObjectE18ScriptingObjectPtr
zkd:__ZN28ResolveEventArgs_t177945650112set_m_Name_1EP8String_t
Uah:_PrivateKeyInfo_DecodeRSA_m2889346634
vC:__ZN13AudioListener17RemoveFromManagerEv
si:_glAttachShader
nni:__Z241RuntimeInvoker_Boolean_t97287965_RuntimeObject_RuntimeObject_RuntimeObject_SByte_t1669577662_DateTimeU26_t882461807_DateTimeOffsetU26_t3960159525_RuntimeObject_Int32_t2950945753_SByte_t1669577662_BooleanU26_t4125257963_BooleanU26_t4125257963PFvvEPK10MethodInfoPvPS4_
WMk:__ZL65MissingMethodException_t1274661534_CustomAttributesCacheGeneratorP21CustomAttributesCache
Bli:__Z53RuntimeInvoker_Int32_t2950945753_Int32U26_t1369213839PFvvEPK10MethodInfoPvPS4_
NFe:__ZN28GenericInterfaceFuncInvoker1IbP22Int32U5BU5D_t385246372E6InvokeEPK10MethodInfoP12Il2CppObjectS1_
Lka:__ZNK6Camera19GetProjectionMatrixEv
rch:_SymmetricTransform_InternalTransformBlock_m946892271
wAd:__ZNK21LeaseSink_t366638021915get__nextSink_0Ev
sTe:__ZN36NameObjectCollectionBase_t209184736414set_keyscoll_8EP26KeysCollection_t1318642398
Obi:__Z49RuntimeInvoker_DateTime_t3738529785_RuntimeObjectPFvvEPK10MethodInfoPvPS4_
EFc:__ZN21b2FindNewContactsTask15AddContactPairsERK16b2ContactManagerP14b2FixtureProxyS4_R13dynamic_arrayINS_17b2DeferredContactELj0EE
lZk:__ZL80Logger_t274032455_CustomAttributesCacheGenerator_U3ClogHandlerU3Ek__BackingFieldP21CustomAttributesCache
g4k:_Rock_Start_m3091802021
jrh:__ZNK32RegisteredWaitHandle_t152953845422get__executeOnlyOnce_5Ev
QGf:_Guid_GetHashCode_m3042133858_AdjustorThunk
qfa:__Z38PreallocateObjectFromPersistentManagerib
N4k:___cxx_global_var_init_41045
Gsa:__ZN15ReflectionProbe23VirtualRedirectTransferER24GenerateTypeTreeTransfer
q$g:__ZN45MSCompatUnicodeTable_t1453885583_StaticFields12set_level2_4EPh
xfg:_SecurityException_get_FirstPermissionThatFailed_m3934559164
q8e:_Interpreter_Backtrack_m2828876822
rFa:__ZNK9Texture2D20GetUnscaledTextureIDEv
lVg:__ZN24Dictionary_2_t144469424916set_threshold_11Ei
O$f:_SByte_System_IConvertible_ToType_m4075253447
avj:__ZN15dense_hashtableINSt3__24pairIK10KeyWrapperINS1_IPK12PropertyInfoP11Il2CppClassEEEjEES9_17ReflectionMapHashIS8_EN14dense_hash_mapIS9_jSD_NS9_14EqualsComparerINS0_8equal_toIS8_EEEENS0_9allocatorISB_EEE9SelectKeyESI_SK_E21fill_range_with_emptyEPSB_SO_
Kdl:_glFenceSync__wrapper
W0i:__ZNK15dense_hashtableINSt3__24pairIK10KeyWrapperIPK22Il2CppGenericParameterEP11Il2CppClassEES6_N6il2cpp5utils11PointerHashIS4_EEN14dense_hash_mapIS6_S9_SE_NS6_14EqualsComparerINS0_8equal_toIS5_EEEENS0_9allocatorISA_EEE9SelectKeyESJ_SL_E8min_sizeEjj
lhg:_Single_System_IConvertible_ToUInt64_m3299129161
ene:_AssemblyLoadEventHandler_Invoke_m1462077361
GOe:__ZNK27SslClientStream_t391462466126get_ClientCertSelection_17Ev
uvi:__Z51RuntimeInvoker_Void_t1185182177_HitInfo_t3229609740PFvvEPK10MethodInfoPvPS4_
wFa:__ZNK9Texture2D26CanReuploadDataToGfxDeviceEv
qIk:__ZL63CodeAccessPermission_t2681295399_CustomAttributesCacheGeneratorP21CustomAttributesCache
hVa:__Z29ClearRepeatingLogMessageStatev
PDg:_InternalEnumerator_1_get_Current_m3191242573_gshared
gFd:__ZNK41ConstructionCall_t4011594745_StaticFields30get_U3CU3Ef__switchU24map20_19Ev
aac:__ZN15QualitySettings12CleanupClassEv
z_:__ZN21EnlightenSceneMappingaSERKS_
qia:__ZN14SafeBinaryRead21TransferSTLStyleArrayI13dynamic_arrayI17SortingLayerEntryLj0EEEEvRT_17TransferMetaFlags
FIg:_InternalEnumerator_1_System_Collections_IEnumerator_Reset_m500203932_AdjustorThunk
BKe:__ZN19Context_t397123470726set_writeSequenceNumber_16Ey
tDb:__ZN7ApiGLESD2Ev
$Ki:__ZNK30SymmetricTransform_t380259184311get_temp2_4Ev
oJd:_MonoMethodMessage_System_Runtime_Remoting_Messaging_IInternalMessage_set_TargetIdentity_m3448319263
Hhd:__ZN14MonoProperty_t12set_cached_3Ei
Gfj:_CertificateHandler_t2739891000_marshal_pinvoke
R9e:__ZNK21Enumerator_t66135868618get_currentValue_6Ev
Kqc:__ZN8JSONRead21TransferSTLStyleArrayINSt3__26vectorI8MonoPPtr13stl_allocatorIS3_L18MemLabelIdentifier1ELi16EEEEEEvRT_17TransferMetaFlags
DRj:__ZN6il2cpp6icalls8mscorlib6SystemL16write_enum_valueEPcP11Il2CppClassy
WQd:__ZNK37BinaryCommon_t3059247396_StaticFields22get__typeCodesToType_1Ev
kYd:_IntPtr_op_Explicit_m536245531
Nal:dynCall_fidi
Npj:__ZN15dense_hashtableINSt3__24pairIK10KeyWrapperINS1_IPK9FieldInfoP11Il2CppClassEEEjEES9_17ReflectionMapHashIS8_EN14dense_hash_mapIS9_jSD_NS9_14EqualsComparerINS0_8equal_toIS8_EEEENS0_9allocatorISB_EEE9SelectKeyESI_SK_E12resize_deltaEjj
WEc:__ZNK35b2SolveDiscreteIslandVelocitiesTask13GetRangeCountEv
$6i:__ZNK15dense_hashtableINSt3__24pairIK10KeyWrapperIPK19Il2CppGenericMethodEPK26Il2CppGenericMethodIndicesEES6_N6il2cpp8metadata23Il2CppGenericMethodHashEN14dense_hash_mapIS6_SA_SE_NS6_14EqualsComparerINSD_26Il2CppGenericMethodCompareEEENS0_9allocatorISB_EEE9SelectKeyESI_SK_E8min_sizeEjj
JEk:__ZL58IContextProperty_t840037424_CustomAttributesCacheGeneratorP21CustomAttributesCache
iK:__ZN11UnityEngine15CloudWebService14RestDownloaderD2Ev
U8d:_EnumBuilder_get_Assembly_m1175292766
IXb:__Z29StdTemplateConversionFunctionIjhEbPvR14SafeBinaryRead
foa:__ZN15dense_hashtableINSt3__24pairIKN9ShaderLab7Program23ShaderKeywordSetAndHashEPKNS2_10SubProgramEEES4_NS3_24ShaderKeywordHashFunctorEN14dense_hash_mapIS4_S8_SA_NS0_8equal_toIS4_EE13stl_allocatorIS9_L18MemLabelIdentifier67ELi16EEE9SelectKeyESD_SG_E15insert_noresizeERKS9_
RIg:_InternalEnumerator_1_MoveNext_m1174937354_gshared
_uc:__ZL62__ManagedRegistrationHelperFunction_CachedContactPoints2DProxyPv
Rkg:__ZN33Encoding_t1523322056_StaticFields20set_asciiEncoding_16EP20Encoding_t1523322056
Iva:__ZN13RenderTexture12SetDimensionE16TextureDimension
sRe:_SslClientStream_set_ClientCertSelectionDelegate_m1261530976
Xl:_time
_c:_SDL_FreeRW
VPg:_Enumerator__ctor_m1320896511_gshared
Xuj:__ZNK15dense_hashtableINSt3__24pairIK10KeyWrapperINS1_IPK12PropertyInfoP11Il2CppClassEEEjEES9_17ReflectionMapHashIS8_EN14dense_hash_mapIS9_jSD_NS9_14EqualsComparerINS0_8equal_toIS8_EEEENS0_9allocatorISB_EEE9SelectKeyESI_SK_E5beginEv
nJh:__ZNK22Enumerator_t17895014809get_ver_2Ev
pB:__ZN20SoundChannelInstance8getDelayE14FMOD_DELAYTYPEPjS1_
uoa:__ZNSt3__26vectorIN20GpuProgramParameters15StructParameterENS_9allocatorIS2_EEEC2ERKS5_
Rqg:_ArrayReadOnlyList_1_Contains_m232667507_gshared
Nli:__Z77RuntimeInvoker_Boolean_t97287965_IntPtr_t_Int32_t2950945753_SByte_t1669577662PFvvEPK10MethodInfoPvPS4_
MMf:__ZNK22MemoryStream_t9497314718get_dirty_bytes_10Ev
cAh:_UInt64_System_IConvertible_ToUInt64_m2135047981_AdjustorThunk
v:tempBigInt
Yjh:_Array_InternalArray__Insert_TisKeyframe_t4206410242_m1558638568_gshared
GKk:__ZL77Convert_t2465617642_CustomAttributesCacheGenerator_Convert_ToByte_m3567528984P21CustomAttributesCache
Bh:_emscripten_glVertexAttrib1fv
Lok:_Rect_Equals_m4169342960_AdjustorThunk
v$b:__ZNSt3__26vectorIN9ShaderLab20SerializedSubProgram12UAVParameterENS_9allocatorIS3_EEE7reserveEj
g4g:__ZNK19Context_t174453113022get_AlwaysMatchFlags_2Ev
F9k:__ZSt11__terminatePFvvE
Wmk:_PlayerConnectionInternal_UnityEngine_IPlayerEditorConnectionNative_RegisterInternal_m1817895617
_Bj:__ZN15dense_hashtableINSt3__24pairIK10KeyWrapperIP11Il2CppClassES4_EES5_N6il2cpp8metadata16SZArrayClassHashEN14dense_hash_mapIS5_S4_SA_NS5_14EqualsComparerINS9_19SZArrayClassCompareEEENS0_9allocatorIS7_EEE9SelectKeyESE_SG_E9set_valueEPS7_RKS7_
az:__ZN12AudioManager14systemCallbackEP11FMOD_SYSTEM24FMOD_SYSTEM_CALLBACKTYPEPvS3_
dZk:__ZL57PlayableOutput_t3179894105_CustomAttributesCacheGeneratorP21CustomAttributesCache
osj:__ZN24dense_hashtable_iteratorINSt3__24pairIK10KeyWrapperINS1_IPK10MethodInfoP11Il2CppClassEEEjEES9_17ReflectionMapHashIS8_EN14dense_hash_mapIS9_jSD_NS9_14EqualsComparerINS0_8equal_toIS8_EEEENS0_9allocatorISB_EEE9SelectKeyESI_SK_E30advance_past_empty_and_deletedEv
Emj:_il2cpp_alloc
tbk:_ClassLibraryInitializer_Init_m988673678
x5c:__ZNK24StringU5BU5D_t128178934014GetAtUncheckedEj
xB:__ZN10SampleClip23VirtualRedirectTransferER24GenerateTypeTreeTransfer
Vta:__ZN16ReflectionProbes16UpdateSampleDataEv
oVh:__ZNK32ReadOnlyCollection_1_t393572644410get_list_0Ev
FBf:_CultureInfo_GetCultureInfo_m56098747
mJa:__ZN14Texture2DArray5ResetEv
OQb:__Z20AddActiveLocalLightsR11CullResultsR27LocalLightCullingParametersPPK15SharedLightDataPK8Vector4fRK9IndexListPfRSA_R12ActiveLightsSG_P5RectTIfEP13TargetEyeMask
Ryk:__ZL80Hashtable_t1853889766_CustomAttributesCacheGenerator_Hashtable__ctor_m1763145853P21CustomAttributesCache
ehf:_Convert_ToDecimal_m1284148187
DOf:__ZNK24StreamReader_t400993589914get_foundCR_13Ev
bIg:__Z40InternalEnumerator_1_MoveNext_m190587569P32InternalEnumerator_1_t1629489814PK10MethodInfo
Ijl:_emscripten_glRenderbufferStorage__wrapper
Eee:__ZNK26X509Certificate_t48924302413get_subject_8Ev
lc:_JS_Sound_Play
mRg:_KeyCollection_GetEnumerator_m1862005650_gshared
dXc:__Z26GetUnityConnectSettingsPtrv
$Nf:__ZNK28StreamAsyncResult_t78024851211get_state_0Ev
o_b:__ZN9ShaderLab16SerializedShader8TransferI14SafeBinaryReadEEvRT_
tUa:__ZN5Mutex7TryLockEv
Kye:__ZN22ModulusRing_t59651150514set_constant_1EP22BigInteger_t2902905090
h0k:__ZL103AudioSource_t3935305588_CustomAttributesCacheGenerator_AudioSource_ReadExtensionPropertyValue_m72717540P21CustomAttributesCache
l3e:__ZN33X509Chain_t194917408_StaticFields29set_U3CU3Ef__switchU24mapC_13EP24Dictionary_2_t2736202052
QFd:_ConstructionCallDictionary_SetMethodProperty_m3145285304
YRi:__ZNK46AudioExtensionManager_t3220897493_StaticFields45get_m_SourceSpatializerExtensionDefinitions_1Ev
fTd:_Int32_System_IConvertible_ToUInt32_m3557270157
Foi:__Z243RuntimeInvoker_Void_t1185182177_Int16_t2552820387_RuntimeObject_Int32_t2950945753_Int32_t2950945753_Int32_t2950945753_SByte_t1669577662_SByte_t1669577662_SByte_t1669577662_SByte_t1669577662_Int16_t2552820387_SByte_t1669577662_SByte_t1669577662PFvvEPK10MethodInfoPvPS4_
rsg:_InternalEnumerator_1_System_Collections_IEnumerator_get_Current_m1503522504_gshared
P9b:__ZN19ShaderPropertySheet16SetVectorIndexedEN9ShaderLab16FastPropertyNameEifRK8Vector4fNS_8SetFlagsE
Rvh:_Type_get_IsAbstract_m1120089130
Up:__ZN14SafeBinaryRead21TransferSTLStyleArrayIN4core12basic_stringIcNS1_20StringStorageDefaultIcEEEEEEvRT_17TransferMetaFlags
rKi:_UriFormatException__ctor_m1115096473
$yg:_InternalEnumerator_1_Dispose_m2818366163_AdjustorThunk
efh:_Array_InternalArray__IEnumerable_GetEnumerator_TisSlot_t384495010_m460993382_gshared
nBj:__ZN15dense_hashtableINSt3__24pairIK10KeyWrapperINS1_IP11Il2CppClassjEEES4_EES6_N6il2cpp8metadata14ArrayClassHashEN14dense_hash_mapIS6_S4_SB_NS6_14EqualsComparerINSA_17ArrayClassCompareEEENS0_9allocatorIS8_EEE9SelectKeyESF_SH_E9copy_fromERKSK_j
EKa:__ZN21EnlightenSceneMapping8TransferI19StreamedBinaryWriteEEvRT_
kYb:__Z29StdTemplateConversionFunctionIayEbPvR14SafeBinaryRead
wea:__ZN9Scripting5Unity11Collections31NativeFixedLengthAttributeProxy9InitProxyEv
Vxi:__Z55RuntimeInvoker_Boolean_t97287965_Nullable_1_t2603721331PFvvEPK10MethodInfoPvPS4_
WYa:__ZN9Transform23VirtualRedirectTransferER19StreamedBinaryWrite
KK:__ZN11UnityEngine15CloudWebService14DataDispatcher4StopEv
cKh:__Z29Enumerator_Dispose_m786980821P21Enumerator_t652329154PK10MethodInfo
CLd:_StackBuilderSink_ExecuteAsyncMessage_m277782655
j3k:__ZNK27ContactFilter2D_t380520344120get_minNormalAngle_9Ev
x$b:__ZNSt3__26vectorIN9ShaderLab20SerializedSubProgram12UAVParameterENS_9allocatorIS3_EEE8__appendEj
UCk:__ZL68TargetInvocationException_t4266643902_CustomAttributesCacheGeneratorP21CustomAttributesCache
Lvj:__ZNK15dense_hashtableINSt3__24pairIK10KeyWrapperINS1_IPK9EventInfoP11Il2CppClassEEEjEES9_17ReflectionMapHashIS8_EN14dense_hash_mapIS9_jSD_NS9_14EqualsComparerINS0_8equal_toIS8_EEEENS0_9allocatorISB_EEE9SelectKeyESI_SK_E12test_deletedERK24dense_hashtable_iteratorISB_S9_SD_SM_SI_SK_E
WTi:_AudioConfigurationChangeHandler_EndInvoke_m4175380841
mkc:__Z55Register_UnityEngine_Texture2DArray_Internal_CreateImplv
Ugg:_Single_System_IConvertible_ToDecimal_m325860800_AdjustorThunk
Tih:_Array_InternalArray__ICollection_CopyTo_TisSingle_t1397266774_m455540885_gshared
W5:__ZN17ScriptingGCHandle7AcquireE18ScriptingObjectPtr25ScriptingGCHandleWeakness
Zni:__Z74RuntimeInvoker_RuntimeObject_RuntimeObject_Int64_t3736567304_RuntimeObjectPFvvEPK10MethodInfoPvPS4_
QVi:_SessionStateChanged_Invoke_m4203746932
pTk:__ZL97Material_t340375123_CustomAttributesCacheGenerator_Material_CreateWithString_m4283839020____self0P21CustomAttributesCache
BHg:__Z75InternalEnumerator_1_System_Collections_IEnumerator_get_Current_m2395961985P31InternalEnumerator_1_t746136913PK10MethodInfo
xba:__ZN9Scripting11UnityEngine17LightmapDataProxy12CleanupProxyEv
qLd:_ServerObjectReplySink_AsyncProcessMessage_m1580266605
GBj:__ZN15dense_hashtableINSt3__24pairIK10KeyWrapperINS1_IP11Il2CppClassjEEES4_EES6_N6il2cpp8metadata14ArrayClassHashEN14dense_hash_mapIS6_S4_SB_NS6_14EqualsComparerINSA_17ArrayClassCompareEEENS0_9allocatorIS8_EEE9SelectKeyESF_SH_E21fill_range_with_emptyEPS8_SL_
EHe:__Z25Il2CppCodeGenWriteBarrierI30SecurityParameters_t2199972650EvPPT_S2_
d2:__ZN20BurstCompilerServiceC2Ev
MCa:__Z21HasAlphaTextureFormat13TextureFormat
hF:__ZN12AudioManager6UpdateEv
iZd:_MissingFieldException__ctor_m3742452630
m0i:_RequiredByNativeCodeAttribute__ctor_m119855101
EL:__GLOBAL__sub_I_Runtime_Core_Callbacks_0_cpp
tqg:_ArrayReadOnlyList_1_get_Count_m3450004702_gshared
$ob:__ZN23CachedSerializationDataD2Ev
YSb:__ZNK25CameraStackRenderingState31CalculateStereoCameraTargetTypeEv
tta:__ZN14RenderSettings23VirtualRedirectTransferER14SafeBinaryRead
Nmg:__ZNK43DecoderReplacementFallbackBuffer_t84114477923get_fallback_assigned_0Ev
EAc:__ZNK13b2CircleShape5CloneEP16b2BlockAllocator
uVj:__ZN6il2cpp2os10ThreadImpl15CurrentThreadIdEv
E2c:__ZN16VirtFuncInvoker1IP6Type_tP8String_tE6InvokeEjP12Il2CppObjectS3_
Saf:_Queue_CopyTo_m737385843
_ra:__ZN17GlobalGameManager8TransferI17RemapPPtrTransferEEvRT_
v2k:__ZL73FieldWithTarget_t3058750293_CustomAttributesCacheGenerator_m_StaticStringP21CustomAttributesCache
Aag:_SymmetricAlgorithm_get_Key_m3241860519
Iee:__ZN26X509Certificate_t48924302418set_m_publickey_10EP22ByteU5BU5D_t4116647657
xL:__GLOBAL__sub_I_Runtime_Camera_5_cpp
iKc:__ZN10Collider2DC2E10MemLabelId18ObjectCreationMode
_2e:__ZN35X509ExtensionEnumerator_t247956065916set_enumerator_0EP12Il2CppObject
tFf:__ZNK20TextInfo_t381042552223get_customCultureName_2Ev
Hja:__Z17IsObjectAvailablei
DQa:__ZN12InputManagerD0Ev
eRh:_Queue_1_Peek_m1713833142_gshared
W5j:__ZN6il2cpp6icalls8mscorlib6System11Diagnostics10StackTrace9get_traceEP15Il2CppExceptionib
uqh:_ExecutionContext_Capture_m681135907
zDd:__ZNK32CADMethodCallMessage_t261798406010get__uri_4Ev
cug:_InternalEnumerator_1_System_Collections_IEnumerator_get_Current_m2889979481_AdjustorThunk
B6i:__ZNK10KeyWrapperIP9FieldInfoE8isNormalEv
Z4k:_posix_memalign
mJh:__ZNK22Enumerator_t17895014807get_l_0Ev
Bda:__ZN9Scripting11UnityEngine15ColorGamutProxy12CleanupProxyEv
BXk:__ZL94RenderTextureDescriptor_t1974534975_CustomAttributesCacheGenerator_U3CheightU3Ek__BackingFieldP21CustomAttributesCache
TLg:__Z25Il2CppCodeGenWriteBarrierI21Comparer_1_t434075093EvPPT_S2_
Llf:__ZN33DateTime_t3738529785_StaticFields14set_MaxValue_2E20DateTime_t3738529785
$6g:_ASN1_GetBytes_m3305539297
uZk:__ZL86Logger_t274032455_CustomAttributesCacheGenerator_Logger_LogFormat_m3030796110____args2P21CustomAttributesCache
jLk:__ZL77Convert_t2465617642_CustomAttributesCacheGenerator_Convert_ToSByte_m717245755P21CustomAttributesCache
BU:__ZNK15MonoScriptCache7ReleaseEv
w2i:__ZN6il2cpp2vm5Class13HasReferencesEP11Il2CppClass
Xpe:_CLSCompliantAttribute__ctor_m581760440
Bi:_glBindTexture
J6k:_snprintf
Otd:_ConfigHandler_OnProcessingInstruction_m4212209262
pYd:_InvalidCastException__ctor_m2551002860
sih:_Array_InternalArray__ICollection_CopyTo_TisKeyValuePair_2_t2401056908_m4025041902_gshared
LL:__GLOBAL__sub_I_Runtime_Graphics_5_cpp
bhl:_emscripten_glVertexAttrib1fv__wrapper
RWa:__Z36scripting_liveness_calculation_begin17ScriptingClassPtriPFvPP12Il2CppObjectiPvES3_PFvvES7_
imb:__Z29Transfer_Blittable_ArrayFieldI18StreamedBinaryRead10Matrix4x4fEvRT_R9ArrayInfoRK23StaticTransferFieldInfo
nTi:_AudioExtensionManager_RemoveExtensionFromManager_m442924172
hZi:__ZL25UnresolvedVirtualCall_131P12Il2CppObjecthS0_PK10MethodInfo
Kik:_MonoBehaviour_Internal_IsInvokingAll_m2820042090
HNf:__ZN29Path_t1605229823_StaticFields22set_InvalidPathChars_0EP22CharU5BU5D_t3528271667
wP:__ZN13RuntimeStaticI13dynamic_arrayI19ShaderExtPluginDescLj0EELb0EE16StaticInitializeEPv
xUk:__ZL66PlayerCleanupCachedData_t1855064291_CustomAttributesCacheGeneratorP21CustomAttributesCache
A3j:___cxx_global_var_init_12342
kBh:_UnitySerializationHolder_GetModuleData_m1550266881
fdg:_String_Equals_m1744302937
uKj:__ZN14dense_hash_mapI10KeyWrapperINSt3__24pairIPKcS4_EEEi24NamespaceAndNamePairHashNS6_14EqualsComparerI26NamespaceAndNamePairEqualsEENS1_9allocatorINS2_IKS6_iEEEEE6insertERKSD_
GUh:_ReadOnlyCollection_1_System_Collections_Generic_IListU3CTU3E_Insert_m1020890112_gshared
y2e:__ZNK28X509ChainElement_t146405633812get_status_1Ev
Hwe:_Hashtable__cctor_m4112166779
wLb:__Z19SetupMotionMatricesR6CameraR18RPDataMotionVector
O_i:__ZL7log2_64y
khk:__ZN17Object_t63100795317set_m_CachedPtr_0Ei
elf:_CurrentSystemTimeZone_GetUtcOffset_m340358963
C6h:_PKCS12_Decrypt_m1280162536
Xuc:__GLOBAL__sub_I_Physics2DScriptingClasses_cpp
vug:_InternalEnumerator_1_get_Current_m3081223448_gshared
hKg:__ZN32InternalEnumerator_1_t31866461069set_idx_1Ei
ive:_CaseInsensitiveHashCodeProvider_AreEqual_m1790260777
woa:__ZN22CreateGpuProgramOutputC2Ev
Fye:_BigInteger_op_LessThanOrEqual_m3925173639
Wek:_PersistentCallGroup_Initialize_m4253175514
loe:_Boolean_System_IConvertible_ToChar_m4279513009_AdjustorThunk
ywe:_Hashtable__ctor_m1763145853
k1c:__ZN25ParameterInfo_t186105659818set_PositionImpl_4Ei
GVd:_NumberFormatter_ScaleOrder_m3813786990
d_g:_EqualityComparer_1__ctor_m2241711498_gshared
Sog:__ZN25GenericVirtActionInvoker2IP12Il2CppObjectS1_E6InvokeEPK10MethodInfoS1_S1_S1_
Vah:_PrivateKeyInfo_DecodeDSA_m771724585
Nyi:_Interval_get_Size_m4163671410_AdjustorThunk
C7b:__ZN8GUILayer12CleanupClassEv
Tte:_SynchronizedArrayListWrapper_get_SyncRoot_m3862302789
TNh:_List_1_System_Collections_IEnumerable_GetEnumerator_m839737540_gshared
Wyh:_UInt32_System_IConvertible_ToSByte_m1061556466
YPd:_WellKnownClientTypeEntry__ctor_m2471908952
jb:invoke_vidi
y1d:_NumberFormatter_FormatRoundtrip_m19342689
cPd:_RemotingServices_CreateClientProxyForContextBound_m783705199
g0h:_InternalAsyncResult_get_ProceedAfterHandshake_m2508379800
Fjf:_Convert_ToUInt16_m2952781888
IMg:_Enumerator_System_Collections_IEnumerator_get_Current_m3816090481_gshared
fYj:__ZN6il2cpp5utils11StringUtils15StringDuplicateEPKc
bM:__GLOBAL__sub_I_Runtime_Logging_0_cpp
Ws:__ZN9Scripting11UnityEngine10Animations21ConstraintSourceProxy12CleanupProxyEv
Qna:__ZNK9ShaderLab21ShaderRasterStateDesc16ToGfxRasterStateEPK19ShaderPropertySheetS3_R14GfxRasterState
SIc:__ZN13BoxCollider2D8TransferI18StreamedBinaryReadEEvRT_
F7c:__ZN31OpCodes_t126150456_StaticFields10set_Div_90E17OpCode_t123070264
e8j:__ZN6il2cpp2os9EventImplC2Ebb
qwh:_Type_GetType_m3605423543
Zxf:__ZN23CultureInfo_t415784306813set_m_name_17EP8String_t
JQ:__ZN13HandleManagerC2Ev
SIj:__ZN15dense_hashtableINSt3__24pairIK10KeyWrapperIP14Il2CppIUnknownEjEES5_N6il2cpp5utils11PointerHashIS3_EEN14dense_hash_mapIS5_jSB_NS5_14EqualsComparerINS0_8equal_toIS4_EEEENS0_9allocatorIS7_EEE9SelectKeyESG_SI_E9set_valueEPS7_RKS7_
dUe:_NameValueCollection__ctor_m4090053322
gqk:_ScriptableObject_t2528358522_marshal_pinvoke
MQ:__Z20IsMatrixBuiltinParamPKcPi
Hyj:__ZN6il2cpp2gc19AppendOnlyGCHashMapINSt3__24pairIPK10MethodInfoP11Il2CppClassEEP11Il2CppArray17ReflectionMapHashIS9_ENS2_8equal_toIS9_EEEC2Ev
Nfg:_SecurityFrame_t1422462475_marshal_pinvoke
VEh:__ZNK41RijndaelTransform_t631222241_StaticFields9get_T0_19Ev
Esj:__ZN15dense_hashtableINSt3__24pairIK10KeyWrapperINS1_IPK10MethodInfoP11Il2CppClassEEEjEES9_17ReflectionMapHashIS8_EN14dense_hash_mapIS9_jSD_NS9_14EqualsComparerINS0_8equal_toIS8_EEEENS0_9allocatorISB_EEE9SelectKeyESI_SK_E16reset_thresholdsEv
pph:_UnicodeEncoding_GetBytesInternal_m1902824297
r9b:__ZN8Renderer19PostInitializeClassEv
$fh:_Array_FindIndex_TisRuntimeObject_m2504082708_gshared
mai:_X509Chain_FindCertificateRoot_m1937726457
aGi:__ZNK22AnchorInfo_t33870111519get_pos_1Ev
xYf:__ZN25ObjectManager_t165306432526set__deserializedRecords_2EP21ArrayList_t2718874744
zRc:__ZN11UnityEngine15PlatformWrapper21GetVRPlayAreaGeometryER13dynamic_arrayI8Vector3fLj0EE
fRi:__ZNK28AudioClipPlayable_t78506902214get_m_Handle_0Ev
s3j:__ZN6il2cpp6icalls8mscorlib6System8Delegate23CreateDelegate_internalEP20Il2CppReflectionTypeP12Il2CppObjectP22Il2CppReflectionMethodb
x_g:__ZN28CodePointIndexer_t413443108615set_defaultCP_3Ei
dPg:_Enumerator_System_Collections_IEnumerator_get_Current_m921113401_AdjustorThunk
VRb:__ZNK13RendererScene22GetStaticBoundingBoxesEv
tob:__ZN18DelayedCallManager18CancelCallDelayed2E4PPtrI6ObjectEPF15CallObjectStatePS1_PvES7_
F7k:_threebyte_strstr
Nlk:__ZN26PlayableHandle_t109585380315set_m_Version_1Ej
Lha:__ZN25ThreadsafeLinearAllocator10ReallocateEPvji
Rab:__Z18Transfer_BlittableI14SafeBinaryReadLb1E11QuaternionfEvRK29SerializationCommandArgumentsR31RuntimeSerializationCommandInfo
tXe:__ZNK24ServicePoint_t278696684412get_locker_8Ev
h3:__ZN18SpriteAtlasManagerD0Ev
E2j:_GC_disable
QAa:__ZN10Matrix4x4f8TransferI14SafeBinaryReadEEvRT_
yuj:__ZNK10KeyWrapperINSt3__24pairIPK12PropertyInfoP11Il2CppClassEEE14EqualsComparerINS0_8equal_toIS7_EEEclERKS8_SE_
smb:__Z29Transfer_Blittable_ArrayFieldI18StreamedBinaryReadxEvRT_R9ArrayInfoRK23StaticTransferFieldInfo
mib:__Z35Transfer_Blittable_FixedBufferFieldI19StreamedBinaryWritefEvRK29SerializationCommandArgumentsR31RuntimeSerializationCommandInfo
bCf:__ZNK30DateTimeFormatInfo_t240585370115get_dayNames_29Ev
g1f:_CryptographicUnexpectedOperationException__ctor_m2381988196
Rxj:__ZN14dense_hash_mapI10KeyWrapperIPK22Il2CppGenericParameterEPK24MonoGenericParameterInfoN6il2cpp5utils11PointerHashIS2_EENS4_14EqualsComparerINSt3__28equal_toIS3_EEEENSD_9allocatorINSD_4pairIKS4_S7_EEEEE15set_deleted_keyERSJ_
dAg:_InternalEnumerator_1_System_Collections_IEnumerator_get_Current_m4213507601_gshared
fY:__Z6AppendRKN4core12basic_stringIcNS_20StringStorageDefaultIcEEEEPKc
Ihf:_Convert_ToDouble_m996590115
QWa:__ZL14OnWorldStoppedv
nfh:_Array_InternalArray__IEnumerable_GetEnumerator_TisCustomAttributeNamedArgument_t287865710_m523021714_gshared
WPh:_Enumerator_Dispose_m2419537076_gshared
MOj:__ZN6il2cpp2vm6Object12NullableInitEPhP12Il2CppObjectP11Il2CppClass
_9e:_HashKeys_get_SyncRoot_m3757723936
ZGj:__ZN6il2cpp6icalls8mscorlib6SystemL10AssignRealIdEEvNS2_17WidenedValueUnionEPv14Il2CppTypeEnumjj
txb:__ZN7ApiGLES18ClearBufferSubDataEjN2gl12BufferTargetEll
FGj:__ZN6il2cpp6icalls8mscorlib6System5Array9GetLengthEP11Il2CppArrayi
llk:_Object_t631007953_marshal_pinvoke_cleanup
Yvb:__ZN13GfxDeviceGLES13AfterDrawCallEv
qa:invoke_fiiii
sOk:__ZL64CipherSuiteCollection_t1129639304_CustomAttributesCacheGeneratorP21CustomAttributesCache
nSj:__ZN15dense_hashtableINSt3__24pairIK10KeyWrapperIPcES3_EES4_N6il2cpp5utils15PassThroughHashIS3_EEN14dense_hash_mapIS4_S3_SA_NS4_14EqualsComparerINS0_8equal_toIS3_EEEENS0_9allocatorIS6_EEE9SelectKeyESF_SH_E15destroy_bucketsEjj
BIi:_Uri_CheckHostName_m2213216182
_gl:_emscripten_glBindRenderbuffer__wrapper
wVj:__ZN6il2cpp2os10ThreadImpl22CreateForCurrentThreadEv
uBh:_ValueType_InternalEquals_m1384040357
J2i:__ZNKSt3__26vectorIPK10Il2CppTypeNS_9allocatorIS3_EEE8max_sizeEv
RJg:_InternalEnumerator_1_System_Collections_IEnumerator_Reset_m729791527_AdjustorThunk
Vse:_ArrayListWrapper_Contains_m2641184447
_L:__GLOBAL__sub_I_Runtime_Interfaces_2_cpp
cli:__Z177RuntimeInvoker_Int32_t2950945753_RuntimeObject_Int32_t2950945753_Int32_t2950945753_RuntimeObject_Int32_t2950945753_EncoderFallbackBufferU26_t2343550713_CharU5BU5DU26_t3299466565PFvvEPK10MethodInfoPvPS4_
hcl:dynCall_viiifi
iAb:__ZN18GfxFramebufferGLES20ActiveContextChangedEPP17RenderSurfaceBaseS2_
kgl:_glAttachShader__wrapper
vZk:__ZL86Logger_t274032455_CustomAttributesCacheGenerator_Logger_LogFormat_m3300686007____args3P21CustomAttributesCache
$Ue:_FileWebRequest_System_Runtime_Serialization_ISerializable_GetObjectData_m1504466482
H7a:__Z19PluginsRenderMarkeri
J4k:_Timer_Update_m1253272202
E$b:__ZNSt3__26vectorIN9ShaderLab20SerializedSubProgram15StructParameterENS_9allocatorIS3_EEE6assignINS_11__wrap_iterIPS3_EEEENS_9enable_ifIXaasr21__is_forward_iteratorIT_EE5valuesr16is_constructibleIS3_NS_15iterator_traitsISC_E9referenceEEE5valueEvE4typeESC_SC_
lJa:__ZN14Texture2DArray21AwakeFromLoadThreadedEv
lGg:_InternalEnumerator_1_get_Current_m1698047500_gshared
rp:__ZN4PPtrI9TransformE8TransferI18StreamedBinaryReadEEvRT_
kMj:__ZNSt3__214__split_bufferIN6il2cpp2vm5Image20EmbeddedResourceDataERNS_9allocatorIS4_EEEC2EjjS7_
rLd:_ServerObjectTerminatorSink_SyncProcessMessage_m2085589766
MVc:__Z69Register_UnityEngine_Analytics_UnityAnalyticsHandler_Internal_Destroyv
H3e:_X509Certificate2Collection_Add_m3151757943
iTf:_ObjectWriter_WriteArray_m1738497250
Pek:_UnityEventBase_FindMethod_m3366332957
bBc:__ZNSt3__227__insertion_sort_incompleteIR15DepthComparitorP8DepthHitEEbT0_S5_T_
rve:_CaseInsensitiveHashCodeProvider_get_DefaultInvariant_m4264275163
kRe:__ZN27SslClientStream_t391462466128set_ServerCertValidation2_19EP42CertificateValidationCallback2_t1842476440
kBj:__ZN15dense_hashtableINSt3__24pairIK10KeyWrapperINS1_IP11Il2CppClassjEEES4_EES6_N6il2cpp8metadata14ArrayClassHashEN14dense_hash_mapIS6_S4_SB_NS6_14EqualsComparerINSA_17ArrayClassCompareEEENS0_9allocatorIS8_EEE9SelectKeyESF_SH_E4swapERSK_
uli:__Z195RuntimeInvoker_Int32_t2950945753_RuntimeObject_Int32_t2950945753_Int32_t2950945753_Int32_t2950945753_RuntimeObject_DecoderFallbackBufferU26_t3866396827_ByteU5BU5DU26_t4057885439_SByte_t1669577662PFvvEPK10MethodInfoPvPS4_
Kca:__ZN9Scripting11UnityEngine12Experimental9Playables27MaterialEffectPlayableProxy9InitProxyEv
u2h:__ZN21TlsStream_t236545396514set_canWrite_2Eb
eG:__ZN5physx14PxLightCpuTask12addReferenceEv
cqa:__ZNK15InstancingProps35FillInstanceBufferDispatchConstantsIN10Instancing14RenderLoopArgsEEEvPPvjjRK19ShaderPropertySheetRKT_
SPj:__ZN6il2cpp2gc16GarbageCollector19InitializeFinalizerEv
$Th:_ReadOnlyCollection_1__ctor_m2122524688_gshared
Agb:__Z35Transfer_Blittable_FixedBufferFieldI24GenerateTypeTreeTransferxEvRK29SerializationCommandArgumentsR31RuntimeSerializationCommandInfo
gdd:__ZN25GenericVirtActionInvoker1IP20Delegate_t1188392813E6InvokeEPK10MethodInfoP12Il2CppObjectS1_
lkh:_Array_InternalArray__set_Item_TisLink_t544317964_m1234244240_gshared
TRk:__ZL98Behaviour_t1437897464_CustomAttributesCacheGenerator_Behaviour_t1437897464____enabled_PropertyInfoP21CustomAttributesCache
RVb:__Z20CalculateSqrDistanceRK8Vector3fRK4AABB
nQg:_Enumerator__ctor_m324536319_gshared
j_f:_SerializationInfo_GetBoolean_m1756153320
RA:__Z32AudioMixerDuckingProcessCallbackP21UnityAudioEffectStatePfS1_jii
ijl:_glGetUniformIndices__wrapper
wUh:_ReadOnlyCollection_1_Contains_m2979956790_gshared
p8b:__ZN26CustomRenderTextureManagerD2Ev
EKj:__ZN15dense_hashtableINSt3__24pairIK10KeyWrapperINS1_IPKcS4_EEEiEES6_24NamespaceAndNamePairHashN14dense_hash_mapIS6_iS9_NS6_14EqualsComparerI26NamespaceAndNamePairEqualsEENS0_9allocatorIS8_EEE9SelectKeyESD_SF_E9set_valueEPS8_RKS8_
bWe:__ZN26HttpWebRequest_t166943651516set_mediaType_17EP8String_t
Pw:__ZN12AudioManager8TransferI24GenerateTypeTreeTransferEEvRT_
Sua:__Z25GetBytesFromTextureFormat13TextureFormat
vIa:__ZN9Texture3D19UnloadFromGfxDeviceEb
iie:__ZNK25SmallXmlParser_t97378783912get_reader_1Ev
hsb:__ZNK11PreloadData18GetInstanceIDArrayER13dynamic_arrayIiLj0EE
Keb:__Z18Transfer_BlittableI17RemapPPtrTransferLb0EsEvRK29SerializationCommandArgumentsR31RuntimeSerializationCommandInfo
MGd:__ZNK24ErrorMessage_t124068807310get__uri_0Ev
b$k:__ZL64UnityAnalyticsHandler_t3011359618_CustomAttributesCacheGeneratorP21CustomAttributesCache
d9c:__ZN31OpCodes_t126150456_StaticFields19set_Conv_Ovf_U8_170E17OpCode_t123070264
OZd:_AmbiguousMatchException__ctor_m2012725345
xV:__Z32scripting_class_get_assemblyname17ScriptingClassPtr
vRc:__ZN11UnityEngine15PlatformWrapper15GetVRDeviceNameEv
WLc:__Z50Register_UnityEngine_Rigidbody2D_AddForce_Injectedv
cxg:_InternalEnumerator_1_get_Current_m2128158355_AdjustorThunk
i5a:__ZN9GfxDevice21RegisterNativeTextureE9TextureIDi16TextureDimension
Chf:_Decimal_decimal2double_m2573538823
KPh:__ZNK22Enumerator_t35882777607get_q_0Ev
Z6e:__ZNK15Key_t272552300113get_pattern_0Ev
DNk:__ZL53TypeFilter_t2356120900_CustomAttributesCacheGeneratorP21CustomAttributesCache
h5j:__ZN6il2cpp6icalls8mscorlib6System10Reflection4Emit11TypeBuilder20create_generic_classEP27Il2CppReflectionTypeBuilder
g4d:__ZNK23AssemblyName_t27093193815get_keyToken_11Ev
tAb:__ZNK16UniformCacheGLES6SubmitEjRK13dynamic_arrayIN20GpuProgramParameters14ValueParameterELj0EERKS0_IiLj0EE
DJk:__ZL50Monitor_t2197244473_CustomAttributesCacheGeneratorP21CustomAttributesCache
Aij:__ZNSt3__26vectorIPK10MethodInfoNS_9allocatorIS3_EEE26__swap_out_circular_bufferERNS_14__split_bufferIS3_RS5_EE
xze:_PrimalityTest_EndInvoke_m1035389364
ZD:__Z60Register_UnityEngine_AudioListener_GetNumExtensionPropertiesv
xh:_emscripten_glUniformMatrix4fv
KBj:__ZN15dense_hashtableINSt3__24pairIK10KeyWrapperINS1_IP11Il2CppClassjEEES4_EES6_N6il2cpp8metadata14ArrayClassHashEN14dense_hash_mapIS6_S4_SB_NS6_14EqualsComparerINSA_17ArrayClassCompareEEENS0_9allocatorIS8_EEE9SelectKeyESF_SH_E13set_empty_keyERKS8_
BXa:__ZN12ScriptMapperD2Ev
g7c:__ZN31OpCodes_t126150456_StaticFields13set_Bgt_Un_65E17OpCode_t123070264
eFf:__ZNK19SortKey_t395533673213get_options_1Ev
n1a:__ZN25MultiBlocksMemoryFileData5WriteEyyPKv
U8j:_AnimationCurve_Finalize_m2397002729
Nxg:__Z74InternalEnumerator_1_System_Collections_IEnumerator_get_Current_m888718134P32InternalEnumerator_1_t3459884504PK10MethodInfo
IZf:_SerializationCallbacks__cctor_m1674315180
Nbj:__ZNK15dense_hashtableI10KeyWrapperIPK19Il2CppGenericMethodES4_N6il2cpp8metadata23Il2CppGenericMethodHashEN14dense_hash_setIS4_S7_NS4_14EqualsComparerINS6_26Il2CppGenericMethodCompareEEENSt3__29allocatorIS4_EEE8IdentityESB_SE_E23find_position_with_hashERKS4_j
yna:__ZNSt3__26vectorIN12FlareManager10FlareEntryENS_9allocatorIS2_EEE21__push_back_slow_pathIS2_EEvOT_
Qga:__ZNK7Hash12812PackToUInt32Ev
Mlc:__ZN9Scripting11UnityEngine19GUILayoutEntryProxy9InitProxyEv
Zte:_SynchronizedArrayListWrapper_IndexOf_m3642674350
qX:__ZNSt3__227__insertion_sort_incompleteIRNS_6__lessI14ObjectLoadDataS2_EEPS2_EEbT0_S6_T_
SK:__ZN11UnityEngine15CloudWebService16SessionContainer8AddEventEPNS0_14CloudEventInfoE
Z8a:__Z4TrimRKN4core12basic_stringIcNS_20StringStorageDefaultIcEEEES5_
Dlh:_Dictionary_2_Do_ICollectionCopyTo_TisKeyValuePair_2_t3842366416_m1399105608_gshared
PBi:__ZNK16Link_t339594915917get_offset_addr_1Ev
V1e:_X509Certificate2_Import_m4026562329
m8d:_DynamicMethod_destroy_dynamic_method_m2651031212
Gld:_ResourceReader_Read7BitEncodedInt_m3568166465
Idl:_glGetStringi__wrapper
zOi:__ZNK42U3CTimedTriggerU3Ec__Iterator0_t381343549418get_U24disposing_2Ev
LAa:__ZN10VertexData8TransferI14SafeBinaryReadEEvRT_
XIh:__ZN22Enumerator_t364918432913set_current_3E39CustomAttributeNamedArgument_t287865710
E2:__ZN13RuntimeStaticI12AdsIdHandlerLb0EE16StaticInitializeEPv
i2j:_GC_malloc_atomic
Upd:_ActivatedClientTypeEntry_ToString_m2494181680
R5j:__ZN6il2cpp5utils6Memory13AlignedMallocEjj
aDe:__ZN25PrivateKeyInfo_t66802799314set__version_0Ei
rnk:_PropertyName_GetHashCode_m3570549176_AdjustorThunk
rWk:__ZL55PropertyName_t3749835189_CustomAttributesCacheGeneratorP21CustomAttributesCache
Ajd:_StrongNameKeyPair_GetRSA_m2008774769
mMj:__ZNSt3__214__split_bufferIN6il2cpp2vm5Image20EmbeddedResourceDataERNS_9allocatorIS4_EEED2Ev
rVe:__ZN25FtpWebRequest_t157781830517set_usePassive_11Eb
BT:__ZL20SortItemByInstanceIDRKN18AwakeFromLoadQueue4ItemES2_
Nsk:_Vector2_op_Multiply_m2347887432
Zfd:_MonoEvent_ToString_m2145104522
rUe:_TypeConverterAttribute__ctor_m1774069684
jkc:__Z36RenderTexture_CUSTOM_Internal_CreateP12Il2CppObject
$uc:__ZL51__ManagedRegistrationHelperFunction_Collider2DProxyPv
Q5c:_OpCode_get_Value_m917085326
x$d:_MonoType_GetConstructors_m2574682189
qDc:__ZN25b2SynchronizeFixturesTask7TaskJobEPS_j
jpk:_RenderTextureDescriptor_get_height_m1891977024
wwg:__Z44InternalEnumerator_1_get_Current_m3225386639P31InternalEnumerator_1_t350626606PK10MethodInfo
RWe:__ZNK43ServicePointManager_t170559685_StaticFields22get_maxServicePoints_4Ev
TWj:__ZNK15dense_hashtableINSt3__24pairIK10KeyWrapperIPK19Il2CppGenericMethodEP10MethodInfoEES6_N6il2cpp8metadata23Il2CppGenericMethodHashEN14dense_hash_mapIS6_S9_SD_NS6_14EqualsComparerINSC_26Il2CppGenericMethodCompareEEENS0_9allocatorISA_EEE9SelectKeyESH_SJ_E10test_emptyERK30dense_hashtable_const_iteratorISA_S6_SD_SL_SH_SJ_E
FEk:__ZL59SinkProviderData_t4151372974_CustomAttributesCacheGeneratorP21CustomAttributesCache
opj:__ZN15dense_hashtableINSt3__24pairIK10KeyWrapperINS1_IPK14Il2CppAssemblyP11Il2CppClassEEEjEES9_17ReflectionMapHashIS8_EN14dense_hash_mapIS9_jSD_NS9_14EqualsComparerINS0_8equal_toIS8_EEEENS0_9allocatorISB_EEE9SelectKeyESI_SK_E12expand_arrayEjN21dense_hash_map_traits17integral_constantIbLb0EEE
K$:__ZL31InitializeRendererUpdateManagerPv
y1e:__ZNK27X509Certificate2_t71404912616get__publicKey_9Ev
$0c:_ParameterInfo__ctor_m2779026345
dWh:_Func_1_EndInvoke_m3591709415_gshared
ETj:__ZN6il2cpp2gc16GarbageCollector9StopWorldEv
Dde:_DeriveBytes_set_Password_m3005258189
XUd:_NumberFormatter_get_IsZeroInteger_m2263284741
dD:__ZN13AudioListener12CleanupClassEv
Zxg:__Z37InternalEnumerator_1__ctor_m217498388P32InternalEnumerator_1_t3858009870P11Il2CppArrayPK10MethodInfo
bAa:__ZNSt3__26__treeINS_12__value_typeIiNS_4pairIP4ListI8ListNodeI9BehaviourEES8_EEEENS_19__map_value_compareIiSA_NS_4lessIiEELb1EEENS_9allocatorISA_EEE7destroyEPNS_11__tree_nodeISA_PvEE
Wfe:__ZN18PKCS12_t410153306015set__password_1EP22ByteU5BU5D_t4116647657
$zd:__ZN21InterfaceFuncInvoker1I19TimeSpan_t881159249P12Il2CppObjectE6InvokeEjP11Il2CppClassS2_S2_
YSf:_ObjectWriter_GetAssemblyNameId_m2316410453
Yqk:_HitInfo_t3229609740_marshal_pinvoke
M2h:_X509Certificate_PEM_m2020851166
hAg:__ZNK32InternalEnumerator_1_t363021427411get_array_0Ev
sjh:_Array_InternalArray__Insert_TisDateTime_t3738529785_m2308632330_gshared
e8:__ZL49__ManagedRegistrationHelperFunction_ProfilerProxyPv
DCh:_RNGCryptoServiceProvider_RngGetBytes_m1695806698
$$h:__ZN25SslStreamBase_t166741340712set_write_12EP12Il2CppObject
K3g:__ZN18Escape_t329478819012set_Source_0EP8String_t
HNe:_TlsServerCertificateRequest_ProcessAsTls1_m3214041063
P2c:__ZNK26AssemblyBuilder_t35988525025get_corlib_object_type_35Ev
SNi:__ZNK23TriggerRule_t194629832113get_m_Value_2Ev
kSc:__ZN11UnityEngine15PlatformWrapper27GetGraphicsCapsSupportFlagsEv
Elh:_Dictionary_2_Do_ICollectionCopyTo_TisRuntimeObject_m3695543300_gshared
ikb:__ZN12NativeBufferI16Converter_StringE15SetupForWritingER9ArrayInfo
xja:__ZN14SafeBinaryRead8TransferIN10GameObject13ComponentPairEEEvRT_PKc17TransferMetaFlags
tel:___cxa_end_catch__wrapper
eqi:__Z121RuntimeInvoker_Int32_t2950945753_RuntimeObject_Int32U26_t1369213839_Int32_t2950945753_Int32_t2950945753_Int32_t2950945753PFvvEPK10MethodInfoPvPS4_
O2c:__ZNK23TypeBuilder_t107394815413get_parent_10Ev
pre:_Char_ToString_m278452217
wMf:__ZN22MemoryStream_t9497314718set_dirty_bytes_10Ei
zGe:_CipherSuite_get_DecryptionCipher_m2839827488
oci:__Z32RuntimeInvoker_Boolean_t97287965PFvvEPK10MethodInfoPvPS4_
oMb:__ZNK4PPtrI5LightEcvPS0_Ev
uye:_BigInteger_op_RightShift_m460065452
XLg:__ZNK34Comparer_1_t434075093_StaticFields14get__default_0Ev
n5d:__Z72Array_AsReadOnly_TisCustomAttributeTypedArgument_t2723150157_m2714472677P12Il2CppObjectP46CustomAttributeTypedArgumentU5BU5D_t1465843424PK10MethodInfo
dpb:__ZN13MonoBehaviour22DoScriptRebuildWarningEv
zGj:__ZN6il2cpp6icalls8mscorlib6System5Array13ClearInternalEP11Il2CppArrayii
qDg:__Z69InternalEnumerator_1_System_Collections_IEnumerator_Reset_m1259718730P31InternalEnumerator_1_t958356908PK10MethodInfo
xtj:__ZNK15dense_hashtableINSt3__24pairIK10KeyWrapperINS1_IPK11Il2CppImageP11Il2CppClassEEEjEES9_17ReflectionMapHashIS8_EN14dense_hash_mapIS9_jSD_NS9_14EqualsComparerINS0_8equal_toIS8_EEEENS0_9allocatorISB_EEE9SelectKeyESI_SK_E12test_deletedERK24dense_hashtable_iteratorISB_S9_SD_SM_SI_SK_E
dal:_llvm_cttz_i32
Yjg:_Encoding_GetEncoding_m2801244948
_ni:__Z75RuntimeInvoker_RuntimeObject_RuntimeObject_Single_t1397266774_RuntimeObjectPFvvEPK10MethodInfoPvPS4_
D1h:_SslStreamBase_EndRead_m495357226
L$i:_NativeThrowsAttribute_set_ThrowsException_m4039166389
wFj:__ZN6il2cpp5utils9PathUtils7CombineIcEENSt3__212basic_stringIT_NS3_11char_traitsIS5_EENS3_9allocatorIS5_EEEERKSA_SC_
WMj:__ZNK14dense_hash_setI10KeyWrapperIP18Il2CppGenericClassEN6il2cpp8metadata22Il2CppGenericClassHashENS3_14EqualsComparerINS5_25Il2CppGenericClassCompareEEENSt3__29allocatorIS3_EEE8IdentityclERKS3_
xPg:__Z38Enumerator_get_CurrentValue_m785745355P22Enumerator_t2086727927PK10MethodInfo
_Jh:_Enumerator_System_Collections_IEnumerator_get_Current_m713684915_AdjustorThunk
aFh:_GenericComparer_1_Compare_m459680062_gshared
g9d:_EnumBuilder_GetConstructorImpl_m3068576149
DS:__Z18ConvertUTF16toUTF8PPKtS0_PPhS2_15ConversionFlags
eWj:__ZN6il2cpp2os20PathErrnoToErrorCodeERKNSt3__212basic_stringIcNS1_11char_traitsIcEENS1_9allocatorIcEEEEi
Mfc:__Z24GetActualTargetFrameRatev
x_i:__ZL16my_g_bit_nth_msfj
YMk:__ZL65NonSerializedAttribute_t2945079482_CustomAttributesCacheGeneratorP21CustomAttributesCache
$rd:__ZNK24ProviderData_t327212331822get_CustomProperties_3Ev
G7e:__ZN22Interpreter_t5827157018set_qs_7EP23QuickSearch_t2588090110
jCj:__ZN15dense_hashtableINSt3__24pairIK10KeyWrapperIP11Il2CppClassES4_EES5_N6il2cpp8metadata16SZArrayClassHashEN14dense_hash_mapIS5_S4_SA_NS5_14EqualsComparerINS9_19SZArrayClassCompareEEENS0_9allocatorIS7_EEE9SelectKeyESE_SG_E12expand_arrayEjN21dense_hash_map_traits17integral_constantIbLb0EEE
ibk:__ZN30GenericInterfaceActionInvoker1IP18Camera_t4157153871E6InvokeEPK10MethodInfoP12Il2CppObjectS1_
_Ph:_Enumerator_MoveNext_m3662315381_AdjustorThunk
hNe:_TlsClientFinished_ProcessAsTls1_m2429863130
Qpd:_ActivatedClientTypeEntry_get_ApplicationUrl_m2894992111
CIb:__Z23SetupStereoFlareElementP11FlareVertexRK8Vector2fS3_S3_RK11ColorRGBA32RK10Matrix4x4fRK8Vector3fb
Ije:_AppDomain_InternalPushDomainRefByID_m1598870089
R2i:__ZN6il2cpp2vm5Class15GetInstanceSizeEPK11Il2CppClass
X7i:__ZNK10KeyWrapperIPK17Il2CppGenericInstEcvRKS2_Ev
lZf:__ZNK24ObjectRecord_t118746727211get_Next_12Ev
qVd:__ZNK27NumberFormatter_t118292462112get__val4_22Ev
AWk:__ZL57ReflectionProbe_t175708936_CustomAttributesCacheGeneratorP21CustomAttributesCache
EPk:__ZL63ExpressionCollection_t1810289389_CustomAttributesCacheGeneratorP21CustomAttributesCache
Dtc:__ZN9Scripting11UnityEngine31ParticleSystemVertexStreamProxy9InitProxyEv
dIe:__ZNK33CipherSuiteCollection_t112963930418get_cipherSuites_0Ev
Tkh:_Array_InternalArray__set_Item_TisPlayerLoopSystem_t105772105_m93492520_gshared
Hjg:_String_Join_m2050845953
mSg:_ShimEnumerator_MoveNext_m2406150314_gshared
NAb:__ZL19BlitFramebufferImplRN4gles23BlitFramebufferDrawQuadER9GfxDevice9TextureIDRK8Vector4f
meb:__Z18Transfer_BlittableI17RemapPPtrTransferLb0EhEvRK29SerializationCommandArgumentsR31RuntimeSerializationCommandInfo
zcl:dynCall_viiiiiiiiiiiiii
P8b:__ZN14Texture2DArray11InitTextureEiii13TextureFormatb
WIk:__ZL104Encoding_t1523322056_CustomAttributesCacheGenerator_Encoding_t1523322056____DecoderFallback_PropertyInfoP21CustomAttributesCache
Kbf:__ZNK22SortedList_t242769464123get_modificationCount_2Ev
l3c:__ZNK31OpCodes_t126150456_StaticFields13get_Ldarg_0_2Ev
nCa:__ZN12CubemapArray21AwakeFromLoadThreadedEv
Tgf:__ZNK19Decimal_t294825938011get_flags_5Ev
FFg:__Z41InternalEnumerator_1_MoveNext_m3134701632P32InternalEnumerator_1_t2304330891PK10MethodInfo
QVb:__Z34TextureStreamingCalculateLoadOrderP23TextureStreamingJobData
QIf:_Directory_CreateDirectoriesInternal_m3735342319
QLh:_List_1_RemoveAll_m517055598_gshared
Msg:__Z69InternalEnumerator_1_System_Collections_IEnumerator_Reset_m3327951435P32InternalEnumerator_1_t2041360493PK10MethodInfo
azj:__ZN15dense_hashtableINSt3__24pairIK10KeyWrapperINS1_IPK11Il2CppImageP11Il2CppClassEEEjEES9_17ReflectionMapHashIS8_EN14dense_hash_mapIS9_jSD_NS9_14EqualsComparerINS0_8equal_toIS8_EEEENS0_9allocatorISB_EEE9SelectKeyESI_SK_E14squash_deletedEv
Rnf:__Z43GenericEqualityComparer_1__ctor_m2043450621P37GenericEqualityComparer_1_t3463599768PK10MethodInfo
_9f:_SHAConstants__cctor_m1699027474
dgd:_MonoEventInfo_t346866618_marshal_pinvoke_back
ADc:__ZN39b2PrepareDiscreteIslandContactIndexTask7TaskJobEPS_j
SMb:__ZNK6Camera26GetStereoSingleCullEnabledEv
JMg:__Z35Enumerator_VerifyCurrent_m829026141P22Enumerator_t3398877024PK10MethodInfo
_Kk:__ZL78Convert_t2465617642_CustomAttributesCacheGenerator_Convert_ToInt16_m1733792763P21CustomAttributesCache
e5h:_BasicConstraintsExtension__ctor_m3191645544
iTa:__Z14resize_trimmedINSt3__26vectorIN4core12basic_stringIcNS2_20StringStorageDefaultIcEEEE13stl_allocatorIS6_L18MemLabelIdentifier13ELi16EEEEEvRT_j
zbb:__Z18Transfer_BlittableI14SafeBinaryReadLb0EaEvRK29SerializationCommandArgumentsR31RuntimeSerializationCommandInfo
vre:_CharEnumerator_System_Collections_IEnumerator_get_Current_m1328529384
Rpd:__ZNK35ActivatedClientTypeEntry_t76123366120get_applicationUrl_2Ev
MLa:__ZN4core8hash_setINS_4pairIKiiLb0EEENS_9hash_pairINS_4hashIiEES2_iEENS_10equal_pairINSt3__28equal_toIiEES2_iEEE6insertERKS3_
xci:__Z98RuntimeInvoker_Boolean_t97287965_RuntimeObject_Int32_t2950945753_RuntimeObject_Int64U26_t200113976PFvvEPK10MethodInfoPvPS4_
Vra:__ZN17GlobalGameManager8TransferI24GenerateTypeTreeTransferEEvRT_
Iqe:_Char_System_IConvertible_ToUInt64_m3536560782
UYg:_EqualityComparer_1__cctor_m3452395357_gshared
lWk:__ZL74PhysicsSkinnedClothFinishUpdate_t2050201317_CustomAttributesCacheGeneratorP21CustomAttributesCache
w1b:__ZN15SerializeTraitsINSt3__26vectorIN9ShaderLab20SerializedSubProgram15MatrixParameterENS0_9allocatorIS4_EEEEE8TransferI24GenerateTypeTreeTransferEEvRS7_RT_
MTd:__Z23il2cpp_codegen_multiplyIxxEN11pick_biggerIT_T0_E4typeES1_S2_
JGb:__Z20SyncFenceCullResultsR11CullResults
rCb:__ZN15TextureTFMethod20IsBoneCountSupportedEi
Nsf:_Double_ToString_m3828879243_AdjustorThunk
Lfb:__Z22TransferField_NonArrayI17RemapPPtrTransfer27Converter_SimpleNativeClassI8GUIStyleEEvRK23StaticTransferFieldInfoR31RuntimeSerializationCommandInfoRT0_
tQf:_TextReader_Synchronized_m3004980758
wYc:__ZNK20UnityWebRequestProtoI24UnityWebRequestTransport16AtomicRefCounter14RedirectHelper14ResponseHelper15DownloadHandler13UploadHandler18CertificateHandler12HeaderHelper14AsyncOperationE16GetUploadedBytesEv
JUj:__ZN6il2cpp2os6Thread12QueueUserAPCEPFvPvES2_
s6f:__ZN23RC2Transform_t4583214879set_R0_12Et
Foa:__ZN19ShaderPropertySheet10SetTextureERK23FastTexturePropertyNameP7Texture
bmb:__Z13TransferFieldI18StreamedBinaryReadLb0E27Converter_SimpleNativeClassI17AnimationCurveTplIfEEEvRK23StaticTransferFieldInfoR31RuntimeSerializationCommandInfoRT1_
k5d:_CustomAttributeData__ctor_m2966233049
pvg:__Z75InternalEnumerator_1_System_Collections_IEnumerator_get_Current_m1676501075P32InternalEnumerator_1_t1451382081PK10MethodInfo
Xee:__ZN25X509Extension_t317339365213set_extnOid_0EP8String_t
lMe:_Context_set_ClientWriteIV_m3405909624
Zea:__ZN9Scripting5Unity11Collections14AllocatorProxy12CleanupProxyEv
F6f:__ZN28RIPEMD160Managed_t249156194116set__HashValue_6EP24UInt32U5BU5D_t2770800703
KLi:_AesManaged_CreateDecryptor_m692040246
aMk:__ZL79Convert_t2465617642_CustomAttributesCacheGenerator_Convert_ToUInt64_m2343585091P21CustomAttributesCache
wt:__ZN17AnimationCurveTplIfE8TransferI14SafeBinaryReadEEvRT_
rkh:_Array_InternalArray__set_Item_TisInt16_t2552820387_m2544074754_gshared
hle:_ArithmeticException__ctor_m3551809662
t9b:__Z40CleanupRendererAnimationBindingInterfacev
vwi:__Z72RuntimeInvoker_CustomAttributeNamedArgument_t287865710_Int32_t2950945753PFvvEPK10MethodInfoPvPS4_
sXb:__Z29StdTemplateConversionFunctionIybEbPvR14SafeBinaryRead
_Ga:__ZNSt3__26vectorIN15QualitySettings14QualitySettingENS_9allocatorIS2_EEE6assignIPS2_EENS_9enable_ifIXaasr21__is_forward_iteratorIT_EE5valuesr16is_constructibleIS2_NS_15iterator_traitsIS9_E9referenceEEE5valueEvE4typeES9_S9_
l9c:__ZN31OpCodes_t126150456_StaticFields18set_Conv_Ovf_I_178E17OpCode_t123070264
Aga:__ZNK5Unity9Component10GetEnabledEv
QZi:__ZL25UnresolvedVirtualCall_166P12Il2CppObject26DateTimeOffset_t3229287507S1_PK10MethodInfo
_Mj:__ZN15dense_hashtableI10KeyWrapperIP18Il2CppGenericClassES3_N6il2cpp8metadata22Il2CppGenericClassHashEN14dense_hash_setIS3_S6_NS3_14EqualsComparerINS5_25Il2CppGenericClassCompareEEENSt3__29allocatorIS3_EEE8IdentityESA_SD_E9set_valueEPS3_RKS3_
tth:__ZNK16Timer_t71667102611get_state_3Ev
YFg:__Z40InternalEnumerator_1_Dispose_m1837758743P30InternalEnumerator_1_t83702344PK10MethodInfo
OLh:_List_1_CheckCollection_m1671972112_gshared
jnj:_il2cpp_class_get_image
HIe:_CipherSuiteFactory_GetSsl3SupportedCiphers_m3757358569
Eph:_UnicodeEncoding_GetPreamble_m3002287178
WW:__Z16AsyncReadRequestP16AsyncReadCommand
VRi:_AudioSource_get_spatialize_m3609701298
F8a:__ZN20GpuProgramParameters14AddVectorParamEPKcii15ShaderParamTypeiiiP16PropertyNamesSet
Cke:__ZN18VirtActionInvoker1IP24StringU5BU5D_t1281789340E6InvokeEjP12Il2CppObjectS1_
wGe:__ZN36CipherSuite_t3414744575_StaticFields16set_EmptyArray_0EP22ByteU5BU5D_t4116647657
RXc:__ZNK12HeaderHelper3GetERKN4core12basic_stringIcNS0_20StringStorageDefaultIcEEEE
vGd:__ZNK47MethodReturnDictionary_t2551046119_StaticFields27get_InternalExceptionKeys_7Ev
UQa:__ZN9InputAxis8TransferI14SafeBinaryReadEEvRT_
RT:__ZNK21ExecutionOrderManager30GetCustomAwakeFromLoadQueueForEPKN5Unity4TypeE
aXc:__Z27RegisterModule_UnityConnectv
Gic:__Z32Material_CUSTOM_CreateWithShaderP12Il2CppObjectS0_
kze:__ZN16VirtFuncInvoker2IbP22BigInteger_t2902905090P12Il2CppObjectE6InvokeEjS3_S1_S3_
x6b:__ZZL31RegisterRectTransformPropertiesR22GenericPropertyBindingEN32Wrapper_RectTransformSizeDeltax013GetFloatValueEPv
LMf:_MemoryStream_Expand_m3554752073
Iwj:__ZN6il2cpp2vm10Reflection27GetCustomAttributesCacheForEP25Il2CppReflectionParameter
jqk:_ScriptableObject_CreateInstance_m2611081756
c3k:__ZNK27ContactFilter2D_t380520344114get_useDepth_2Ev
Joa:__ZN20TextureStreamingData7UnshareEPS_
FZf:_ObjectRecord_get_IsInstanceReady_m2304516395
BNf:_Path__cctor_m3273994011
bNi:_AnalyticsEventTracker__ctor_m3064238498
MHi:__ZN14Uri_t10023632420set_isAbsoluteUri_11Eb
ymf:_DateTimeUtils_CountRepeat_m3396693018
XHc:__ZNK17Physics2DSettings22GetTypeVirtualInternalEv
ngl:_glBindRenderbuffer__wrapper
Sz:__ZN10ObjectPoolIN4FMOD12ChannelGroupENS0_13ChannelGroupIEE7SetSizeEi
wLi:_SymmetricTransform_FinalDecrypt_m764004682
AVj:__ZN6il2cpp2os10ThreadImpl33UnregisterCurrentThreadForCleanupEv
sGf:__ZN19Guid_t_StaticFields17set__rngAccess_12EP12Il2CppObject
D9a:__ZN9GfxDevice8OnDeleteEv
KDi:_Parser_ParseGroupingConstruct_m263270497
FZi:__ZL25UnresolvedVirtualCall_155P12Il2CppObjectiiPK10MethodInfo
yZk:__ZL112PlayerConnection_t3081694049_CustomAttributesCacheGenerator_PlayerConnection_MessageCallbackInternal_m1914517467P21CustomAttributesCache
EN:__Z22ValidateTlsfAllocationPvjiS_
Rxg:_InternalEnumerator_1_MoveNext_m3525157932_gshared
Lea:__ZN9Scripting5Unity11Collections8LowLevel6Unsafe54NativeContainerSupportsDeferredConvertListToArrayProxy12CleanupProxyEv
RUc:__ZN11UnityEngine9Analytics22EventLimitReachedEventC2EjyyRKN4core12basic_stringIcNS2_20StringStorageDefaultIcEEEEb
kzj:__ZN14dense_hash_mapI10KeyWrapperINSt3__24pairIPK9EventInfoP11Il2CppClassEEEj17ReflectionMapHashIS8_ENS9_14EqualsComparerINS1_8equal_toIS8_EEEENS1_9allocatorINS2_IKS9_jEEEEE15set_deleted_keyERSH_
idb:__Z14resize_trimmedINSt3__26vectorI17AnimationCurveTplIfE13stl_allocatorIS3_L18MemLabelIdentifier1ELi16EEEEEvRT_j
OQc:__ZN22BaseUnityConnectClient12IsNewSessionEv
rfc:__Z12GUIDToStringRK9UnityGUID
SRd:_CodeGenerator_EmitLoadTypeAssembly_m1985536832
lB:__ZN11SoundHandleC2ERKS_
Wbj:__ZNK6il2cpp5utils11collections13ArrayValueMapIPK10Il2CppType17Il2CppInteropData26InteropDataToTypeConverterNS_8metadata14Il2CppTypeLessENS8_26Il2CppTypeEqualityComparerEE10find_firstERKS5_
uCf:__ZNK30DateTimeFormatInfo_t240585370122get_monthDayPattern_19Ev
Auf:__ZN24StreamReader_t40099358999set_pos_4Ei
MXb:__Z29StdTemplateConversionFunctionItxEbPvR14SafeBinaryRead
iOd:_WellKnownServiceTypeEntry_get_ObjectType_m3211195371
JRi:_PCMReaderCallback_EndInvoke_m3916876196
Nq:__ZNSt3__26__sortIR23DependencySortPredicatePN4core4pairIiP9BehaviourLb0EEEEEvT0_S9_T_
sjc:__Z47Register_UnityEngine_MonoBehaviour_CancelInvokev
jcd:_TypeBuilder_get_ContainsGenericParameters_m1769080325
D3f:_DSAParameters_t1885824122_marshal_pinvoke_back
Emd:__ZNK27ResourceCacheItem_t5129279118get_ResourceName_0Ev
n6g:_Kernel_MultiplyByDword_m1266935086
FEh:__ZN41RijndaelTransform_t631222241_StaticFields9set_T1_20EP24UInt32U5BU5D_t2770800703
Mif:_Convert_ToInt64_m3916071102
ebf:__ZN17Queue_t363752339311set__tail_3Ei
Fig:_String_Trim_m3384720403
Akk:__ZNK40PlayerEditorConnectionEvents_t341178751321get_connectionEvent_1Ev
tL:__GLOBAL__sub_I_Runtime_Burst_0_cpp
xta:__ZN14RenderSettings18TransferDeprecatedI14SafeBinaryReadEEvRT_
Ali:__Z93RuntimeInvoker_Single_t1397266774_SingleU26_t1922108698_Single_t1397266774_Single_t1397266774PFvvEPK10MethodInfoPvPS4_
eEj:__ZN6il2cpp2vm9Exception27RaiseNullReferenceExceptionERKNS_5utils10StringViewIDsEEP19Il2CppSequencePoint
hNk:__ZL56RankException_t3812021567_CustomAttributesCacheGeneratorP21CustomAttributesCache
Pti:__Z72RuntimeInvoker_Boolean_t97287965_CustomAttributeNamedArgument_t287865710PFvvEPK10MethodInfoPvPS4_
TUd:__ZNK27NumberFormatter_t118292462119get__decPointPos_18Ev
Noi:__Z88RuntimeInvoker_RuntimeObject_RuntimeObject_RuntimeObject_RuntimeObject_Int32_t2950945753PFvvEPK10MethodInfoPvPS4_
D0h:__ZNK31InternalAsyncResult_t350428282013get__buffer_9Ev
U9g:__ZN24MACAlgorithm_t244121914815set_blockSize_3Ei
Zwh:_Type_ToString_m3975981286
oO:__ZN12TLSAllocatorI14StackAllocatorE8AllocateEji
CUi:_ConsumeSampleFramesNativeFunction_BeginInvoke_m342678987
OU:__ZN16ScriptingManager18GetMonoScriptCacheEi
h8c:__ZN31OpCodes_t126150456_StaticFields13set_Ldfld_120E17OpCode_t123070264
qEi:_ExpressionAssertion__ctor_m2554412824
fXg:__ZNK36Dictionary_2_t132545152_StaticFields27get_U3CU3Ef__amU24cacheB_15Ev
FGi:_CapturingGroup_IsComplex_m4061114763
glh:_Array_Resize_TisCustomAttributeTypedArgument_t2723150157_m3021884250_gshared
UGh:_Enumerator_System_Collections_IEnumerator_get_Current_m2237476582_gshared
Mlf:__ZN33DateTime_t3738529785_StaticFields14set_MinValue_3E20DateTime_t3738529785
Gbb:__Z18Transfer_BlittableI14SafeBinaryReadLb1EyEvRK29SerializationCommandArgumentsR31RuntimeSerializationCommandInfo
pCh:_WeakReference_Finalize_m2841826116
wSe:__ZNK26ListDictionary_t162449231010get_head_2Ev
ekc:__Z41Texture2DArray_CUSTOM_Internal_CreateImplP12Il2CppObjectiii14GraphicsFormat20TextureCreationFlags
Y0d:_NullReferenceException__ctor_m3076065613
cmc:__ZN8JSONRead8TransferIfEEvRT_PKc17TransferMetaFlagsb
Lvk:__ZL73Enum_t4135868527_CustomAttributesCacheGenerator_Enum_ToObject_m3092348831P21CustomAttributesCache
_3d:_AssemblyName_get_CultureInfo_m3135152423
_2b:__ZN9ShaderLab7Program22ComputeSupportsShadowsEv
p$e:_X509SubjectKeyIdentifierExtension_Decode_m1505409124
e3b:__ZL23AddGpuProgramParametersR20GpuProgramParametersRKNSt3__26vectorIN9ShaderLab20SerializedSubProgram15MatrixParameterENS1_9allocatorIS5_EEEERKNS2_INS4_15VectorParameterENS6_ISB_EEEEiiP16PropertyNamesSet
X3:__ZN6prcoreL17RemapGenericFloatI18TexFormatARGBFloat17TexFormatRGBAHalfEEvPKNS_9InnerInfoE
WMi:_AnalyticsEventParamListContainer__ctor_m1995104893
dig:_String_System_IConvertible_ToUInt16_m2888090399
Z2d:_Assembly_InternalGetType_m3065345470
fha:__ZN18StreamedBinaryRead8TransferI8Vector4fEEvRT_PKc17TransferMetaFlags
$F:__ZN13Simd4iFactoryIN6detail9FourTupleEEC2Eiiii
bvg:_InternalEnumerator_1__ctor_m3390957028_gshared
vhk:_GameObject_FindGameObjectsWithTag_m2585173894
qZf:__ZNK24ObjectRecord_t118746727212get_Member_8Ev
and:_ResourceSet__ctor_m3356376607
cze:_PrimeGeneratorBase_get_PrimalityTest_m2487240563
IGh:__ZN22Enumerator_t34586065849set_ver_2Ei
lEk:__ZL56_ParameterInfo_t489405856_CustomAttributesCacheGeneratorP21CustomAttributesCache
EXi:__ZL24UnresolvedVirtualCall_46P12Il2CppObjectS0_iPK10MethodInfo
gKa:__ZN15SerializeTraitsI33EnlightenTerrainChunksInformationE8TransferI14SafeBinaryReadEEvRS0_RT_
kyc:__ZN6b2Body12SetTransformERK6b2Vec2f
M9b:__ZNK32RendererMaterialAnimationBinding9BindValueER6ObjectRKN11UnityEngine9Animation14GenericBindingERNS3_10BoundCurveE
wke:__Z37il2cpp_codegen_marshal_allocate_arrayIPcEPT_j
cUg:_Transform_1_Invoke_m1731820209_gshared
i3i:__ZN6il2cpp2vm5Class11IsInterfaceEPK11Il2CppClass
Xua:__Z13GetIAnimationv
gDa:__ZL18stbir__support_onef
uhg:_Single_CompareTo_m189772128
Rnc:__Z26Transfer_UnityEngineObjectI9JSONWriteLb0EEvRK29SerializationCommandArgumentsR31RuntimeSerializationCommandInfo
ELg:_DefaultComparer_Compare_m4042058291_gshared
Wya:__ZNSt3__26vectorIN4core12basic_stringIcNS1_20StringStorageDefaultIcEEEE13stl_allocatorIS5_L18MemLabelIdentifier1ELi16EEE6assignINS_11__wrap_iterIPS5_EEEENS_9enable_ifIXaasr21__is_forward_iteratorIT_EE5valuesr16is_constructibleIS5_NS_15iterator_traitsISF_E9referenceEEE5valueEvE4typeESF_SF_
NJf:_FileLoadException_ToString_m2989457882
U4h:_AuthorityKeyIdentifierExtension__ctor_m2197389230
$Si:_AudioListener_ClearExtensionProperties_m3849891634
kmh:_Array_InternalArray__get_Item_TisDecimal_t2948259380_m3511003792_gshared
Utj:__ZNSt3__218uninitialized_copyIPNS_4pairIK10KeyWrapperINS1_IPK11Il2CppImageP11Il2CppClassEEEjEESC_EET0_T_SE_SD_
vak:__Z47il2cpp_codegen_marshal_function_ptr_to_delegateI23UnityAction_t3245792599EPT_PFvvEP11Il2CppClass
Vcg:_SecurityElement_IsValidAttributeValue_m948345692
$8b:__ZN14Texture2DArrayC2E10MemLabelId18ObjectCreationMode
opg:_Action_3__ctor_m967275408_gshared
bb:invoke_vdd
Em:FUNCTION_TABLE_fiii
zCk:__ZL102MethodInfo_t_CustomAttributesCacheGenerator_MethodInfo_MakeGenericMethod_m1996785325____typeArguments0P21CustomAttributesCache
FQf:_TextWriter_Write_m2252948084
lpb:__ZN13MonoBehaviour25TransferEngineAndInstanceI19StreamedBinaryWriteEEvRT_
hec:__Z19RegisterModule_Corev
yBd:_AsyncResult_get_CallMessage_m1679778649
Mfh:_Array_InternalArray__IEnumerable_GetEnumerator_TisPlayableBinding_t354260709_m1924544205_gshared
A5b:__ZNK30SpriteRendererAnimationBinding12GetPPtrValueERKN11UnityEngine9Animation10BoundCurveE
Lwf:_CCFixed_FromDateTime_m3894190577
LSb:__Z29PluginsIssueRenderingExtEvent26UnityRenderingExtEventTypePv
Ifi:__Z116RuntimeInvoker_RuntimeObject_RuntimeObject_Int32_t2950945753_RuntimeObject_RuntimeObject_RuntimeObject_RuntimeObjectPFvvEPK10MethodInfoPvPS4_
eal:___udivmoddi4
U_f:_RuntimeMethodHandle__ctor_m2229201676_AdjustorThunk
UVf:_MessageFormatter_ReadMethodCall_m2327590823
vo:__ZL54__ManagedRegistrationHelperFunction_VisionUtilityProxyPv
B8b:__Z14RandomRotationP9Texture2DPhiiii
_sd:__ZN28SinkProviderData_t415137297416set_properties_2EP21Hashtable_t1853889766
dpf:_Decimal_GetBits_m453754410
Oie:__ZN25SmallXmlParser_t97378783918set_resetColumn_11Eb
ztj:__ZNK10KeyWrapperINSt3__24pairIPK11Il2CppImageP11Il2CppClassEEEcvRKS7_Ev
lLg:_InternalEnumerator_1_Dispose_m436383441_AdjustorThunk
JCe:_PKCS1_Encode_v15_m2077073129
Q9a:__ZN10Instancing11DrawAPIArgsC2ERK19ShaderPropertySheetPK8Vector4fS6_S6_i
lzf:_NumberFormatInfo__ctor_m3445216119
Nch:_ContentInfo_get_Content_m1945593776
P_h:__ZN18VirtActionInvoker4IP12Il2CppObjectS1_S1_S1_E6InvokeEjS1_S1_S1_S1_S1_
A$:__ZN16LightmapSettings15RemoveLightmapsEi
bHj:__ZN6il2cpp2vm14PlatformInvoke27MarshalAllocateStringBufferIcEEPT_j
VCj:__ZNSt3__214__split_bufferIN6il2cpp8metadata18GenericArrayMethodERNS_9allocatorIS3_EEED2Ev
Mld:__ZN24ResourceInfo_t287296530218set_ResourceName_1EP8String_t
Sc:_JS_WebRequest_SetResponseHandler
KNg:__ZN22Enumerator_t195756751616set_dictionary_0EP21Dictionary_2_t3384741
$el:_glDeleteProgram__wrapper
Fba:__ZN9Scripting11UnityEngine22ImageEffectOpaqueProxy12CleanupProxyEv
tDa:__ZN6prcoreL18BlitFloatToIntegerERK14ImageReferenceRS0_
Alf:_DBNull_System_IConvertible_ToUInt32_m3784627971
JKe:_ClientSessionCache_Add_m964342678
cth:__Z25Il2CppCodeGenWriteBarrierI25TimerCallback_t1438585625EvPPT_S2_
Tfc:__ZN23TransformChangeDispatch46GetAndClearChangedTransformsForMultipleSystemsEyR13dynamic_arrayI23TransformAccessReadOnlyLj0EERS0_IyLj0EEPN9profiling6MarkerE
Iqd:_RemoteActivationAttribute_IsContextOK_m112778382
ddc:__Z18RegisterUnityClassI30RuntimeInitializeOnLoadManagerEvPKc
mK:__ZN11UnityEngine15CloudWebService14RestDownloader17OnCompleteContentEv
Goj:__ZN15dense_hashtableINSt3__24pairIK10KeyWrapperINS1_IPK14Il2CppAssemblyP11Il2CppClassEEEjEES9_17ReflectionMapHashIS8_EN14dense_hash_mapIS9_jSD_NS9_14EqualsComparerINS0_8equal_toIS8_EEEENS0_9allocatorISB_EEE9SelectKeyESI_SK_E15insert_noresizeERKSB_
N9a:__ZN10Instancing11DrawAPIArgsC2Ev
ww:__ZN4FMOD3DSP12getNumInputsEPi
rpf:_DivideByZeroException__ctor_m3496959969
mL:___cxx_global_var_init_2_762
qAb:__ZN26SinglePassStereoSupportExt19AfterDrawCallStereoEv
q4h:_TlsStream_get_EOF_m953226442
qb:invoke_viffi
JXf:__ZN24ObjectReader_t194095739218set_arrayBuffer_10EP22ByteU5BU5D_t4116647657
nQj:__ZN6il2cpp2gcL10CleanupCCWEPvS1_
mb:invoke_vifff
XZj:__ZN6il2cpp2vm13CachedCCWBaseINS0_13ManagedObjectEE7ReleaseEv
Nhl:_glGetVertexAttribiv__wrapper
Oh:_emscripten_request_fullscreen
PXh:_Predicate_1_Invoke_m851618236_gshared
Wzk:__ZL67IsolatedStorageException_t3468072396_CustomAttributesCacheGeneratorP21CustomAttributesCache
GWb:__ZL18CleanupModule_Jobsv
_pb:__ZN20LocalFileSystemWebGL6DeleteER13FileEntryDatab
yf:_emscripten_glDisableVertexAttribArray
veh:_Array_InternalArray__ICollection_Remove_TisSingle_t1397266774_m3361324455_gshared
Ahh:_Array_InternalArray__ICollection_Add_TisSlot_t3975888750_m1793695076_gshared
GZg:__ZN16VirtFuncInvoker1Ii39CustomAttributeNamedArgument_t287865710E6InvokeEjP12Il2CppObjectS0_
uKg:_InternalEnumerator_1_Dispose_m555942266_gshared
nwg:_InternalEnumerator_1__ctor_m3456047704_gshared
ka:invoke_fifffi
UEe:__ZNK23ContentInfo_t321815989617get_contentType_0Ev
ywf:__ZNK11Exception_t12get__data_10Ev
$yb:__ZN4gles23ClearCurrentFramebufferEP7ApiGLESbbbRK10ColorRGBAffi
bNg:_Enumerator_System_Collections_IDictionaryEnumerator_get_Entry_m3249874482_AdjustorThunk
Z_h:_UnityEvent_1_Invoke_m3604335408_gshared
bMk:__ZL79Convert_t2465617642_CustomAttributesCacheGenerator_Convert_ToUInt64_m2652538228P21CustomAttributesCache
mf:_emscripten_glDeleteObjectARB
ork:_StackTraceUtility__cctor_m1981266436
DQk:__ZL88NativeNameAttribute_t3268151526_CustomAttributesCacheGenerator_U3CNameU3Ek__BackingFieldP21CustomAttributesCache
b4i:___cxx_global_var_init_12_9742
w4:__ZN6prcoreL27StretchGenericFloatBilinearI18TexFormatARGBFloatEEvPKNS_9InnerInfoE
NXi:__ZL24UnresolvedVirtualCall_55P12Il2CppObjecthPK10MethodInfo
Waj:__ZN10KeyWrapperIN6il2cpp5utils13dynamic_arrayIPK10Il2CppTypeLj4EEEE14EqualsComparerINS0_8metadata22Il2CppSignatureCompareEEC2ESA_
rge:_PKCS12_RemoveCertificate_m1421555398
Gye:_Kernel_MinusEq_m2152832554
o4:__ZN6prcoreL17RemapGenericFloatI17TexFormatRGBAHalf18TexFormatARGBFloatEEvPKNS_9InnerInfoE
oBc:__ZNSt3__27__sort4IRN18Overlap2DQueryBase29ColliderHitsByDepthComparitorEPP10Collider2DEEjT0_S7_S7_S7_T_
gId:_MethodDictionary_get_Item_m1201458851
CF:___cxx_global_var_init_13
RF:___cxx_global_var_init_10
SF:___cxx_global_var_init_11
Pci:__Z60RuntimeInvoker_SByte_t1669577662_RuntimeObject_RuntimeObjectPFvvEPK10MethodInfoPvPS4_
Wbh:__ZN30SymmetricTransform_t380259184211set_temp2_4EP22ByteU5BU5D_t4116647657
J7g:_CryptoConvert_ToInt32LE_m3340980429
alc:___cxx_global_var_init_18
DTf:_SerializationObjectManager_RegisterObject_m951822324
$9c:__ZN31OpCodes_t126150456_StaticFields13set_Cpblk_220E17OpCode_t123070264
Js:__ZN9Scripting11UnityEngine19AnimationStateProxy9InitProxyEv
gYa:__ZN2UI13RectTransform23VirtualRedirectTransferER14SafeBinaryRead
oTa:__ZN24GenerateTypeTreeTransfer8TransferINSt3__26vectorIN4core12basic_stringIcNS3_20StringStorageDefaultIcEEEE13stl_allocatorIS7_L18MemLabelIdentifier13ELi16EEEEEEvRT_PKc17TransferMetaFlags
Bkg:__Z25Il2CppCodeGenWriteBarrierI27EncoderFallback_t1188251036EvPPT_S2_
bDi:__ZNK18Parser_t243050938316get_num_groups_4Ev
bak:__Z26List_1_ToArray_m1257172357P18List_1_t3956019502PK10MethodInfo
y7a:__ZN18AsyncUploadManager19AsyncResourceUploadER9GfxDeviceii
P0b:__ZNSt3__26vectorIN9ShaderLab20SerializedSubProgramENS_9allocatorIS2_EEE6assignIPS2_EENS_9enable_ifIXaasr21__is_forward_iteratorIT_EE5valuesr16is_constructibleIS2_NS_15iterator_traitsIS9_E9referenceEEE5valueEvE4typeES9_S9_
dqc:__Z18Transfer_BlittableI8JSONReadLb0E8BitFieldEvRK29SerializationCommandArgumentsR31RuntimeSerializationCommandInfo
nre:_Char_ToString_m3588025615_AdjustorThunk
NYg:__Z25Il2CppCodeGenWriteBarrierI30EqualityComparer_1_t1908302121EvPPT_S2_
SCi:_CapturingGroup_get_Index_m3406974370
vUg:_Dictionary_2__ctor_m236774955_gshared
EDj:__ZN15dense_hashtableINSt3__24pairIK10KeyWrapperINS1_IP11Il2CppClassjEEES4_EES6_N6il2cpp8metadata14ArrayClassHashEN14dense_hash_mapIS6_S4_SB_NS6_14EqualsComparerINSA_17ArrayClassCompareEEENS0_9allocatorIS8_EEE9SelectKeyESF_SH_E13clear_deletedER30dense_hashtable_const_iteratorIS8_S6_SB_SJ_SF_SH_E
bWi:_CustomEventData_Finalize_m1724721833
O_b:__ZN9ShaderLab14SerializedPass8TransferI14SafeBinaryReadEEvRT_
vfc:__Z22FindGameObjectsWithTagI13dynamic_arrayIP10GameObjectLj0EEEvjRT_
wGc:__ZNSt3__26__sortIRN10ClipperLib12LocMinSorterEPNS1_12LocalMinimumEEEvT0_S6_T_
S$k:__ZL77AudioClip_t3680889665_CustomAttributesCacheGenerator_m_PCMSetPositionCallbackP21CustomAttributesCache
WNe:__ZNK26TlsServerHello_t334385959418get_cipherSuite_12Ev
wGk:__ZL64OnSerializedAttribute_t2595932830_CustomAttributesCacheGeneratorP21CustomAttributesCache
PGj:__ZN6il2cpp6icalls8mscorlib6SystemL14AssignUnsignedIhEEvNS2_17WidenedValueUnionEPv14Il2CppTypeEnumjj
Tb:invoke_viiiiiiiiiii
Lxf:__ZN23CultureInfo_t415784306824set_m_useUserOverride_13Eb
G6h:_DeriveBytes_set_Salt_m1400945044
Blk:__ZN19Playable_t45982560714set_m_Handle_0E26PlayableHandle_t1095853803
PFi:_AnchorInfo__ctor_m46784903
vNj:__ZNSt3__218uninitialized_copyIP10KeyWrapperIP18Il2CppGenericClassES5_EET0_T_S7_S6_
cIe:_CipherSuiteCollection_get_Item_m4188309062
O$h:_SslHandshakeHash_HashFinal_m2573455475
Kxd:_SynchronizationAttribute_ReleaseLock_m1030353464
Ccc:__ZN14qsort_internal30FindAndMovePivotToLastPositionIP8Vector2fi26PointDistanceSortPredicateEEvT_S4_T0_T1_
EVc:__Z56Register_UnityEngine_Analytics_CustomEventData_AddDoublev
uke:_AppDomain_ProcessMessageInDomain_m1871749965
XXj:__ZN4utf88internal13validate_nextIPKcEENS0_9utf_errorERT_S5_Rj
uzd:_Lease_get_CurrentLeaseTime_m3433257884
Hpc:__Z18Transfer_BlittableI8JSONReadLb1E10ColorRGBAfEvRK29SerializationCommandArgumentsR31RuntimeSerializationCommandInfo
_af:__ZN27QueueEnumerator_t414071424413set_current_2Ei
fGh:_KeyValuePair_2_get_Value_m755756747_gshared
ukc:__Z34Register_UnityEngine_Gradient_Initv
B$g:__ZN24TailoringInfo_t86643365420set_TailoringIndex_1Ei
lae:_GenericTypeParameterBuilder_IsArrayImpl_m67259334
Hqi:__Z84RuntimeInvoker_RuntimeObject_RayU26_t3515555043_Single_t1397266774_Int32_t2950945753PFvvEPK10MethodInfoPvPS4_
ung:_EncoderReplacementFallback_get_DefaultString_m3956016810
H5c:_OpCode_get_OperandType_m1634816806
W$d:_DefaultMemberAttribute_get_MemberName_m3384235354
Tal:dynCall_fiiffi
Z3i:___cxx_global_var_init_5_9738
eJa:__ZN13ScreenManager23SetIsOrientationEnabledE18EnabledOrientationb
N7k:_readlink
NTd:__Z33il2cpp_codegen_check_sub_overflowxx
HQk:__ZL98NativeMethodAttribute_t4187428193_CustomAttributesCacheGenerator_U3CIsThreadSafeU3Ek__BackingFieldP21CustomAttributesCache
vDc:__ZN14qsort_internal5QSortIPN25b2SynchronizeFixturesTask14b2DeferredMoveEiPFbRKS2_S5_EEEvT_S8_T0_T1_
ALk:__ZL79Convert_t2465617642_CustomAttributesCacheGenerator_Convert_ToUInt16_m3116648921P21CustomAttributesCache
cKg:_InternalEnumerator_1_MoveNext_m1096095130_AdjustorThunk
VWj:__ZN30dense_hashtable_const_iteratorINSt3__24pairIK10KeyWrapperIPK19Il2CppGenericMethodEP10MethodInfoEES6_N6il2cpp8metadata23Il2CppGenericMethodHashEN14dense_hash_mapIS6_S9_SD_NS6_14EqualsComparerINSC_26Il2CppGenericMethodCompareEEENS0_9allocatorISA_EEE9SelectKeyESH_SJ_EC2EPK15dense_hashtableISA_S6_SD_SL_SH_SJ_EPKSA_SS_b
Amd:__ZNK26ResourceReader_t330049263912get_cache_11Ev
BQj:__ZN6il2cpp2vm12GenericClass10GetContextEP18Il2CppGenericClass
lsf:_Double_System_IConvertible_ToInt16_m3591921965_AdjustorThunk
JKi:_SymmetricTransform__ctor_m2693628991
U1d:_ObjectDisposedException__ctor_m1034312941
Fj:_glFrontFace
QXi:__ZL24UnresolvedVirtualCall_58P12Il2CppObjectxiPK10MethodInfo
DBa:__ZN16SpriteRenderData8TransferI19StreamedBinaryWriteEEvRT_
cMf:_FileSystemInfo_InternalRefresh_m1700260373
pCe:__ZNK18MD5SHA1_t72383894413get_hashing_6Ev
Pjd:_TypeDelegator_get_AssemblyQualifiedName_m907578895
Lrk:__ZNK22Enumerator_t344243066518get_currentIndex_1Ev
xmb:__ZN9BoundsInt8TransferI18StreamedBinaryReadEEvRT_
obj:__ZNK15dense_hashtableINSt3__24pairIK10KeyWrapperIPK19Il2CppGenericMethodEPK26Il2CppGenericMethodIndicesEES6_N6il2cpp8metadata23Il2CppGenericMethodHashEN14dense_hash_mapIS6_SA_SE_NS6_14EqualsComparerINSD_26Il2CppGenericMethodCompareEEENS0_9allocatorISB_EEE9SelectKeyESI_SK_E12test_deletedEj
Hmi:__Z51RuntimeInvoker_UInt16_t2177724958_SByte_t1669577662PFvvEPK10MethodInfoPvPS4_
yre:__ZNK26CharEnumerator_t112147042112get_length_2Ev
Qbi:__Z46RuntimeInvoker_Double_t594665363_RuntimeObjectPFvvEPK10MethodInfoPvPS4_
ys:__ZN9Scripting11UnityEngine22AnimatorStateInfoProxy12CleanupProxyEv
D0g:__ZN45MSCompatUnicodeTable_t1453885583_StaticFields29set_U3CU3Ef__switchU24map4_21EP24Dictionary_2_t2736202052
sMj:__ZN6il2cpp2vm5Field8GetFlagsEP9FieldInfo
aMi:_AesManaged_set_Key_m767972181
HRf:_Int16_System_IConvertible_ToBoolean_m1656400658_AdjustorThunk
kpb:__Z23TransferScriptingObjectI18StreamedBinaryReadEvRT_18ScriptingObjectPtr17ScriptingClassPtrPK15MonoScriptCache
Kwb:__ZN13GfxDeviceGLES22SetScissorRectPlatformERK5RectTIiE
E3:__ZN6prcoreL17RemapGenericFloatI17TexFormatRGBFloat18TexFormatRGBAFloatEEvPKNS_9InnerInfoE
jG:__ZL64__ManagedRegistrationHelperFunction_ClothSphereColliderPairProxyPv
gwe:_DictionaryEntry_t3123975638_marshal_pinvoke_cleanup
KGd:_ErrorMessage_get_TypeName_m4051144354
vhh:_Array_InternalArray__ICollection_Add_TisDictionaryEntry_t3123975638_m665385049_gshared
URk:__ZL57BootConfigData_t3818279794_CustomAttributesCacheGeneratorP21CustomAttributesCache
sbk:_CameraCallback_EndInvoke_m3846578433
Yel:_glClearStencil__wrapper
ZCi:__ZN18Parser_t243050938316set_num_groups_4Ei
Gci:__Z79RuntimeInvoker_UInt64_t4134040092_RuntimeObject_Int32_t2950945753_RuntimeObjectPFvvEPK10MethodInfoPvPS4_
sZd:_MissingMemberException__ctor_m2707802176
m9b:__ZN28ReflectionProbeAnchorManager10InitializeEv
r8c:__ZN31OpCodes_t126150456_StaticFields22set_Conv_Ovf_I8_Un_130E17OpCode_t123070264
kqf:_DelegateSerializationHolder_GetDelegateData_m2109044103
mLc:__ZN16PhysicsManager2D12BeginContactEP9b2Contact
ZZf:_SerializationInfo_GetValue_m42271953
SB:__ZN9AudioClip11CreateSoundEv
Fzj:__ZN14dense_hash_mapI10KeyWrapperINSt3__24pairIPK9FieldInfoP11Il2CppClassEEEj17ReflectionMapHashIS8_ENS9_14EqualsComparerINS1_8equal_toIS8_EEEENS1_9allocatorINS2_IKS9_jEEEEEC2EjRKSB_RKSF_
av:__ZN4core8hash_setINS_4pairIKiiLb0EEENS_9hash_pairINS_4hashIiEES2_iEENS_10equal_pairINSt3__28equal_toIiEES2_iEEE4growEi
Jjk:_PlayerConnection_GetConnectionNativeApi_m3116196780
DXh:__ZN16VirtFuncInvoker1Ib39CustomAttributeNamedArgument_t287865710E6InvokeEjP12Il2CppObjectS0_
asj:__ZNK15dense_hashtableINSt3__24pairIK10KeyWrapperINS1_IPK10MethodInfoP11Il2CppClassEEEjEES9_17ReflectionMapHashIS8_EN14dense_hash_mapIS9_jSD_NS9_14EqualsComparerINS0_8equal_toIS8_EEEENS0_9allocatorISB_EEE9SelectKeyESI_SK_E13find_positionERSA_
dOc:__ZL45__ManagedRegistrationHelperFunction_TileProxyPv
Lwk:__ZL65RuntimeArray_CustomAttributesCacheGenerator_Array_Sort_m182264525P21CustomAttributesCache
aHf:_Guid_BaseToString_m3600006650
e1a:__ZN20ArchiveStorageReader31TryToReadDirectoryFromBlockDataEyPKvj
Xpg:__ZNK46CustomAttributeNamedArgumentU5BU5D_t371046479514GetAtUncheckedEj
zq:__GLOBAL__sub_I_AnimationClip_cpp
Hnk:_Quaternion_get_identity_m3722672781
PJj:__ZN6il2cpp2vmL11GetIdentityEP14Il2CppIUnknown
M0j:_GC_push_gc_structures
tNe:_TlsServerCertificate_ProcessAsTls1_m819212276
$9:__ZN9Scripting11UnityEngine9Rendering29ReflectionProbeBlendInfoProxy12CleanupProxyEv
Slh:_Dictionary_2_Do_ICollectionCopyTo_TisRuntimeObject_m3942192587_gshared
Owg:_InternalEnumerator_1_System_Collections_IEnumerator_Reset_m169899350_gshared
ljj:__ZN6il2cpp6icalls8mscorlib6SystemL8IsPublicEPK9EventInfo
nxe:_Hashtable_GetObjectData_m2584507417
mJg:_InternalEnumerator_1_MoveNext_m359138619_AdjustorThunk
B2k:__ZL63EventTrigger_t2527451695_CustomAttributesCacheGenerator_m_RulesP21CustomAttributesCache
zze:_PrimalityTests_RabinMillerTest_m2544317101
a9a:__Z22GetShaderCachePathGLESv
byf:__ZN23CultureInfo_t415784306815set_iso3lang_21EP8String_t
oCc:__ZN27b2UpdateTriggerContactsTask7TaskJobEPS_j
WCe:__ZNK34EncryptedPrivateKeyInfo_t86211683611get__data_3Ev
rye:_Kernel_DwordDivMod_m1540317819
gra:__ZN12SharedObjectIN21GfxDeviceAsyncCommand3ArgELb1E27SharedObjectDeleteReleaseOpIS1_EE5ResetEv
EPc:__ZN9Scripting11UnityEngine9Analytics25AnalyticsSessionInfoProxy9InitProxyEv
bbd:__ZN27MethodBaseU5BU5D_t77983173314SetAtUncheckedEjP12MethodBase_t
Tib:__Z18Transfer_BlittableI19StreamedBinaryWriteLb1E5RectTIiEEvRK29SerializationCommandArgumentsR31RuntimeSerializationCommandInfo
NPh:_Enumerator_System_Collections_IEnumerator_get_Current_m1399273671_gshared
COi:__ZNK24EventTrigger_t252745169516get_m_InitTime_6Ev
kXd:_Int64_Equals_m858582563_AdjustorThunk
dCa:__ZNSt3__213__stable_sortIRNS_4lessI4PPtrI11SpriteAtlasEEENS_11__wrap_iterIPS4_EEEEvT0_SA_T_NS_15iterator_traitsISA_E15difference_typeEPNSD_10value_typeEi
KXd:_Int64_ToString_m2085073918_AdjustorThunk
VSg:_Transform_1_Invoke_m4084479750_gshared
wdd:_FieldInfo_GetFieldOffset_m1356898082
zhj:__ZNKSt3__26vectorINS_4pairIPK10MethodInfoP11Il2CppClassEENS_9allocatorIS7_EEE8max_sizeEv
Rxi:__Z36RuntimeInvoker_Enumerator_t652329154PFvvEPK10MethodInfoPvPS4_
fEc:__ZN43b2SolvePositionConstraintsContactSolverTaskD0Ev
Tgh:_Array_InternalArray__IndexOf_TisTypeTag_t3541821701_m2988972362_gshared
FP:__ZN8keywords6CreateEPKc
Ivg:__ZNK31InternalEnumerator_1_t5879855719get_idx_1Ev
P_i:__ZL7log2_32j
O:Math_imul
bKh:_Enumerator_Dispose_m786980821_AdjustorThunk
BFd:__ZNK21MethodCall_t86107814025get_InternalProperties_10Ev
S0k:__ZL68ContactFilter2D_t3805203441_CustomAttributesCacheGenerator_layerMaskP21CustomAttributesCache
_ti:__Z49RuntimeInvoker_Boolean_t97287965_Byte_t1134296376PFvvEPK10MethodInfoPvPS4_
MNa:__ZN14SpriteRenderer15SetupPropertiesEv
gOe:_TlsServerKeyExchange_Update_m453798279
Mpk:_RenderTextureDescriptor__cctor_m3115061957
mHa:__ZN11PlayerPrefs6GetIntERKN4core12basic_stringIcNS0_20StringStorageDefaultIcEEEEi
jIe:_CipherSuiteCollection_System_Collections_IList_IndexOf_m1361500977
Ilf:_DateTime__ctor_m2135476686_AdjustorThunk
EAa:__ZNSt3__26vectorI13dynamic_arrayI8Vector2fLj0EENS_9allocatorIS3_EEE8__appendEj
Z7g:__Z25Il2CppCodeGenWriteBarrierI36KeyGeneratedEventHandler_t3828027274EvPPT_S2_
X0i:__ZNK15dense_hashtableINSt3__24pairIK10KeyWrapperIPK22Il2CppGenericParameterEP11Il2CppClassEES6_N6il2cpp5utils11PointerHashIS4_EEN14dense_hash_mapIS6_S9_SE_NS6_14EqualsComparerINS0_8equal_toIS5_EEEENS0_9allocatorISA_EEE9SelectKeyESJ_SL_E12bucket_countEv
gJa:__ZN13ScreenManager21SetLockCursorInternalE14CursorLockMode
LLd:_SoapFieldAttribute_IsInteropXmlElement_m2819415462
hUh:_ReadOnlyCollection_1_System_Collections_Generic_IListU3CTU3E_set_Item_m1300028287_gshared
oth:__ZN21Scheduler_t321576494710set_list_1EP22SortedList_t2427694641
sEe:__ZNK22RSAManaged_t175709382011get_qInv_11Ev
fue:_SynchronizedArrayListWrapper_GetEnumerator_m1579424644
VZg:_EqualityComparer_1__ctor_m3717935020_gshared
$xf:__ZN23CultureInfo_t415784306818set_englishname_19EP8String_t
rrh:_RegisteredWaitHandle_DoCallBack_m365365633
sS:__ZN18ScriptingArguments9AddObjectE18ScriptingObjectPtr
LG:__ZN11UnityEngine15CloudWebService16SessionContainerD2Ev
tTb:__ZN13ProbeRenderer8ConvolveEbijjb
Zod:__ZN20GCHandle_t335143818723get_address_of_handle_0Ev
Hpb:__ZN17GenericDynamicVBOC2ER9GfxDevice13GfxBufferModejj
EBc:__Z28GetPhysics2DScriptingClassesv
qZe:_ServicePointManager_get_SecurityProtocol_m966397919
Q9j:__Z27Action_1_Invoke_m1955091167P20Action_1_t1617499438P26AsyncOperation_t1445031843PK10MethodInfo
Wwf:_CCGregorianCalendar_day_from_fixed_m1674702403
oI:__ZN11UnityEngine15CloudWebService17SessionEventQueue10PurgeItemsEj
X_e:__ZNK25AsnEncodedData_t38235401110get__raw_1Ev
U9j:__Z23Stack_1_Pop_m2843357855P19Stack_1_t3327334215PK10MethodInfo
s0e:__ZN21PublicKey_t377958268410set__oid_3EP15Oid_t3552120260
K2e:_X509Chain_PrepareForNextCertificate_m3691934993
nxj:__ZN15dense_hashtableINSt3__24pairIK10KeyWrapperIPK14Il2CppAssemblyEPK22Il2CppMonoAssemblyNameEES6_N6il2cpp5utils11PointerHashIS4_EEN14dense_hash_mapIS6_SA_SF_NS6_14EqualsComparerINS0_8equal_toIS5_EEEENS0_9allocatorISB_EEE9SelectKeyESK_SM_EC2ERKSP_j
ERa:__ZN26PlayerSettingsSplashScreen8TransferI18StreamedBinaryReadEEvRT_
fWh:_Func_2_Invoke_m937783852_gshared
tMf:__ZNK22MemoryStream_t9497314716get_expandable_7Ev
IGk:__ZL57X509Certificate_t713131622_CustomAttributesCacheGeneratorP21CustomAttributesCache
_ba:__ZN9Scripting11UnityEngine12Experimental9Rendering27VisibleReflectionProbeProxy9InitProxyEv
X4a:__ZN9GfxDevice20DeallocRenderSurfaceEP17RenderSurfaceBase
jgf:_DateTime_FromTicks_m4059645178
L8a:__ZN20GpuProgramParameters36UpdatePrepareValuesMaximumBufferSizeEv
$Ti:_AudioSourceExtension_Stop_m387892536
E1g:_SimpleCollator_GetContraction_m2205549079
VZ:__ZN13RuntimeStaticI10WatermarksLb0EE13StaticDestroyEPv
GAe:_ARC4Managed_GenerateKey_m1607343060
yih:_Array_InternalArray__ICollection_CopyTo_TisDecimal_t2948259380_m2749946216_gshared
vQe:_ReceiveRecordAsyncResult_get_ResultingBuffer_m1839161335
OSa:__ZN30RuntimeInitializeOnLoadManager23VirtualRedirectTransferER14SafeBinaryRead
zyd:_EnvoyInfo__ctor_m276600651
jcg:_PermissionSet__ctor_m1880216441
bib:__Z29Transfer_Blittable_ArrayFieldI24GenerateTypeTreeTransferfEvRT_R9ArrayInfoRK23StaticTransferFieldInfo
KY:__ZNSt3__26__treeINS_12__value_typeIN4core12basic_stringIcNS2_20StringStorageDefaultIcEEEES6_EENS_19__map_value_compareIS6_S7_NS_4lessIS6_EELb1EEE13stl_allocatorIS7_L18MemLabelIdentifier13ELi16EEE7destroyEPNS_11__tree_nodeIS7_PvEE
nfk:_UnityEvent_FindMethod_Impl_m2312362624
adb:__ZN8Gradient8TransferI14SafeBinaryReadEEvRT_
Ysk:_Vector3_GetHashCode_m2879461828
Pib:__Z18Transfer_BlittableI19StreamedBinaryWriteLb1E8Vector4fEvRK29SerializationCommandArgumentsR31RuntimeSerializationCommandInfo
mhg:_Single_System_IConvertible_ToUInt64_m3299129161_AdjustorThunk
Vya:__ZNSt3__26vectorIN4core12basic_stringIcNS1_20StringStorageDefaultIcEEEE13stl_allocatorIS5_L18MemLabelIdentifier1ELi16EEE7reserveEj
fGg:__Z38InternalEnumerator_1__ctor_m3261326277P32InternalEnumerator_1_t1788223366P11Il2CppArrayPK10MethodInfo
VKg:__Z41InternalEnumerator_1_MoveNext_m2088624192P32InternalEnumerator_1_t4136673857PK10MethodInfo
_6c:__ZN31OpCodes_t126150456_StaticFields13set_Brtrue_57E17OpCode_t123070264
JMd:__ZN31ObjRef_t2141158884_StaticFields29set_U3CU3Ef__switchU24map26_8EP24Dictionary_2_t2736202052
I7e:__ZN22Interpreter_t58271570117set_group_count_5Ei
XWh:__ZN22Nullable_1_t260372133122get_address_of_value_0Ev
zOc:_unitytls_x509list_get_ref
b3k:__ZNK27ContactFilter2D_t380520344118get_useLayerMask_1Ev
UYe:_IPv6Address_AsIPv4Int_m844941024
hbc:__Z43PlayerConnectionInternal_CUSTOM_IsConnectedv
gWa:__ZN18IDCollectorFunctorD0Ev
rcf:_SortedList_GetEnumerator_m772783392
c8j:__ZN6il2cpp6icalls8mscorlib6System10Reflection4Emit13DynamicMethod22destroy_dynamic_methodEP29Il2CppReflectionDynamicMethodS7_
dpd:_Marshal__cctor_m4007734770
u$j:_GC_new_free_list_inner
bpi:__Z79RuntimeInvoker_Void_t1185182177_RuntimeObject_Byte_t1134296376_Byte_t1134296376PFvvEPK10MethodInfoPvPS4_
ZCe:_EncryptedPrivateKeyInfo_get_IterationCount_m2912222740
H9:__ZN9Scripting11UnityEngine30SerializePrivateVariablesProxy12CleanupProxyEv
Txk:__ZL72RuntimeCompatibilityAttribute_t1169614002_CustomAttributesCacheGeneratorP21CustomAttributesCache
yAk:__ZL63PathTooLongException_t2919094560_CustomAttributesCacheGeneratorP21CustomAttributesCache
$Fd:__ZN26MethodResponse_t214751120116set__exception_5EP11Exception_t
mEe:_RSAManaged_DecryptValue_m1804388365
glg:_String_CharCopyReverse_m692227313
RD:__Z45AudioSource_CUSTOM_ReadExtensionPropertyValueP12Il2CppObjecti
Tqc:__ZN8JSONRead8TransferI10RectOffsetEEvRT_PKc17TransferMetaFlagsb
QKj:__ZNK15dense_hashtableINSt3__24pairIK10KeyWrapperINS1_IPKcS4_EEEiEES6_24NamespaceAndNamePairHashN14dense_hash_mapIS6_iS9_NS6_14EqualsComparerI26NamespaceAndNamePairEqualsEENS0_9allocatorIS8_EEE9SelectKeyESD_SF_E12test_deletedERK24dense_hashtable_iteratorIS8_S6_S9_SH_SD_SF_E
YH:__ZN9JSONWrite8TransferIN11UnityEngine15CloudWebService14DataErrorEvent15FileErrorDetailEEEvRT_PKc17TransferMetaFlags
ylb:__Z35Transfer_Blittable_FixedBufferFieldI18StreamedBinaryReadyEvRK29SerializationCommandArgumentsR31RuntimeSerializationCommandInfo
xTd:_Int32_Parse_m2087562008
nZ:__Z21ClearFenceWithoutSyncR8JobFence
Uhd:_MonoProperty_GetAccessors_m412928203
vy:__ZN12SoundManager20RegisterModifiedClipEP10SampleClip
JCd:_RemotingServices_GetClientChannelSinkChain_m1499550585
$2d:_Assembly_FillName_m1660001542
Jbe:__Z25Il2CppCodeGenWriteBarrierI27LabelFixupU5BU5D_t103660291EvPPT_S2_
ZBg:_InternalEnumerator_1__ctor_m3734157836_gshared
$Dk:__ZL56_EventBuilder_t2558055199_CustomAttributesCacheGeneratorP21CustomAttributesCache
Q8f:_SHA384Managed_processBlock_m1272529332
zqh:_Interlocked_CompareExchange_m3023855514
GKj:__ZN10KeyWrapperINSt3__24pairIPKcS3_EEEC2ERKS5_
W2h:__ZNK26X509Certificate_t48924302512get_issuer_4Ev
qre:_Char_ToString_m278452217_AdjustorThunk
h8i:__ZN15dense_hashtableI10KeyWrapperIPK17Il2CppGenericInstES4_N6il2cpp8metadata21Il2CppGenericInstHashEN14dense_hash_setIS4_S7_NS4_14EqualsComparerINS6_24Il2CppGenericInstCompareEEENSt3__29allocatorIS4_EEE8IdentityESB_SE_E13set_empty_keyERKS4_
Q8h:_X509Certificate_get_RSA_m1755006809
Fhf:_Convert_ToDouble_m2924063577
a$a:__ZNK20LocalFileSystemPosix8IsHiddenERK13FileEntryData
iY:__Z17GetCoreModuleSpecv
brh:__ZN26WaitHandleU5BU5D_t9677203814SetAtUncheckedEjP22WaitHandle_t1743403487
fld:__ZNK40ResourceManager_t4037989559_StaticFields17get_MagicNumber_3Ev
THd:_MethodCall_Init_m86192062
Ibd:__ZN16VirtFuncInvoker0IP22TypeU5BU5D_t3940880105E6InvokeEjP12Il2CppObject
cLj:__ZN10KeyWrapperINSt3__24pairIPKcS3_EEEC2Ev
WQg:_Enumerator_MoveNext_m76191888_AdjustorThunk
ifc:__ZNSt3__27__sort4IRNS_6__lessI11KeyframeTplIfES3_EEPS3_EEjT0_S7_S7_S7_T_
PUf:__ZN28SerializationInfo_t95087717918set_assemblyName_2EP8String_t
ixd:__ZN16VirtFuncInvoker2IP12Il2CppObjectS1_S1_E6InvokeEjS1_S1_S1_
Gsh:__ZN19TimeSpan_t88115924912set__ticks_3Ex
s1a:__ZN12FileAccessor4SeekEx10FileOrigin
eNf:__ZNK21MonoIOStat_t59253398719get_LastWriteTime_5Ev
Sgb:__ZL26Transfer_SimpleNativeClassI24GenerateTypeTreeTransfer17AnimationCurveTplIfELb0EEvRK29SerializationCommandArgumentsR31RuntimeSerializationCommandInfo
Lgf:_Convert_ToDecimal_m1783778724
Wpe:_Byte_ToString_m4063101981_AdjustorThunk
Dyf:_DateTimeFormatInfo__ctor_m3106345035
OEi:__ZNK25CharacterClass_t83912086012get_ignore_2Ev
WEh:__ZNK41RijndaelTransform_t631222241_StaticFields9get_T1_20Ev
Xs:__ZN9Scripting11UnityEngine10Animations31AnimatorControllerPlayableProxy9InitProxyEv
qZi:__ZL25UnresolvedVirtualCall_140P12Il2CppObjectiaaPK10MethodInfo
iOj:__ZNSt3__26__treeINS_12__value_typeIjN6il2cpp2os17SocketHandleEntryEEENS_19__map_value_compareIjS5_NS_4lessIjEELb1EEENS_9allocatorIS5_EEE13__lower_boundIjEENS_15__tree_iteratorIS5_PNS_11__tree_nodeIS5_PvEEiEERKT_SI_PNS_15__tree_end_nodeIPNS_16__tree_node_baseISG_EEEE
eBj:__ZNK14dense_hash_mapI10KeyWrapperINSt3__24pairIP11Il2CppClassjEEES4_N6il2cpp8metadata14ArrayClassHashENS6_14EqualsComparerINS8_17ArrayClassCompareEEENS1_9allocatorINS2_IKS6_S4_EEEEE9SelectKeyclERKSF_
mqe:_Char_System_IConvertible_ToChar_m3578899883
N2k:__ZL59g_AssemblyU2DCSharp_Assembly_CustomAttributesCacheGeneratorP21CustomAttributesCache
Ejj:__ZN6il2cpp5utils9PathUtils8BasenameIcEENSt3__212basic_stringIT_NS3_11char_traitsIS5_EENS3_9allocatorIS5_EEEERKSA_
pNd:_RemotingProxy__cctor_m4096951805
zwj:__ZN6il2cpp2vmL16IsGenericCMethodEP12Il2CppObject
$je:__Z23il2cpp_codegen_multiplyIffEN11pick_biggerIT_T0_E4typeES1_S2_
mEj:__ZN6il2cpp2vm9Exception23GetInvalidCastExceptionERKNS_5utils10StringViewIDsEE
Z8i:__ZN30dense_hashtable_const_iteratorI10KeyWrapperIPK17Il2CppGenericInstES4_N6il2cpp8metadata21Il2CppGenericInstHashEN14dense_hash_setIS4_S7_NS4_14EqualsComparerINS6_24Il2CppGenericInstCompareEEENSt3__29allocatorIS4_EEE8IdentityESB_SE_EC2ERK24dense_hashtable_iteratorIS4_S4_S7_SG_SB_SE_E
Alk:_Playable__ctor_m3175303195
fFk:__ZL48Header_t549724581_CustomAttributesCacheGeneratorP21CustomAttributesCache
rT:__Z63ThreadAndSerializationSafeCheckGetMonoBehaviourBeingTransferredv
Drf:_StackTrace__ctor_m206492268
C7f:__ZNK24SHA1Internal_t325129302128get__ProcessingBufferCount_3Ev
KEh:__ZN41RijndaelTransform_t631222241_StaticFields10set_iT2_25EP24UInt32U5BU5D_t2770800703
EOh:_List_1_set_Item_m4224739467_gshared
fVg:__ZN24Dictionary_2_t144469424910set_hcp_12EP12Il2CppObject
Vjk:__ZNK40PlayerEditorConnectionEvents_t341178751328get_messageTypeSubscribers_0Ev
zhe:__ZN25SmallXmlParser_t97378783916set_nameBuffer_6EP22CharU5BU5D_t3528271667
E7d:_ConstructorBuilder_get_Name_m2426555260
GGi:_CapturingGroup_CompareTo_m4265294460
aOk:__ZL80ModulusRing_t596511505_CustomAttributesCacheGenerator_ModulusRing_Pow_m729002192P21CustomAttributesCache
gWg:__ZNK21Dictionary_2_t338474111get_table_4Ev
d2b:__ZN9ShaderLab16SerializedShader8TransferI19StreamedBinaryWriteEEvRT_
IDi:_Parser_ParseCharacterClass_m4285351396
bjf:_Convert_ToSByte_m2653418303
raf:_SyncHashtable__ctor_m2449935938
Buc:__ZN17CallbackArrayBaseIPFvRKN4core12basic_stringIcNS0_20StringStorageDefaultIcEEEER8JSONReadbEPFvPKvS6_S8_bEE8RegisterESA_SE_SC_
FDj:__ZN24dense_hashtable_iteratorINSt3__24pairIK10KeyWrapperINS1_IP11Il2CppClassjEEES4_EES6_N6il2cpp8metadata14ArrayClassHashEN14dense_hash_mapIS6_S4_SB_NS6_14EqualsComparerINSA_17ArrayClassCompareEEENS0_9allocatorIS8_EEE9SelectKeyESF_SH_E30advance_past_empty_and_deletedEv
ODh:_RSAPKCS1SignatureFormatter_SetKey_m2935054088
qUf:__ZN36SerializableTypeMetadata_t279691366511set_types_2EP22TypeU5BU5D_t3940880105
QIb:__ZN12ImageFilters27SetSurfaceUseResolvedBufferEP13RenderTextureb
zGb:__ZN25CameraStackRenderingState16SetCurrentCameraEP6Camera
FKa:__ZN4PPtrI11LightProbesE8TransferI19StreamedBinaryWriteEEvRT_
poh:_UTF7Encoding_GetByteCount_m209415911
Qmd:__ZNK30ResourceEnumerator_t210651255411get_index_1Ev
ZXa:__ZN2UI13RectTransform13AwakeFromLoadE17AwakeFromLoadMode
b1i:__ZNK10KeyWrapperIPK22Il2CppGenericParameterEcvRKS2_Ev
rHi:_RegularExpression_Compile_m2385682508
Cxf:_CompareInfo__cctor_m1837489679
fOb:__ZN14qsort_internal30FindAndMovePivotToLastPositionIP20ShadowCasterSortDatai26ShadowCasterSortDataSorterEEvT_S4_T0_T1_
H8i:__ZNK15dense_hashtableI10KeyWrapperIPK19Il2CppGenericMethodES4_N6il2cpp8metadata23Il2CppGenericMethodHashEN14dense_hash_setIS4_S7_NS4_14EqualsComparerINS6_26Il2CppGenericMethodCompareEEENSt3__29allocatorIS4_EEE8IdentityESB_SE_E3endEv
xab:__Z18Transfer_BlittableI14SafeBinaryReadLb1EiEvRK29SerializationCommandArgumentsR31RuntimeSerializationCommandInfo
Q2e:_X509ExtensionEnumerator_get_Current_m256207749
BLg:_DefaultComparer_Compare_m1297750557_gshared
Lme:_Array_Sort_m182264525
Y4d:_Default_IsArrayAssignable_m953489228
Rt:__ZNK4PPtrI8RendererEcvPS0_Ev
unj:_il2cpp_field_get_offset
xyh:_UInt16_ToString_m355311020_AdjustorThunk
yhk:__ZNK20Gradient_t306709992411get_m_Ptr_0Ev
Y5f:_RC2__ctor_m1146135664
Rgb:__Z18Transfer_BlittableI24GenerateTypeTreeTransferLb1E12PropertyNameEvRK29SerializationCommandArgumentsR31RuntimeSerializationCommandInfo
Z7:__ZL55__ManagedRegistrationHelperFunction_PlayableOutputProxyPv
Sxd:_SynchronizedClientContextSink__ctor_m4129963630
gk:_glGetStringi
kmg:_DecoderExceptionFallback_CreateFallbackBuffer_m1133375601
sNj:__ZNK15dense_hashtableI10KeyWrapperIP18Il2CppGenericClassES3_N6il2cpp8metadata22Il2CppGenericClassHashEN14dense_hash_setIS3_S6_NS3_14EqualsComparerINS5_25Il2CppGenericClassCompareEEENSt3__29allocatorIS3_EEE8IdentityESA_SD_E10test_emptyERK30dense_hashtable_const_iteratorIS3_S3_S6_SF_SA_SD_E
nOg:_Enumerator_get_CurrentKey_m889650866_gshared
xsg:__Z75InternalEnumerator_1_System_Collections_IEnumerator_get_Current_m1503522504P32InternalEnumerator_1_t1004352082PK10MethodInfo
R6d:__ZNK24MonoResource_t410343000910get_name_1Ev
fce:_EncryptedData_get_EncryptionAlgorithm_m1297902161
rNi:__ZN24EventTrigger_t252745169518set_m_RepeatTime_7Ef
doe:__ZN30Boolean_t97287965_StaticFields16set_TrueString_1EP8String_t
SKd:__ZNK25ReturnMessage_t137698560818get__properties_11Ev
lma:__ZN9Coroutine16SetCurrentMethodE18ScriptingMethodPtr
KI:__ZN11UnityEngine15CloudWebService20WebRequestRestClient18GetResponseHeadersEv
Baa:__ZN9Scripting11UnityEngine17PropertyNameProxy12CleanupProxyEv
cek:__Z25Il2CppCodeGenWriteBarrierI18List_1_t4176035766EvPPT_S2_
SIa:__ZN13ScreenManager16SetScreenTimeoutEi
ufb:__Z18Transfer_BlittableI17RemapPPtrTransferLb0EdEvRK29SerializationCommandArgumentsR31RuntimeSerializationCommandInfo
WTk:__ZL104MonoBehaviour_t3962482529_CustomAttributesCacheGenerator_MonoBehaviour_IsObjectMonoBehaviour_m2134950949P21CustomAttributesCache
BSh:_Collection_1_ConvertItem_m1743542180_gshared
qTh:__ZN24Collection_1_t166750607510set_list_0EP12Il2CppObject
F2h:__ZNK29TlsClientSettings_t248603950323get_clientCertificate_2Ev
Iec:__ZN22RenderTextureScripting6CreateE21ScriptingObjectOfTypeI13RenderTextureE
sSb:__Z35IntersectSpherePlaneBoundsOptimizedRKN4math7_float4EPS1_i
ACh:_RNGCryptoServiceProvider__cctor_m3587754670
KAg:_InternalEnumerator_1_MoveNext_m1728532725_AdjustorThunk
MX:__ZN17TransformInternal21DetachTransformThreadER18TransformHierarchyjj
Xai:_X509Crl_get_IssuerName_m1792797338
INh:_List_1_get_Count_m241572196_gshared
c8i:__ZNSt3__218uninitialized_copyIP10KeyWrapperIPK17Il2CppGenericInstES6_EET0_T_S8_S7_
XAa:__ZN13dynamic_arrayI11ChannelInfoLj0EE18resize_initializedEj12ResizePolicy
DZ:__Z22CleanupLODGroupManagerPv
bOj:__ZN6il2cpp8metadata15GenericMetadata20RegisterGenericClassEP18Il2CppGenericClass
Xk:_glUniform3fv
S6j:__ZNK6il2cpp8metadata24Il2CppGenericInstCompareclERK10KeyWrapperIPK17Il2CppGenericInstES8_
TTa:__ZNSt3__218__insertion_sort_3IRN15ResourceManager10Dependency6SorterEPS2_EEvT0_S6_T_
d4e:_X509ChainElement_Set_m655180762
GVi:_CustomEventData_AddInt32_m548429697
$ik:_MonoBehaviour_StopCoroutine_m615723318
Jnk:_Quaternion_GetHashCode_m2636680144
iYf:__ZNK24ObjectReader_t194095739224get__surrogateSelector_0Ev
Xqh:__ZN32RegisteredWaitHandle_t152953845418set__cancelEvent_7EP27ManualResetEvent_t451242010
KMb:__ZNK16LightmapSettings31GetRealtimeLightmapDecodeValuesEv
gA:__ZN5audio5mixer12SetSuspendedERNS0_16AudioMixerMemoryEb
iXa:__ZN17PersistentManager21UnloadNonDirtyStreamsEv
TJh:__ZNK21Enumerator_t6523291547get_l_0Ev
Bph:_UnicodeDecoder__ctor_m3606046165
eVi:_Object_Instantiate_TisRuntimeObject_m1135049463_gshared
Nff:__ZN16VirtFuncInvoker1I20DateTime_t3738529785S0_E6InvokeEjP12Il2CppObjectS0_
eli:__Z96RuntimeInvoker_Int32_t2950945753_RuntimeObject_Int32_t2950945753_RuntimeObject_Int32_t2950945753PFvvEPK10MethodInfoPvPS4_
pOi:_AnalyticsEventTracker_OnEnable_m1121905268
qXk:__ZL102RenderTexture_t2108887433_CustomAttributesCacheGenerator_RenderTexture__ctor_m1464033784____readWrite4P21CustomAttributesCache
sck:_Debug_LogFormat_m309087137
mth:_Scheduler__ctor_m3313141270
qce:__ZN22StrongName_t409384937714set_keyToken_2EP22ByteU5BU5D_t4116647657
ejg:_String_LastIndexOf_m3451222878
WPk:__ZL80Enumerable_t538148348_CustomAttributesCacheGenerator_Enumerable_Where_m264777709P21CustomAttributesCache
QWk:__ZL134ISerializationCallbackReceiver_t2363941153_CustomAttributesCacheGenerator_ISerializationCallbackReceiver_OnAfterDeserialize_m735003409P21CustomAttributesCache
yI:__ZN11UnityEngine15CloudWebService10RestClientINS0_23WebRequestRestHeaderMapEED2Ev
oWh:_U3CCreateWhereIteratorU3Ec__Iterator1D_1__ctor_m1723214851_gshared
tf:_emscripten_glDepthMask
aPd:_RemotingServices_CreateClientProxy_m3886727610
BEa:__ZN4crnd25static_huffman_data_model22prepare_decoder_tablesEv
yGa:__ZN9Texture2D23VirtualRedirectTransferER17RemapPPtrTransfer
GTk:__ZL50Vector3_t3722313464_CustomAttributesCacheGeneratorP21CustomAttributesCache
KPe:_RecordProtocol_GetMessage_m2086135164
Mjc:__Z35CullingGroup_CUSTOM_DisposeInternalP12Il2CppObject
$Dc:__ZN35b2SolvePositionJointConstraintsTaskD2Ev
nDi:_BalancingGroup_set_Balance_m3289053627
EKd:__ZN25ReturnMessage_t137698560822set__targetIdentity_12EP20Identity_t1873279371
puc:__ZN11UnityEngine9Analytics18SceneLoadTimeEventC2Ev
G1e:__ZN27X509Certificate2_t71404912626set_signature_algorithm_12EP15Oid_t3552120260
C_:__Znaj
zfl:_emscripten_glEnableClientState__wrapper
PXc:__ZN20UnityWebRequestProtoI24UnityWebRequestTransport16AtomicRefCounter14RedirectHelper14ResponseHelper15DownloadHandler13UploadHandler18CertificateHandler12HeaderHelper14AsyncOperationE26Job_ExecuteUnityWebRequestEPS9_
ZSj:__ZNK10KeyWrapperIPcE8isNormalEv
xO:__ZN17MessageIdentifierC2EPKcNS_7OptionsEPKN5Unity4TypeES1_
_Oc:__GLOBAL__sub_I_UIElementsScriptingClasses_cpp
dhd:__ZNK12MonoMethod_t13get_reftype_2Ev
E$e:__ZNK41X509EnhancedKeyUsageExtension_t418914945313get__status_5Ev
bhg:_Single_System_IConvertible_ToSByte_m1208276900
icl:dynCall_viiifiii
Jia:__ZN11GameManager15ThreadedCleanupEv
M6b:__ZNSt3__26__treeIPc15compare_tstringIPKcENS_9allocatorIS1_EEE25__emplace_unique_key_argsIS1_JS1_EEENS_4pairINS_15__tree_iteratorIS1_PNS_11__tree_nodeIS1_PvEEiEEbEERKT_DpOT0_
bji:__Z105RuntimeInvoker_Void_t1185182177_RuntimeObject_RuntimeObject_RuntimeObject_RuntimeObject_Int32_t2950945753PFvvEPK10MethodInfoPvPS4_
Ddi:__Z64RuntimeInvoker_RuntimeObject_Int16_t2552820387_Int16_t2552820387PFvvEPK10MethodInfoPvPS4_
eE:__Z55Register_UnityEngine_AudioSource_get_spatializeInternalv
I2k:__ZL71TrackableTrigger_t621205209_CustomAttributesCacheGenerator_m_MethodPathP21CustomAttributesCache
Owe:__ZN21Hashtable_t185388976614set_hashKeys_7EP20HashKeys_t1568156503
PVe:__ZN28GenericInterfaceFuncInvoker3IbP26X509Certificate_t713131622P20X509Chain_t194917408iE6InvokeEPK10MethodInfoP12Il2CppObjectS1_S3_i
wJd:__ZNK29MonoMethodMessage_t280763694410get_args_1Ev
TOk:__ZL90HttpWebRequest_t1669436515_CustomAttributesCacheGenerator_HttpWebRequest__ctor_m1789065007P21CustomAttributesCache
EQe:_SendRecordAsyncResult_SetComplete_m153213906
nje:__ZN28ActivationContext_t97691601815set__disposed_0Eb
c9b:__ZN12LightManager15InitializeClassEv
Eth:_WaitHandle__cctor_m4242752477
Hxa:__ZN9ShaderLab11shaderprops16GetComputeBufferEPK19ShaderPropertySheetS3_NS_16FastPropertyNameE
kV:__ZN23ManagedAttributeManager35CallManagedGetDefaultExecutionOrderE17ScriptingClassPtr
GS:__ZN18ScriptingArgumentsC2Ev
Nqk:_Vector3_op_Equality_m4231250055
qji:__Z46RuntimeInvoker_ParameterAttributes_t1826424051PFvvEPK10MethodInfoPvPS4_
kFb:__ZZ23InitPlayerLoopCallbacksvEN47PostLateUpdateMemoryFrameMaintenanceRegistrator7ForwardEv
u5f:__ZNK24MACTripleDES_t163126239716get_m_disposed_7Ev
wce:__ZN35StrongName_t4093849377_StaticFields17set_initialized_5Eb
Jjl:_emscripten_glBlendFuncSeparate__wrapper
Dfk:_PlayerLoopSystem_t105772105_marshal_pinvoke_back
rJf:_FileSystemInfo__ctor_m3769019897
std:__ZN20Identity_t187327937113set__objRef_5EP18ObjRef_t2141158884
Ov:__ZN9Scripting11UnityEngine17WebCamDeviceProxy12CleanupProxyEv
xok:_Rect_get_xMin_m581135837_AdjustorThunk
qIb:__ZNK25CameraStackRenderingState27GetStereoImageEffectTextureEb
qbe:__ZN23ILGenerator_t138862234412set_labels_8EP26LabelDataU5BU5D_t327903686
R4f:_HMACSHA384__ctor_m1677515580
Oaf:_Queue__ctor_m3552486878
pp:__ZN8Vector3f8TransferI14SafeBinaryReadEEvRT_
ufj:__ZN6il2cpp6icalls6System6System3Net7Sockets6Socket7ReceiveEiP11Il2CppArrayiiNS4_11SocketFlagsEPi
Wdd:__ZN41MemberInfoSerializationHolder_t194373083117set__memberType_2Ei
Im:FUNCTION_TABLE_ii
aik:_Logger_IsLogTypeAllowed_m3527674834
Fhe:__ZN23AttrListImpl_t56796244716set_attrValues_1EP21ArrayList_t2718874744
sMf:_MemoryStream_set_Capacity_m1773624579
zBj:__ZNK15dense_hashtableINSt3__24pairIK10KeyWrapperINS1_IP11Il2CppClassjEEES4_EES6_N6il2cpp8metadata14ArrayClassHashEN14dense_hash_mapIS6_S4_SB_NS6_14EqualsComparerINSA_17ArrayClassCompareEEENS0_9allocatorIS8_EEE9SelectKeyESF_SH_E10test_emptyEj
Kwf:_GC_SuppressFinalize_m1177400158
F$b:__ZNSt3__26vectorIN9ShaderLab20SerializedSubProgram15StructParameterENS_9allocatorIS3_EEE8__appendEj
$dl:b44
ca:invoke_diiii
eel:b47
BPi:_EventTrigger_set_initTime_m3128947762
mqi:__Z95RuntimeInvoker_Void_t1185182177_RuntimeObject_RuntimeObject_SByte_t1669577662_SByte_t1669577662PFvvEPK10MethodInfoPvPS4_
LYb:__Z24CreateDirectoryRecursiveRKN4core12basic_stringIcNS_20StringStorageDefaultIcEEEE
CRe:_SslClientStream_get_HaveRemoteValidation2Callback_m2858953511
Wdl:b40
K2:__ZN19ThreadSpecificValueIP14StackAllocatorE15ReinitializeTLSEPv
Mba:__ZN9Scripting11UnityEngine12Hash128Proxy9InitProxyEv
_dl:b43
jke:__ZN21Hashtable_t185388976612set_hcpRef_9EP12Il2CppObject
wJb:__ZNK6Camera22CalculateRenderingPathEv
Zdl:b42
Iif:_Convert_ToInt64_m3758262873
tke:_Hashtable_TestPrime_m3839319309
bBb:__Z13ConvertMipmap14GraphicsFormatPKvS_Pviiii
p1g:__ZN39SimpleCollator_t2877834729_StaticFields24set_QuickCheckDisabled_0Eb
cge:_PKCS12_get_IterationCount_m626423090
Oej:__ZL14MetadataOffsetIPK14Il2CppFieldRefET_Pvjj
oce:__ZN22StrongName_t40938493779set_rsa_0EP15RSA_t2385438082
zfb:__ZL12InvokeMethodI17RemapPPtrTransferEvRK29SerializationCommandArgumentsR31RuntimeSerializationCommandInfo
KVe:_RemoteCertificateValidationCallback_Invoke_m3086073466
qlg:_StringComparer_Compare_m991165676
iug:_InternalEnumerator_1_MoveNext_m3299696349_AdjustorThunk
Gxc:__ZN15b2DistanceJointD0Ev
Xrd:_ChannelServices_RegisterChannelConfig_m3525848799
CCj:__ZN15dense_hashtableINSt3__24pairIK10KeyWrapperIP11Il2CppClassES4_EES5_N6il2cpp8metadata16SZArrayClassHashEN14dense_hash_mapIS5_S4_SA_NS5_14EqualsComparerINS9_19SZArrayClassCompareEEENS0_9allocatorIS7_EEE9SelectKeyESE_SG_EC2EjRKSA_RKSE_RKSI_
A3c:__ZN23TypeBuilder_t107394815413set_parent_10EP6Type_t
MNc:__ZL51__ManagedRegistrationHelperFunction_UILineInfoProxyPv
dPf:__ZN24StreamWriter_t126637890412set_iflush_4Eb
Q1b:__ZN18StreamedBinaryRead19TransferSTLStyleMapINSt3__23mapIN4core12basic_stringIcNS3_20StringStorageDefaultIcEEEEiNS1_4lessIS7_EENS1_9allocatorINS1_4pairIKS7_iEEEEEEEEvRT_17TransferMetaFlags
dPh:_List_1_AddEnumerable_m3500350831_gshared
ocj:__ZN24dense_hashtable_iteratorINSt3__24pairIK10KeyWrapperIPK11Il2CppClassEPKcEES6_N6il2cpp5utils11PointerHashIS3_EEN14dense_hash_mapIS6_S9_SE_NS6_14EqualsComparerINS0_8equal_toIS5_EEEENS0_9allocatorISA_EEE9SelectKeyESJ_SL_E30advance_past_empty_and_deletedEv
cCj:__ZN10KeyWrapperIP11Il2CppClassEC2Ev
hDe:_PrivateKeyInfo_get_PrivateKey_m3647771102
whe:__ZN25SmallXmlParser_t97378783918set_elementNames_2EP17Stack_t2329662280
p$k:__ZL124RemoteConfigSettings_t1247263429_CustomAttributesCacheGenerator_RemoteConfigSettings_RemoteConfigSettingsUpdated_m2409101234P21CustomAttributesCache
cfb:__Z18Transfer_BlittableI17RemapPPtrTransferLb1E8BitFieldEvRK29SerializationCommandArgumentsR31RuntimeSerializationCommandInfo
qyd:__ZNK41SynchronizedServerContextSink_t277601568211get__next_0Ev
NFj:__ZN6il2cpp6icalls8mscorlib6System9ThreadingL11ThreadStartEPv
t1:__ZN15DirectorManager12OnSampleTimeEv
v1f:__ZN24CspParameters_t23985263915set_KeyNumber_2Ei
nid:__ZN28GenericInterfaceFuncInvoker1IP12Il2CppObjectS1_E6InvokeEPK10MethodInfoS1_S1_
Gvj:__ZNK10KeyWrapperINSt3__24pairIPK9EventInfoP11Il2CppClassEEE8isNormalEv
GBa:__ZN7SubMesh8TransferI19StreamedBinaryWriteEEvRT_
r3c:_TypeBuilder_check_not_created_m3652863637
QZk:__ZL117SupportedRenderingFeatures_t353898663_CustomAttributesCacheGenerator_U3CreflectionProbeSupportFlagsU3Ek__BackingFieldP21CustomAttributesCache
Tkg:__ZN20Encoding_t152332205618set_header_name_10EP8String_t
Ymf:_DateTime_get_UtcNow_m1393945741
Vfa:__ZN12CachedReader10Align4ReadEv
Lyc:__ZN15b2WorldManifold10InitializeEPK10b2ManifoldRK11b2TransformfS5_f
wSc:__ZN11UnityEngine9Analytics15AppInstallEventC2Ev
x8g:__ZNK22DSAManaged_t280026018222get_keypairGenerated_2Ev
rFk:__ZL82MethodDictionary_t207894204_CustomAttributesCacheGenerator_U3CU3Ef__switchU24map21P21CustomAttributesCache
g8h:_X501__cctor_m2428304915
GUk:__ZL66DispatchEventQueueEvents_t929081739_CustomAttributesCacheGeneratorP21CustomAttributesCache
c7d:__ZN30ConstructorBuilder_t281352410815set_call_conv_7Ei
zee:_X501_ToString_m4186311521
ipi:__Z70RuntimeInvoker_Boolean_t97287965_RuntimeObject_IPAddressU26_t589322682PFvvEPK10MethodInfoPvPS4_
izf:__ZN20Calendar_t166112156920set_M_AbbrEraNames_2EP24StringU5BU5D_t1281789340
Ega:__ZNK9Behaviour22GetTypeVirtualInternalEv
vck:_Debug_LogErrorFormat_m575266265
Vwf:_CCGregorianCalendar_month_from_fixed_m4268992710
s7b:__ZNK28MonoBehaviourPropertyBinding12SetPPtrValueERKN11UnityEngine9Animation10BoundCurveEi
mTb:__Z21GetScriptingArraySize17ScriptingArrayPtr
Pmi:__Z51RuntimeInvoker_UInt32_t2560061978_Double_t594665363PFvvEPK10MethodInfoPvPS4_
MVj:__ZNSt3__26__treeINS_12basic_stringIcNS_11char_traitsIcEENS_9allocatorIcEEEENS_4lessIS6_EENS4_IS6_EEE12__find_equalIS6_EERPNS_16__tree_node_baseIPvEERPNS_15__tree_end_nodeISF_EERKT_
lzk:__ZL55ISymbolWriter_t780458634_CustomAttributesCacheGeneratorP21CustomAttributesCache
HZk:__ZL81MessageTypeSubscribers_t1684935770_CustomAttributesCacheGenerator_m_messageTypeIdP21CustomAttributesCache
Zek:__Z34Enumerator_get_Current_m1824438863P22Enumerator_t2474065447PK10MethodInfo
pjj:__ZN6il2cpp6icalls8mscorlib6SystemL16CheckMemberMatchI9EventInfoNS_5utils10functional6FilterINSt3__212basic_stringIcNS8_11char_traitsIcEENS8_9allocatorIcEEEENS5_13VmStringUtils23CaseInsensitiveComparerEEEEEbPKT_PK11Il2CppClassSN_iRKT0_
jCg:__ZNK32InternalEnumerator_1_t281129360011get_array_0Ev
bkg:_Encoding_get_ASCII_m3595602635
hok:_Ray_get_direction_m761601601_AdjustorThunk
G5a:__ZN9GfxDevice17ImmediateTexCoordEifff
jRj:__ZN6il2cpp2os16MemoryMappedFile5CloseEPNS0_10FileHandleE
$Gc:__ZN10ClipperLib7Clipper13AppendPolygonEPNS_5TEdgeES2_
BJk:__ZL93Interlocked_t2273387594_CustomAttributesCacheGenerator_Interlocked_CompareExchange_m388540288P21CustomAttributesCache
a3c:_MethodBase_get_IsAbstract_m428833029
dne:_AssemblyLoadEventHandler__ctor_m896828968
CAd:__ZN41LifetimeServices_t3061370510_StaticFields16set__leaseTime_1E19TimeSpan_t881159249
n4c:_TypeBuilder_check_name_m3505884515
$fb:__Z35Transfer_Blittable_FixedBufferFieldI24GenerateTypeTreeTransferhEvRK29SerializationCommandArgumentsR31RuntimeSerializationCommandInfo
Qmb:__ZNSt3__26vectorINS_4pairI17ScriptingClassPtrPKN5Unity4TypeEEENS_9allocatorIS7_EEE21__push_back_slow_pathIS7_EEvOT_
dgl:_emscripten_glUniform4f__wrapper
Fca:__ZN9Scripting11UnityEngine12Experimental10PlayerLoop16EarlyUpdateProxy12CleanupProxyEv
yLb:__ZNK6Camera16GetProjectionFarEv
jq:__Z24InverseTransformRotationRK23TransformAccessReadOnlyRKN4math7_float4E
Guc:__ZN11UnityEngine9Analytics16StartupTimeEvent23SetSplashScreenTimeInfoEyyy
jai:_X509Chain_Build_m2469702749
eXc:__Z31GetPerformanceReportingSettingsv
URe:__ZN26ListDictionary_t162449231013set_version_1Ei
n6:__ZL55__ManagedRegistrationHelperFunction_AnimationCurveProxyPv
vxd:__ZN25GenericVirtActionInvoker06InvokeEPK10MethodInfoP12Il2CppObject
A8e:__ZN22Interpreter_t58271570111set_deep_12EP25RepeatContext_t1214863076
k3c:_TypeBuilder_DefineConstructor_m2989882735
pKe:__ZN33SendRecordAsyncResult_t371835246712set_handle_4EP27ManualResetEvent_t451242010
X1a:__ZN25SingleBlockMemoryFileDataC2E10MemLabelIdPvjb
mac:__ZN19LowerResBlitTexture13ApplySettingsEv
p2b:__ZN9ShaderLab20SerializedSubProgram14ConstantBuffer8TransferI19StreamedBinaryWriteEEvRT_
U5c:__ZN36OpCodeNames_t3363784580_StaticFields11set_names_0EP24StringU5BU5D_t1281789340
nsa:__ZN21PlatformShaderDefines8TransferI19StreamedBinaryWriteEEvRT_
yNf:_NullStream_SetLength_m1485742029
Dzc:__ZNK14b2CapsuleShape5CloneEP16b2BlockAllocator
PZk:__ZL120RenderPipelineManager_t4036911426_CustomAttributesCacheGenerator_RenderPipelineManager_DoRenderLoop_Internal_m3799666479P21CustomAttributesCache
cF:__ZN16BaseVideoTexture19UpdateVideoTexturesEv
wgd:_MonoField_GetValue_m3124733531
Ifh:_Array_InternalArray__IEnumerable_GetEnumerator_TisOrderBlock_t1585977831_m2414028303_gshared
$ok:__Z26Action_2_Invoke_m159025528P20Action_2_t3498178784P26ReflectionProbe_t175708936iPK10MethodInfo
LVa:__ZNK16LightmapSettings23HasLightProbeTetrahedraEv
zBi:__ZN16Link_t339594915917set_offset_addr_1Ei
Rtf:_Enum_GetHashCode_m2848082716
F6b:__ZN2UI13RectTransform12SetAnchorMaxERK8Vector2f
_Ng:__Z65Enumerator_System_Collections_IEnumerator_get_Current_m1890150222P22Enumerator_t1957567516PK10MethodInfo
yWi:_RemoteConfigSettings_Internal_Destroy_m1072151938
p0e:__ZN16VirtFuncInvoker0IP15RSA_t2385438082E6InvokeEjP12Il2CppObject
xqj:__ZNK15dense_hashtableINSt3__24pairIK10KeyWrapperINS1_IPK9FieldInfoP11Il2CppClassEEEjEES9_17ReflectionMapHashIS8_EN14dense_hash_mapIS9_jSD_NS9_14EqualsComparerINS0_8equal_toIS8_EEEENS0_9allocatorISB_EEE9SelectKeyESI_SK_E5beginEv
LUj:__ZN6il2cpp2os6Thread15CurrentThreadIdEv
rdf:__ZNK22Enumerator_t292970919414get_modCount_1Ev
Kyb:__ZN14DataBufferGLES11CopySubDataEPKS_jjj
Kh:_emscripten_glVertexPointer
bBi:_PatternCompiler_GetMachineFactory_m3758869886
MOb:__Z17GetFrustumPortionPK8Vector3fffPS_
RIj:__ZN15dense_hashtableINSt3__24pairIK10KeyWrapperIP14Il2CppIUnknownEjEES5_N6il2cpp5utils11PointerHashIS3_EEN14dense_hash_mapIS5_jSB_NS5_14EqualsComparerINS0_8equal_toIS4_EEEENS0_9allocatorIS7_EEE9SelectKeyESG_SI_E14squash_deletedEv
sIk:__ZL107CodeAccessPermission_t2681295399_CustomAttributesCacheGenerator_CodeAccessPermission_GetHashCode_m880096813P21CustomAttributesCache
kUf:__ZN34SerializationCallbacks_t257060462723set_onSerializingList_0EP21ArrayList_t2718874744
MEd:_MethodDictionary_set_MethodKeys_m1451825752
v3e:__ZNK20X509Chain_t19491740814get_location_0Ev
o$f:_RuntimeTypeHandle_Equals_m2857439487_AdjustorThunk
H$i:__ZN31NativeNameAttribute_t326815152631set_U3CNameU3Ek__BackingField_0EP8String_t
a4a:__ZNK9GfxDevice27GetPlatformAdjustedViewportEv
lVh:_ReadOnlyCollection_1_System_Collections_Generic_IListU3CTU3E_set_Item_m88350439_gshared
Y2e:__ZNK28X509ChainElement_t146405633829get_compressed_status_flags_3Ev
UV:__ZNSt3__26vectorINS_4pairIiiEE13stl_allocatorIS2_L18MemLabelIdentifier38ELi16EEE6insertENS_11__wrap_iterIPKS2_EEOS2_
Nai:__ZN23X509CrlEntry_t64556878920set_revocationDate_1E20DateTime_t3738529785
Sxf:__ZN23CultureInfo_t415784306819set_dateTimeInfo_15EP30DateTimeFormatInfo_t2405853701
Gr:__ZL64__ManagedRegistrationHelperFunction_AnimationPlayableOutputProxyPv
hGi:_Reference_Compile_m4195878675
tec:__ZN16StreamedResource8TransferI24GenerateTypeTreeTransferEEvRT_
t$e:__ZN25X509Extension_t327225515315set__critical_3Eb
yXc:__ZN9Scripting11UnityEngine10Networking20DownloadHandlerProxy12CleanupProxyEv
Fre:_ArrayList__ctor_m3828927650
Npa:__ZN10Matrix3x3f15InvertTransposeEv
vtk:__ZN26WaitForSeconds_t169909125115set_m_Seconds_0Ef
vfg:_SecurityException_get_Demanded_m2500043391
Jlj:__ZNSt3__213__vector_baseIN6il2cpp2vm17TypeNameParseInfoENS_9allocatorIS3_EEED2Ev
G6e:_CaptureCollection_GetEnumerator_m732412500
Uwg:__ZNK32InternalEnumerator_1_t38553234979get_idx_1Ev
sRi:__Z25Il2CppCodeGenWriteBarrierI29PCMReaderCallback_t1677636661EvPPT_S2_
RFb:__Z11IsBatchmodev
DTa:__ZN15ResourceManagerD2Ev
XJh:_Enumerator_System_Collections_IEnumerator_get_Current_m713684915_gshared
$db:__Z29Transfer_Blittable_ArrayFieldI14SafeBinaryRead8Vector3fEvRT_R9ArrayInfoRK23StaticTransferFieldInfo
x4d:__ZNK23AssemblyName_t27093193814get_codebase_1Ev
Ikf:__ZNK30CultureAwareComparer_t3064613918get__compareInfo_5Ev
oGk:__ZL62IFormatterConverter_t2171992254_CustomAttributesCacheGeneratorP21CustomAttributesCache
rLk:__ZL78Convert_t2465617642_CustomAttributesCacheGenerator_Convert_ToSByte_m4075629912P21CustomAttributesCache
sMd:_SoapTypeAttribute_get_XmlTypeNamespace_m4211398148
bqk:__ZNK37SceneManager_t2787271929_StaticFields19get_sceneUnloaded_1Ev
J2j:_GC_stop_world_external
W4d:__Z35Array_IndexOf_TisType_t_m2550246197P12Il2CppObjectP22TypeU5BU5D_t3940880105P6Type_tPK10MethodInfo
_1b:__ZN18StreamedBinaryRead21TransferSTLStyleArrayINSt3__26vectorIN9ShaderLab20SerializedSubProgram16SamplerParameterENS1_9allocatorIS5_EEEEEEvRT_17TransferMetaFlags
Aic:__Z27Screen_Get_Custom_PropWidthv
q0c:__ZNK23MethodToken_t405572838614get_tokValue_0Ev
Bie:__ZN38SmallXmlParser_t973787839_StaticFields30set_U3CU3Ef__switchU24map18_12EP24Dictionary_2_t2736202052
kha:__ZN11NamedObject15ThreadedCleanupEv
t0c:__ZN23MethodToken_t405572838614set_tokValue_0Ei
wkk:__Z25List_1_Remove_m1885843926P18List_1_t3157010512P34MessageTypeSubscribers_t1684935770PK10MethodInfo
qFd:__ZN21MethodCall_t86107814010set__uri_0EP8String_t
nOc:__ZN9Scripting11UnityEngine8Tilemaps13TileBaseProxy12CleanupProxyEv
Wqe:_Char_IsLetterOrDigit_m3494175785
Tme:_SimpleEnumerator_get_Current_m72361444
Sp:__ZNSt3__26vectorIN4core12basic_stringIcNS1_20StringStorageDefaultIcEEEENS_9allocatorIS5_EEE8__appendEj
zSg:__ZN21InterfaceFuncInvoker2I27DictionaryEntry_t3123975638P12Il2CppObjectbE6InvokeEjP11Il2CppClassS2_S2_b
xnj:_il2cpp_gc_collect
CRa:__ZN26PlayerSettingsSplashScreen8TransferI17RemapPPtrTransferEEvRT_
Y6g:_ASN1_set_Value_m2803403806
Jgk:__ZNK37SupportedRenderingFeatures_t35389866351get_U3CdefaultMixedLightingModeU3Ek__BackingField_2Ev
Xhj:__ZN6il2cpp6icalls8mscorlib6SystemL17CollectTypeFieldsINS_5utils10functional10TrueFilterEEEvP11Il2CppClassPKS7_iRNSt3__26vectorIP9FieldInfoNSB_9allocatorISE_EEEERKT_
s7:__ZL67__ManagedRegistrationHelperFunction_SupportedRenderingFeaturesProxyPv
mce:_StrongName_set_RSA_m3858265129
zbc:__Z13GetTagManagerv
Wje:_Hashtable__ctor_m1815022027
BXh:__ZN28GenericInterfaceFuncInvoker1Ib39CustomAttributeNamedArgument_t287865710E6InvokeEPK10MethodInfoP12Il2CppObjectS0_
Aia:__ZN15SerializeTraitsI13dynamic_arrayI17SortingLayerEntryLj0EEE8TransferI24GenerateTypeTreeTransferEEvRS2_RT_
l2g:__ZNK25SortKeyBuffer_t29452752709get_l4s_3Ev
y6:__ZL48__ManagedRegistrationHelperFunction_Vector3ProxyPv
Soh:_UTF8Encoding_GetChars_m1433288684
X3k:_Physics2D_GetRayIntersectionNonAlloc_Internal_m177321563
q7:__ZL68__ManagedRegistrationHelperFunction_ScriptableCullingParametersProxyPv
k6f:__ZN23RC2Transform_t4583214878set_K_16EP24UInt16U5BU5D_t3326319531
C_i:__ZL10roundUp128PyS_
uG:__ZN11UnityEngine15CloudWebService17CloudJobSchedulerD0Ev
Jci:__Z50RuntimeInvoker_Boolean_t97287965_SByte_t1669577662PFvvEPK10MethodInfoPvPS4_
HUa:__ZN18LoadSceneOperation7PerformEv
ODd:__ZN32CADMethodReturnMessage_t2812984716set__exception_5EP23CADArgHolder_t583049314
iuc:__ZN11UnityEngine9Analytics26PerformanceReportingConfig13ConfigChangedERKN4core12basic_stringIcNS2_20StringStorageDefaultIcEEEER8JSONRead
zvh:_TimeZone_ToUniversalTime_m2789507578
Ydi:__Z96RuntimeInvoker_Boolean_t97287965_RuntimeObject_RuntimeObject_Int32_t2950945753_Int32_t2950945753PFvvEPK10MethodInfoPvPS4_
A1e:__Z25Il2CppCodeGenWriteBarrierI21PublicKey_t3779582684EvPPT_S2_
vMe:_Context_get_Current_m2853615040
ZGc:__ZN10ClipperLib7Clipper14IntersectEdgesEPNS_5TEdgeES2_RNS_8IntPointE
Kle:__ZN27SimpleEnumerator_t43389224916set_currentpos_1Ei
AEi:_Assertion__ctor_m2128950829
i6g:_PrimeGeneratorBase__ctor_m2973488305
Wff:__ZN26DateTimeOffset_t322928750716set_utc_offset_3E19TimeSpan_t881159249
Twh:_Type_IsContextfulImpl_m3693603908
$vk:__ZL81RuntimeArray_CustomAttributesCacheGenerator_Array_GetValue_m120423883____indices0P21CustomAttributesCache
lxh:_TypeInitializationException__ctor_m3546444694
Jbi:__Z56RuntimeInvoker_RuntimeObject_RuntimeObject_RuntimeObjectPFvvEPK10MethodInfoPvPS4_
kDb:__ZN22VertexDeclarationCache5ClearEv
r1f:_CspParameters__ctor_m3852972821
Eke:_AppDomainInitializer_EndInvoke_m2095010821
$Wb:__ZN17PersistentManager12SetPathRemapERKN4core12basic_stringIcNS0_20StringStorageDefaultIcEEEES6_
p4k:_RockSpawner_Start_m2988866643
$Ef:__ZNK19SortKey_t395533673212get_source_0Ev
rQb:__ZN6Camera24PrepareCullingParametersERK23CameraCullingParameters13RenderingPathR11CullResults
vQg:_Enumerator_System_Collections_IEnumerator_Reset_m4278714428_gshared
CQb:__Z20CullReflectionProbesR8JobFenceRK22SceneCullingParametersRK23ReflectionProbesContextPKjjPjS9_
q0k:__ZL95Physics2D_t1528932956_CustomAttributesCacheGenerator_Physics2D_Raycast_m1407159225____distance2P21CustomAttributesCache
mkk:__Z30UnityEvent_1__ctor_m1298757307P24UnityEvent_1_t2052235288PK10MethodInfo
rlb:__Z18Transfer_BlittableI18StreamedBinaryReadLb1EaEvRK29SerializationCommandArgumentsR31RuntimeSerializationCommandInfo
Q2h:__ZNK26X509Certificate_t48924302513get_decoder_0Ev
Ysb:__ZNSt3__218__insertion_sort_3IRN10vector_mapIiN17InstancingBatcher12PropertyTypeENS_4lessIiEE13stl_allocatorINS_4pairIiS3_EEL18MemLabelIdentifier1ELi16EEE13value_compareEPS8_EEvT0_SF_T_
rZa:__ZN17WeakPtrSharedDataD0Ev
tCi:_QuickSearch_GetShiftDistance_m2542665852
Fwb:__ZN13GfxDeviceGLES15OnDeviceCreatedEb
Xba:__ZN9Scripting11UnityEngine29FailedToLoadScriptObjectProxy12CleanupProxyEv
smh:_Array_InternalArray__get_Item_TisCustomAttributeTypedArgument_t2723150157_m2639399822_gshared
S4g:_BigInteger_GenerateRandom_m3141592944
Uhb:__Z29Transfer_Blittable_ArrayFieldI24GenerateTypeTreeTransfer4AABBEvRT_R9ArrayInfoRK23StaticTransferFieldInfo
l4f:__ZNK25HashAlgorithm_t143231721911get_State_2Ev
Syi:_Interval_Contains_m1454846757
aQd:__ZNK36WellKnownClientTypeEntry_t133391639113get_app_url_4Ev
qMe:__ZNK19Context_t397123470721get_recordProtocol_29Ev
$6c:__ZN31OpCodes_t126150456_StaticFields10set_Beq_58E17OpCode_t123070264
Adf:__ZNK32Console_t3208230065_StaticFields20get_outputEncoding_4Ev
MTf:__ZNK38SerializationObjectManager_t410765454310get_seen_1Ev
_wc:__ZN13b2PulleyJoint24SolveVelocityConstraintsERK12b2SolverData
twj:__ZN6il2cpp2vmL26GetReflectionMissingObjectEv
lLh:_List_1_System_Collections_Generic_IEnumerableU3CTU3E_GetEnumerator_m944444416_gshared
xvd:__ZN20Identity_t187327937130set__clientDynamicProperties_3EP36DynamicPropertyCollection_t652373272
goe:_Boolean_System_IConvertible_ToBoolean_m422934902
Gua:__ZN20SphericalHarmonicsL219AddDirectionalLightERKN4math7_float3ERKNS0_7_float4E
ws:__ZN9Scripting11UnityEngine27AnimatorTransitionInfoProxy12CleanupProxyEv
k1:__Z26ScheduleJobForEachInternalR8JobFencePFvPvjES1_iPFvS1_E11JobPriority
sMh:_List_1_GrowIfNeeded_m2809844946_gshared
i$k:__ZL67RemoteSettings_t1718627291_CustomAttributesCacheGenerator_CompletedP21CustomAttributesCache
lFb:__ZZ23InitPlayerLoopCallbacksvEN41PostLateUpdateProfilerEndFrameRegistrator7ForwardEv
zDj:__ZN15dense_hashtableINSt3__24pairIK10KeyWrapperINS1_IP11Il2CppClassjEEES4_EES6_N6il2cpp8metadata14ArrayClassHashEN14dense_hash_mapIS6_S4_SB_NS6_14EqualsComparerINSA_17ArrayClassCompareEEENS0_9allocatorIS8_EEE9SelectKeyESF_SH_E12resize_deltaEjj
fM:__GLOBAL__sub_I_Runtime_Misc_2_cpp
Wdc:__ZN10GameObject17WillHandleMessageERK17MessageIdentifier
kdg:_StrongNamePublicKeyBlob_Equals_m3655422942
Xeg:_SecurityContext__ctor_m1730177197
N9b:__ZN9ShaderLab16FastPropertyName15InitBy28BitHashEj
Y2i:__ZN6il2cpp2vm5Class7GetNameEP11Il2CppClass
h_g:_EqualityComparer_1_System_Collections_IEqualityComparer_GetHashCode_m3723747923_gshared
oMg:__Z25Il2CppCodeGenWriteBarrierI21Comparer_1_t284893750EvPPT_S2_
hlh:_Array_Resize_TisOrderBlock_t1585977831_m3449774576_gshared
cjk:_MonoBehaviour_StopCoroutineManaged_m3194025768
jhi:__Z96RuntimeInvoker_Void_t1185182177_Int32_t2950945753_Single_t1397266774_RuntimeObject_RuntimeObjectPFvvEPK10MethodInfoPvPS4_
sUh:_ReadOnlyCollection_1_System_Collections_IList_RemoveAt_m1980090087_gshared
jKg:__Z38InternalEnumerator_1__ctor_m2635640285P32InternalEnumerator_1_t3186646106P11Il2CppArrayPK10MethodInfo
rNc:__ZN9Scripting11UnityEngine18TreePrototypeProxy12CleanupProxyEv
n5c:__ZN17OpCode_t12307026410set_size_4Eh
$Bf:_DateTimeFormatInfo_get_RawAbbreviatedMonthNames_m2395953416
aPa:__ZN17PackedFloatVector12UnpackFloatsEPfiiii
Crj:__ZN30dense_hashtable_const_iteratorINSt3__24pairIK10KeyWrapperIPK10Il2CppTypeEjEES6_N6il2cpp8metadata14Il2CppTypeHashEN14dense_hash_mapIS6_jSB_NS6_14EqualsComparerINSA_26Il2CppTypeEqualityComparerEEENS0_9allocatorIS8_EEE9SelectKeyESF_SH_EppEv
bcd:_TypeBuilder_ToString_m3497908325
owb:__ZN13GfxDeviceGLES21DestroyComputeProgramER12ObjectHandleI18ComputeProgram_TagPvE
Meh:_Enumerable_Any_TisRuntimeObject_m3853239423_gshared
EBi:_PatternCompiler_EmitIfDefined_m2075050865
PTf:__ZN46U3CRegisterObjectU3Ec__AnonStorey3_t35165111438set_sc_0EP34SerializationCallbacks_t2570604627
LGj:__ZN6il2cpp6icalls8mscorlib6System5Array12SetValueImplEP11Il2CppArrayP12Il2CppObjecti
Uof:_Decimal_System_IConvertible_ToInt64_m1446427516_AdjustorThunk
HZ:__ZN17UniqueIDGenerator16DestroyPureIndexEj
S0d:_NotImplementedException__ctor_m3095902440
yV:__ZL21AppendNestedClassName17ScriptingClassPtrRN4core17string_with_labelILi1EEE
n$b:__ZN14SafeBinaryRead21TransferSTLStyleArrayINSt3__26vectorIN9ShaderLab20SerializedSubProgram12UAVParameterENS1_9allocatorIS5_EEEEEEvRT_17TransferMetaFlags
RFi:__ZNK22AnchorInfo_t338701115112get_offset_2Ev
Mwb:__ZN13GfxDeviceGLES32InitStereoGlobalsBuffersPlatformEiijPKv
dre:__ZN16VirtFuncInvoker1IDsDsE6InvokeEjP12Il2CppObjectDs
pN:__ZNK13BaseAllocator10IsAssignedEv
QH:__ZN24TextDOMTransferWriteBaseI9JSONWriteE12PushMetaFlagEi
gQk:__ZL72RequiredByNativeCodeAttribute_t4130846357_CustomAttributesCacheGeneratorP21CustomAttributesCache
Ajk:_PlayerConnection_get_instance_m1750121257
Gkg:__ZN33Encoding_t1523322056_StaticFields24set_bigEndianEncoding_17EP20Encoding_t1523322056
B4:__ZN6prcoreL26RemapGenericIntegerToFloatI17TexFormatARGB888815TexFormatRFloatEEvPKNS_9InnerInfoE
AMc:__ZN9Scripting11UnityEngine12PhysicsProxy12CleanupProxyEv
wBi:_PatternCompiler_get_CurrentAddress_m295383652
sGi:__ZN23InterfaceActionInvoker4IiibP19LinkRef_t2971865410E6InvokeEjP11Il2CppClassP12Il2CppObjectiibS1_
ylj:__ZN6il2cpp2vm17TypeNameParseInfoD2Ev
Bof:_Decimal_System_IConvertible_ToType_m2919262279
qLa:__ZNK8Renderer8GetLayerEv
nLf:__ZN22MemoryStream_t9497314720set_internalBuffer_5EP22ByteU5BU5D_t4116647657
XNf:_Stream_Close_m771352034
eCb:__ZN25TransformFeedbackSkinning8SkinMeshEPK18VertexStreamSourceiP17GPUSkinPoseBufferP9GfxBufferiiP17VertexDeclaration17ShaderChannelMaskb
_5c:__ZN31OpCodes_t126150456_StaticFields13set_Ldarg_1_3E17OpCode_t123070264
HLg:__ZN21InterfaceFuncInvoker1Ii19TimeSpan_t881159249E6InvokeEjP11Il2CppClassP12Il2CppObjectS0_
dua:__ZN12FlareManager11DeleteFlareEi
eSd:_CodeGenerator_EmitWriteTypeSpec_m3265719084
fVe:__ZNK25FileWebRequest_t59185888513get_method_11Ev
kjl:_glProgramBinary__wrapper
Czg:__ZN32InternalEnumerator_1_t119492982711set_array_0EP11Il2CppArray
O5j:__ZNSt3__26__treeINS_12__value_typeINS_12basic_stringIcNS_11char_traitsIcEENS_9allocatorIcEEEEPFvvEEENS_19__map_value_compareIS7_SA_NS_4lessIS7_EELb1EEENS5_ISA_EEE4findIS7_EENS_15__tree_iteratorISA_PNS_11__tree_nodeISA_PvEEiEERKT_
YCa:__ZL23stbir__calculate_memoryP11stbir__info
RNg:__Z36Enumerator_VerifyCurrent_m3071620407P22Enumerator_t1957567516PK10MethodInfo
L2h:__ZNK29TlsClientSettings_t248603950320get_certificateRSA_3Ev
pBg:_InternalEnumerator_1_System_Collections_IEnumerator_get_Current_m3624751851_gshared
dvb:__ZN13GfxDeviceGLES33AllocateGPUSkinPoseBufferInternalEv
n8e:_Interpreter_Close_m126356671
PTh:_Collection_1_InsertItem_m168969280_gshared
xii:__Z67RuntimeInvoker_Void_t1185182177_OpCode_t123070264_SByte_t1669577662PFvvEPK10MethodInfoPvPS4_
yOi:__ZN42U3CTimedTriggerU3Ec__Iterator0_t381343549416set_U24current_1EP12Il2CppObject
zog:_Latin1Encoding_GetMaxCharCount_m1720752733
Paj:__ZN6il2cpp5utils13dynamic_arrayIPK10Il2CppTypeLj4EE7reserveEj
Usg:_InternalEnumerator_1_Dispose_m3493290831_gshared
ZNj:__ZN6il2cpp8metadata15GenericMetadata7InflateEPK19Il2CppGenericMethodPK20Il2CppGenericContext
qld:__ZNK26ResourceReader_t330049263915get_typeNames_5Ev
aCa:__ZN13sorted_vectorIN4core12basic_stringIcNS0_20StringStorageDefaultIcEEEENSt3__24lessIS4_EE13stl_allocatorIS4_L18MemLabelIdentifier81ELi16EEE4findIS4_EENS5_11__wrap_iterIPS4_EERKT_
OAa:__ZN16SpriteRenderData14SetBoneWeightsEPK12BoneWeights4i
Cbj:__ZN30dense_hashtable_const_iteratorI10KeyWrapperIPK19Il2CppGenericMethodES4_N6il2cpp8metadata23Il2CppGenericMethodHashEN14dense_hash_setIS4_S7_NS4_14EqualsComparerINS6_26Il2CppGenericMethodCompareEEENSt3__29allocatorIS4_EEE8IdentityESB_SE_EC2ERK24dense_hashtable_iteratorIS4_S4_S7_SG_SB_SE_E
Dfe:__ZN25DSAParameters_t18858241227set_Y_7EP22ByteU5BU5D_t4116647657
GIb:__ZNK6Camera18WorldToScreenPointERK8Vector3f21MonoOrStereoscopicEyePb
N5d:_CustomAttributeNamedArgument_Equals_m1414002036
f9c:__ZN31OpCodes_t126150456_StaticFields16set_Ckfinite_172E17OpCode_t123070264
mqc:__ZL26Transfer_SimpleNativeClassI8JSONRead10RectOffsetLb1EEvRK29SerializationCommandArgumentsR31RuntimeSerializationCommandInfo
IXj:__ZN4utf88internal6mask16IDsEEtT_
e4e:_X509ChainStatus_set_Status_m263715218
nKh:_List_1__ctor_m3376109328_gshared
Q9d:_FieldBuilder_GetFieldOffset_m725157755
Vpa:__Z26TransformVerticesInnerLoopILb1ELb1ELb1EEvPhRK10Matrix4x4fRK10Matrix3x3fjPKhiS8_ii25GfxTransformVerticesFlagsj
cIh:_Enumerator_System_Collections_IEnumerator_Reset_m959124362_AdjustorThunk
tGc:__ZN10ClipperLib11ClipperBaseD0Ev
PJb:__ZNK20DynamicPropertySheet18FindQueuedPropertyEN9ShaderLab16FastPropertyNameEN19ShaderPropertySheet12PropertyTypeE
Dtf:_Enum_ToObject_m121831801
pyi:__ZN29InterpreterFactory_t53321662413set_mapping_0EP12Il2CppObject
$mc:__Z18Transfer_BlittableI9JSONWriteLb1EsEvRK29SerializationCommandArgumentsR31RuntimeSerializationCommandInfo
RGc:__ZN10ClipperLib8JoinHorzEPNS_5OutPtES1_S1_S1_NS_8IntPointEb
CMi:__ZN31AnalyticsEventParam_t248012192823set_m_RequirementType_0Ei
JVc:__Z48UnityAnalyticsHandler_CUSTOM_SendCustomEventNameP12Il2CppObjectP12Il2CppString
pga:__ZN6ObjectD2Ev
AWi:_RemoteConfigSettings_RemoteConfigSettingsUpdated_m2409101234
JHc:__ZN10Collider2DD0Ev
Tfk:__ZNK26PlayableHandle_t109585380314get_m_Handle_0Ev
sXc:__ZL56__ManagedRegistrationHelperFunction_WebRequestUtilsProxyPv
rGb:__ZN13RenderManager37RenderCamerasWithScriptableRenderLoopEi
Rjj:__ZN6il2cpp2vm7Runtime20SetUnityTlsInterfaceEPKv
S_f:_RuntimeMethodHandle__ctor_m2229201676
Xth:_TimeSpan__ctor_m3689759052
QUf:__ZN28SerializationInfo_t95087717918set_fullTypeName_3EP8String_t
puk:__ZL49UInt16_t2177724958_CustomAttributesCacheGeneratorP21CustomAttributesCache
YTk:__ZL104SendMouseEvents_t3273302915_CustomAttributesCacheGenerator_SendMouseEvents_DoSendMouseEvents_m2140870850P21CustomAttributesCache
jOj:__ZN6il2cpp2os19ReleaseSocketHandleEj
tE:__ZN11AudioModule16GetDSPSampleRateEv
HWj:__ZN15dense_hashtableINSt3__24pairIK10KeyWrapperIPK19Il2CppGenericMethodEP10MethodInfoEES6_N6il2cpp8metadata23Il2CppGenericMethodHashEN14dense_hash_mapIS6_S9_SD_NS6_14EqualsComparerINSC_26Il2CppGenericMethodCompareEEENS0_9allocatorISA_EEE9SelectKeyESH_SJ_E5clearEv
iBd:_AsyncResult_get_AsyncDelegate_m3808237550
gUj:___cxx_global_var_init_3_11494
wih:_Array_InternalArray__ICollection_CopyTo_TisSlot_t384495010_m793189633_gshared
mx:__ZN5audio5mixer23DestroyAudioMixerMemoryEPNS0_16AudioMixerMemoryERKNS0_18AudioMixerConstantEPN4FMOD6SystemER20RuntimeBaseAllocator
Ovh:_Type_get_Attributes_m58528356
Xgk:_SpriteBone_t303320096_marshal_pinvoke
$Kb:__ZN6Camera28DefaultPerformRenderFunctionD0Ev
hwh:__ZN6Type_t22get_address_of__impl_1Ev
Lce:_Array_GetUpperBound_m4018715963
kRj:__ZN6il2cpp2os5posix15PosixWaitObjectC2ENS2_4TypeE
PIb:__ZN6Camera21PostMultiCustomRenderENS_10RenderFlagEb
Fjh:_Array_InternalArray__Insert_TisMonoResource_t4103430009_m1997865927_gshared
X9f:_SHA512Managed_HashFinal_m2173184560
$Gh:__Z30Enumerator_Dispose_m3633742184P22Enumerator_t3458606584PK10MethodInfo
TBb:__ZN12_GLOBAL__N_112UploadImagesEP7ApiGLESjji14GraphicsFormatPKhjS2_iiii16TextureUsageModePh
Mfe:__ZN37X509CertificateEnumerator_t351593469716set_enumerator_0EP12Il2CppObject
Gsb:__ZN23ShaderVariantCollection13WarmupShadersEv
oVb:__ZNK4PPtrI8MaterialEptEv
E5b:__ZN13ProduceHelperI9TransformLb0EE7ProduceE10MemLabelId18ObjectCreationMode
_1h:_SslStreamBase_Finalize_m3260913635
cBj:__ZN10KeyWrapperINSt3__24pairIP11Il2CppClassjEEEC2ERKS5_
TMj:__ZN14dense_hash_setI10KeyWrapperIP18Il2CppGenericClassEN6il2cpp8metadata22Il2CppGenericClassHashENS3_14EqualsComparerINS5_25Il2CppGenericClassCompareEEENSt3__29allocatorIS3_EEE13set_empty_keyERKS3_
fV:__Z25GetCommonScriptingClassesv
jVa:__Z27scripting_gc_collect_unsafei
Qog:__Z26Action_2_Invoke_m406858745P20Action_2_t2470008838P12Il2CppObjectS2_PK10MethodInfo
oCe:_MD5SHA1_HashFinal_m4115488658
pwg:__ZN31InternalEnumerator_1_t3506266069set_idx_1Ei
yE:__ZN11AudioModule20SuspendVideoTexturesEv
XD:__Z59Register_UnityEngine_AudioExtensionManager_GetAudioListenerv
wzk:__ZL78Calendar_t1661121569_CustomAttributesCacheGenerator_Calendar_Clone_m1356182658P21CustomAttributesCache
C6j:__ZNSt3__26__treeIPFvvENS_4lessIS2_EENS_9allocatorIS2_EEE16__construct_nodeIJRKS2_EEENS_10unique_ptrINS_11__tree_nodeIS2_PvEENS_22__tree_node_destructorINS5_ISE_EEEEEEDpOT_
mhb:__Z26Transfer_UnityEngineObjectI24GenerateTypeTreeTransferLb0EEvRK29SerializationCommandArgumentsR31RuntimeSerializationCommandInfo
cHh:__ZNK18List_1_t156936270711get__size_2Ev
Dhf:_Convert_ToDouble_m278900635
J8i:__ZNK30dense_hashtable_const_iteratorI10KeyWrapperIPK19Il2CppGenericMethodES4_N6il2cpp8metadata23Il2CppGenericMethodHashEN14dense_hash_setIS4_S7_NS4_14EqualsComparerINS6_26Il2CppGenericMethodCompareEEENSt3__29allocatorIS4_EEE8IdentityESB_SE_EdeEv
Bmd:__ZNK26ResourceReader_t330049263917get_cache_lock_12Ev
Syc:__ZN16b2PolygonContact7DestroyEP9b2ContactP16b2BlockAllocator
EKf:_Stream_BeginRead_m2233539237
Ayk:__ZL63KeyNotFoundException_t2292407383_CustomAttributesCacheGeneratorP21CustomAttributesCache
l_d:_MonoEnumInfo_t3694469084_marshal_pinvoke_back
kua:__ZN15SharedLightData7PrecalcEv
Oka:__ZN10Matrix4x4fmLERKS_
MXe:__ZNK26HttpWebRequest_t166943651518get_sendChunked_23Ev
Rnd:__ZN36DecimalConstantAttribute_t19760479758set_hi_2Ei
Vak:_Vector2__ctor_m3970636864
gka:__ZN17TransformInternal12InitLocalTRSE15TransformAccessRKN4math7_float3ERKNS1_7_float4ES4_
Ibe:__ZN23ILGenerator_t138862234417set_num_fixups_11Ei
nOj:__ZN6il2cpp2os6Socket5CloseEv
oG:__ZNK4PPtrI4MeshEdeEv
euf:_Environment_InternalGetFolderPath_m468390978
wda:__ZN9Scripting11UnityEngine16ContextMenuProxy9InitProxyEv
_rb:__Z33CreateUnloadUnusedAssetsOperationbb
S0a:__ZN15ArchiveReadFileD0Ev
lNk:__ZL65StackOverflowException_t3629451388_CustomAttributesCacheGeneratorP21CustomAttributesCache
MRg:_KeyCollection_System_Collections_IEnumerable_GetEnumerator_m2779004382_gshared
sCe:_RSASslSignatureFormatter__ctor_m1299283008
qSc:__ZN11UnityEngine15PlatformWrapper18GetOperatingSystemEv
Bhl:b82
kbd:_TypeBuilder_append_method_m751930812
GNk:__ZL54ThreadStart_t1006689297_CustomAttributesCacheGeneratorP21CustomAttributesCache
gJf:__ZN26FileSystemInfo_t374588533618set_OriginalPath_2EP8String_t
Exk:__ZL62ParamArrayAttribute_t3664765590_CustomAttributesCacheGeneratorP21CustomAttributesCache
QEd:__ZNK28ConstructionCall_t401159474519get__isContextOk_17Ev
kxd:__ZN29ContextRestoreSink_t68741064314set__context_1EP19Context_t3285446944
sfk:__ZNK26UnityEventBase_t396044822113get_m_Calls_0Ev
zJk:__ZL94Interlocked_t2273387594_CustomAttributesCacheGenerator_Interlocked_CompareExchange_m3023855514P21CustomAttributesCache
S7f:_SHA1Managed_HashFinal_m2365675383
HMg:__Z28Enumerator__ctor_m1195706188P22Enumerator_t3398877024P24Dictionary_2_t1444694249PK10MethodInfo
kne:__ZN25GenericVirtActionInvoker1IP33AssemblyLoadEventArgs_t2792010465E6InvokeEPK10MethodInfoP12Il2CppObjectS1_
jZg:_EqualityComparer_1_get_Default_m2572737998_gshared
okl:_emscripten_glReadPixels__wrapper
ABg:_InternalEnumerator_1_MoveNext_m819973544_AdjustorThunk
a6j:__ZN6il2cpp6icalls8mscorlib4Mono8Security12Cryptography18KeyPairPersistence10_CanSecureEP12Il2CppString
HBe:_MD4__ctor_m919379109
udh:_Array_InternalArray__ICollection_Contains_TisParameterModifier_t1461694466_m1000453323_gshared
Gmb:__Z29Transfer_Blittable_ArrayFieldI18StreamedBinaryRead8Vector2fEvRT_R9ArrayInfoRK23StaticTransferFieldInfo
Tsk:__ZN32Vector2_t2156229523_StaticFields16set_leftVector_6E19Vector2_t2156229523
XVg:_Dictionary_2_System_Collections_ICollection_CopyTo_m4047192178_gshared
Jkj:__ZN6il2cpp2os4File11GetFileStatERKNSt3__212basic_stringIcNS2_11char_traitsIcEENS2_9allocatorIcEEEEPNS0_8FileStatEPi
H6f:_RIPEMD160Managed_Initialize_m2173168986
hFk:__ZL54IMessageCtrl_t317049502_CustomAttributesCacheGeneratorP21CustomAttributesCache
XUc:__ZN14UnityAnalytics22HandleCustomEventLimitERN11UnityEngine9Analytics15UserCustomEventE
N6b:__ZN9TransformC2E10MemLabelId18ObjectCreationMode
Ack:__ZN30Debug_t3317548046_StaticFields14set_s_Logger_0EP12Il2CppObject
FQc:__ZN11UnityEngine9Analytics20RemoteConfigSettings7SetJSONER8JSONReadb
Y6h:__ZN23DeriveBytes_t149291513615set__password_5EP22ByteU5BU5D_t4116647657
z0c:__ZN24ModuleBuilder_t73188769120set_table_indexes_25EP22Int32U5BU5D_t385246372
l1e:__Z25Il2CppCodeGenWriteBarrierI35X509ExtensionCollection_t1350454579EvPPT_S2_
Pbb:__Z30TransferField_LinearCollectionI14SafeBinaryReadEvRK29SerializationCommandArgumentsR31RuntimeSerializationCommandInfo
ivf:_Exception_set_HResult_m3489164646
_id:_ParameterModifier_t1461694466_marshal_pinvoke_back
tmb:__ZN18StreamedBinaryRead21TransferSTLStyleArrayI13dynamic_arrayIsLj0EEEEvRT_17TransferMetaFlags
jfa:__ZN14SafeBinaryRead11EndTransferEv
gcb:__ZN14SafeBinaryRead8TransferI8MonoPPtrEEvRT_PKc17TransferMetaFlags
LPk:__ZL70Uri_t100236324_CustomAttributesCacheGenerator_Uri_Unescape_m3373094076P21CustomAttributesCache
vtf:_Enum_System_IConvertible_ToUInt16_m4216751959
dtd:_ClientActivatedIdentity__ctor_m20616531
wCb:__ZN21UniformBufferTFMethod13MapBoneBufferEj
wjh:_Array_InternalArray__Insert_TisInt32_t2950945753_m4073217122_gshared
qTe:__ZNK36NameObjectCollectionBase_t209184736414get_keyscoll_8Ev
scf:_SortedList_Remove_m2784369438
yHa:__ZN13dynamic_arrayIS_I24StreamingTextureMipLevelLj0EELj0EE12emplace_backEv
Z3c:_ModuleBuilder_DefineType_m2262733165
mEa:__ZN4crnd12crn_unpacker10unpack_dxnEPPhjjj
_mf:_DateTime_get_Kind_m2154871796_AdjustorThunk
Knb:__ZN9TextAsset15ThreadedCleanupEv
OAi:_MatchCollection_get_SyncRoot_m1957585059
gHh:__Z27Enumerator_MoveNext_m423288P22Enumerator_t3458606584PK10MethodInfo
SV:__ZN14SerializedFileD2Ev
JX:__Z21CompleteFenceInternalR8JobFence
grh:__ZNK32RegisteredWaitHandle_t152953845421get__callsInProcess_8Ev
p1i:__ZN6il2cpp5utils13dynamic_arrayIP11Il2CppClassLj4EEC2Ev
Yxi:__Z79RuntimeInvoker_RuntimeObject_OrderBlock_t1585977831_RuntimeObject_RuntimeObjectPFvvEPK10MethodInfoPvPS4_
i2d:__ZNK27OperatingSystem_t373078360915get__platform_0Ev
K3k:_Physics2D_Raycast_m2858866636
U8i:__ZN15dense_hashtableI10KeyWrapperIPK19Il2CppGenericMethodES4_N6il2cpp8metadata23Il2CppGenericMethodHashEN14dense_hash_setIS4_S7_NS4_14EqualsComparerINS6_26Il2CppGenericMethodCompareEEENSt3__29allocatorIS4_EEE8IdentityESB_SE_EC2EjRKS7_RKSB_RKSG_
HLd:_SoapAttribute_SetReflectionObject_m4109300849
uoj:__ZN6il2cpp2vm10Reflection17GetAssemblyObjectEPK14Il2CppAssembly
Bmg:_DecoderFallbackBuffer_Reset_m3069554060
Umb:__ZNSt3__218__stable_sort_moveIRN10vector_mapI17ScriptingClassPtrPKN5Unity4TypeENS_4lessIS2_EENS_9allocatorINS_4pairIS2_S6_EEEEE13value_compareENS_11__wrap_iterIPSB_EEEEvT0_SJ_T_NS_15iterator_traitsISJ_E15difference_typeEPNSM_10value_typeE
d_b:__ZN6Shader21AwakeFromLoadThreadedEv
$zj:__ZN6il2cpp2vm10Reflection12HasAttributeEP12Il2CppObjectP11Il2CppClass
I3:__ZN6prcoreL17RemapGenericFloatI17TexFormatRGBFloat17TexFormatRGBAHalfEEvPKNS_9InnerInfoE
K4g:_BigInteger__ctor_m3991350270
tbc:__Z58Register_UnityEngine_PlayerConnectionInternal_PollInternalv
Isk:_Vector2_GetHashCode_m3916089713_AdjustorThunk
kZc:__ZN13RuntimeStaticINSt3__26vectorIjNS0_9allocatorIjEEEELb0EE16StaticInitializeEPv
pJ:__ZN13UploadHandler10OnSentDataEj
F7j:__ZN6il2cpp2os9SemaphoreC2Eii
PLe:__ZN19Context_t397123470722set_supportedCiphers_9EP33CipherSuiteCollection_t1129639304
Yr:__ZL61__ManagedRegistrationHelperFunction_AnimationHumanStreamProxyPv
icb:__ZNSt3__26vectorI8MonoPPtr13stl_allocatorIS1_L18MemLabelIdentifier1ELi16EEE8__appendEj
oJb:__ZN14qsort_internal30FindAndMovePivotToLastPositionIP17RODataReplacementi19ROSorterReplacementEEvT_S4_T0_T1_
HCb:__ZN15UniformTFMethod20IsBoneCountSupportedEi
U1k:__ZL76StandardEventPayload_t1629891255_CustomAttributesCacheGenerator_m_ParametersP21CustomAttributesCache
slk:_Object_Internal_InstantiateSingle_Injected_m3863904036
XUh:_ReadOnlyCollection_1_System_Collections_IList_get_Item_m3076053687_gshared
Ykf:__ZNK33CurrentSystemTimeZone_t399835225519get_m_ticksOffset_6Ev
KAh:_UnauthorizedAccessException__ctor_m246605039
J8b:__Z12BuildTextureIA4_tPFvP9Texture2DPS0_iiiiEES2_PKcii13TextureFormatRKT0_17TextureColorSpaceb
Ybl:dynCall_viidi
_yb:__ZN18GfxFramebufferGLES21InvalidateAttachmentsEPKbbbNS_28InvalidateAttachmentsPurposeE
Pmg:__ZNK43DecoderReplacementFallbackBuffer_t84114477913get_current_1Ev
RS:__ZN24ScriptingMethodFiltering17FilterOnSignatureENS_18MethodSearchFilterE
aUc:__ZNSt3__26__treeINS_12__value_typeIN4core12basic_stringIcNS2_20StringStorageDefaultIcEEEEN11UnityEngine9Analytics15UserCustomEvent11CustomValueEEENS_19__map_value_compareIS6_SB_NS_4lessIS6_EELb1EEE13stl_allocatorISB_L18MemLabelIdentifier6ELi16EEE7destroyEPNS_11__tree_nodeISB_PvEE
PHe:_CipherSuite_DecryptRecord_m1495386860
i9h:_X509Certificate_VerifySignature_m3538124832
IKf:_StreamAsyncResult_SetComplete_m1102187093
wBa:__ZN10Matrix4x4f8TransferI18StreamedBinaryReadEEvRT_
m7b:__ZN13MonoBehaviour19HandleNotificationsEPviR11MessageData
b4f:__ZN16HMAC_t262110114415set__hashName_6EP8String_t
g8j:__ZN6il2cpp2os9EventImpl5ResetEv
G4b:__Z18RegisterUnityClassI9Texture3DEvPKc
jFe:_Alert__ctor_m3135936936
pH:__ZNSt3__27__sort3IR14SortByHashPredI13FileEntryInfoN11UnityEngine15CloudWebService14DataDispatcher6HasherEEPS2_EEjT0_SA_SA_T_
TWd:_Int64_System_IConvertible_ToInt32_m772105781
v2h:_TlsClientSettings__ctor_m3220697265
Ztc:__ZN27PerformanceReportingManager29OnSceneLoadedAfterAwakeStaticEPS_iR18AwakeFromLoadQueue16SceneLoadingMode
Pvj:__ZNK15dense_hashtableINSt3__24pairIK10KeyWrapperINS1_IPK9EventInfoP11Il2CppClassEEEjEES9_17ReflectionMapHashIS8_EN14dense_hash_mapIS9_jSD_NS9_14EqualsComparerINS0_8equal_toIS8_EEEENS0_9allocatorISB_EEE9SelectKeyESI_SK_E23find_position_with_hashERSA_j
Lyg:_InternalEnumerator_1__ctor_m1579105305_gshared
Bkf:__ZNK32Convert_t2465617642_StaticFields21get_conversionTable_1Ev
zel:b58
Wmj:_il2cpp_class_get_methods
oVg:_Dictionary_2_make_pair_m2250450206_gshared
pog:_ForwardingDecoder_GetChars_m4228908854
hyi:_InterpreterFactory_get_GroupCount_m2226373271
kel:b53
hel:b50
iel:b51
nel:b56
oel:b57
lel:b54
mel:b55
N1g:_SimpleCollator_IsSafe_m310268646
i_e:_WebProxy_System_Runtime_Serialization_ISerializable_GetObjectData_m430220241
Pfh:_Array_InternalArray__IEnumerable_GetEnumerator_TisWorkRequest_t1354518612_m2622205355_gshared
Gzj:__ZN10KeyWrapperINSt3__24pairIPK9FieldInfoP11Il2CppClassEEEC2ENS8_11KeyTypeEnumE
cpe:_Byte_System_IConvertible_ToByte_m162267264_AdjustorThunk
Uge:_X509Certificate_get_RawData_m2387471414
ugl:_glDetachShader__wrapper
bne:_ArrayTypeMismatchException__ctor_m3375008173
hGf:__ZNK22GuidParser_t276123727410get__src_0Ev
tGh:_KeyValuePair_2__ctor_m1794021352_AdjustorThunk
r5g:__ZN28BigIntegerU5BU5D_t234995247614SetAtUncheckedEjP22BigInteger_t2902905089
eac:__ZN10GameObject12CleanupClassEv
c4a:__ZN9GfxDevice25SetShaderPropertiesSharedERK19ShaderPropertySheet
RZf:_SerializationEntry_t648286436_marshal_pinvoke_back
tve:_CaseInsensitiveHashCodeProvider_GetHashCode_m2168170016
unb:__ZN10MonoScript17MainThreadCleanupEv
AHh:__ZNK22Enumerator_t201729707610get_next_1Ev
lgb:__Z18Transfer_BlittableI24GenerateTypeTreeTransferLb0EN4math12int2_storageEEvRK29SerializationCommandArgumentsR31RuntimeSerializationCommandInfo
_7b:__ZL25InitializeDefaultMaterialv
B9d:_FieldBuilder_get_Attributes_m1473479383
LCf:__ZN30DateTimeFormatInfo_t240585370129set_all_date_time_patterns_57EP24StringU5BU5D_t1281789340
zad:_PropertyBuilder_GetCustomAttributes_m3798356764
Fuf:_Stream__ctor_m3881936881
ijd:_PropertyInfo_get_MemberType_m2794839864
AZa:__ZN19FileAccessorHandlerD2Ev
HPi:_EventTrigger_RemoveRule_m1596811726
tPd:__ZN36SoapServices_t133988723_StaticFields18set__xmlElements_1EP21Hashtable_t1853889766
sWa:__ZN17PersistentManager12UnloadStreamERKN4core12basic_stringIcNS0_20StringStorageDefaultIcEEEEb
Njk:__ZNK28PlayerConnection_t308169404920get_m_IsInitilized_7Ev
nhh:_MonoProperty_GetterAdapterFrame_TisRuntimeObject_TisRuntimeObject_m458718082_gshared
oRj:__ZN6il2cpp2os5posix15PosixWaitObject24UnlockWaitObjectDeletionEv
kP:__ZN4core8hash_setINS_4pairIKNS_12basic_stringIcNS_20StringStorageDefaultIcEEEEPN9profiling6MarkerELb1EEENS_9hash_pairINS_4hashIS5_EES6_S9_EENS_10equal_pairINSt3__28equal_toIS5_EES6_S9_EEE4growEi
Inj:_il2cpp_unity_liveness_calculation_from_statics
gzd:_SoapAttribute__ctor_m1857608874
$Zg:_EqualityComparer_1_System_Collections_IEqualityComparer_Equals_m3218482536_gshared
cMa:__ZN8Renderer8TransferI17RemapPPtrTransferEEvRT_
c2h:_InternalAsyncResult_get_AsyncState_m1436290550
zsg:_InternalEnumerator_1_Dispose_m2018798800_AdjustorThunk
uDa:__ZN6prcore16BlitFuncInfoSIMD19BlitFuncExecuteSIMDEPKNS_9InnerInfoEPKv
jbi:__ZNK23X509CrlEntry_t64556878916get_extensions_2Ev
XXc:__ZN20UnityWebRequestProtoI24UnityWebRequestTransport16AtomicRefCounter14RedirectHelper14ResponseHelper15DownloadHandler13UploadHandler18CertificateHandler12HeaderHelper14AsyncOperationE9DoRequestEv
Sah:_PrivateKeyInfo_RemoveLeadingZero_m3921889925
Srh:_Thread_get_CurrentContext_m1695017876
EWk:__ZL110ReflectionProbe_t175708936_CustomAttributesCacheGenerator_ReflectionProbe_CallSetDefaultReflection_m2835659734P21CustomAttributesCache
iog:__ZN16VirtFuncInvoker3IP8String_tP22ByteU5BU5D_t4116647657iiE6InvokeEjP12Il2CppObjectS3_ii
lDc:__ZN7b2World20ClearIslandFlagsTaskEv
MB:__ZN9AudioClip20OnBeforeDomainUnloadEv
Q4h:_ValidationResult_get_Trusted_m2108852505
Mxc:__ZN16PhysicsManager2D19AddRigidbodyUpdatesEP11Rigidbody2D
LTb:__Z24LookRotationToQuaternionRK8Vector3fS1_P11Quaternionf
JTb:__ZN16ReflectionProbes9GetCameraEv
yOb:__Z23CalculateLightOcclusionRK17LightProbeContextRK29LightProbeSamplingCoordinatesi
$2b:__ZL18IsGpuProgramUsable20ShaderGpuProgramTypePK6Shader
Dxh:_UInt16_System_IConvertible_ToBoolean_m3911119012
XQj:__ZN6il2cpp2vm11MethodStack23CleanupForCurrentThreadEv
vVk:__ZL62EndGraphicsJobsLate_t3823419272_CustomAttributesCacheGeneratorP21CustomAttributesCache
rkf:_Convert_ToUInt64_m388601487
Xra:__ZN20TierGraphicsSettings8TransferI24GenerateTypeTreeTransferEEvRT_
xaj:__ZN15dense_hashtableINSt3__24pairIK10KeyWrapperIN6il2cpp5utils13dynamic_arrayIPK10Il2CppTypeLj4EEEEPFvvEEESA_NS3_8metadata19Il2CppSignatureHashEN14dense_hash_mapISA_SD_SG_NSA_14EqualsComparerINSF_22Il2CppSignatureCompareEEENS0_9allocatorISE_EEE9SelectKeyESK_SM_E16reset_thresholdsEv
Jyk:__ZL51BitArray_t4087883509_CustomAttributesCacheGeneratorP21CustomAttributesCache
Kej:__ZN6il2cpp2os6Atomic11ReadPointerI24CustomAttributeTypeCacheEEPT_PVS5_
Mcd:__ZN20Delegate_t118839281312set_method_3Ei
$Ub:__ZN26CustomRenderTextureManager25UpdateCustomRenderTextureEP19CustomRenderTexturei
DWk:__ZL110ReflectionProbe_t175708936_CustomAttributesCacheGenerator_ReflectionProbe_CallReflectionProbeEvent_m1520775591P21CustomAttributesCache
p2:__ZNSt3__26__treeINS_12__value_typeIiN11TypeManager18TypeCallbackStructEEENS_19__map_value_compareIiS4_NS_4lessIiEELb1EEENS_9allocatorIS4_EEE7destroyEPNS_11__tree_nodeIS4_PvEE
boa:__ZN9ShaderLab32FindBestMatchingShaderKeywordSetERK16ShaderKeywordSetRK13dynamic_arrayIS0_Lj0EEPS5_
KDd:__ZNK32CADMethodCallMessage_t261798406018get_MethodHandle_5Ev
zvg:__ZN31InternalEnumerator_1_t5879855719set_idx_1Ei
zHc:__ZN16PhysicsManager2D42RegisterTransformChangeInterestForColliderEP10Collider2D
dgk:_TextureMixerPlayable_Equals_m1074187513_AdjustorThunk
m_:__ZN18ConcurrentFreeListI12AsyncCommandE7CleanUpEv
CFk:__ZL60SoapTypeAttribute_t1750930817_CustomAttributesCacheGeneratorP21CustomAttributesCache
fpg:_Action_3__ctor_m3820700807_gshared
LHk:__ZL54SHA1Managed_t1754513891_CustomAttributesCacheGeneratorP21CustomAttributesCache
nca:__ZN9Scripting11UnityEngine12Experimental9Rendering16CullResultsProxy12CleanupProxyEv
P4d:_Binder_ConvertArgs_m2124461494
AZb:__ZN21UnityDefaultAllocatorI17LowLevelAllocatorE10DeallocateEPv
Fhl:b86
VUk:__ZL63Physics2DFixedUpdate_t3234482501_CustomAttributesCacheGeneratorP21CustomAttributesCache
At:__ZN15PackedIntVector8TransferI14SafeBinaryReadEEvRT_
Xsk:_Vector3__ctor_m3353183577_AdjustorThunk
Fvg:_InternalEnumerator_1_System_Collections_IEnumerator_get_Current_m1514266661_gshared
mCe:_MD5SHA1_Initialize_m675470944
gih:_Array_InternalArray__ICollection_Add_TisKeyframe_t4206410242_m442111799_gshared
i_j:__ZN6il2cpp2vm13ComObjectBaseC2EP12Il2CppObject
CJk:__ZL58ManualResetEvent_t451242010_CustomAttributesCacheGeneratorP21CustomAttributesCache
O8h:_X509Certificate_set_KeyAlgorithmParameters_m2010117999
yC:__ZN13AudioListener8DoUpdateEv
gda:__ZN9Scripting11UnityEngine26DefaultExecutionOrderProxy9InitProxyEv
Psc:__ZN5Unity9rapidjson13GenericReaderINS0_4UTF8IcEES3_13JSONAllocatorE9ParseTrueILj1ENS0_25GenericInsituStringStreamIS3_EENS0_15GenericDocumentIS3_S4_S4_EEEEvRT0_RT1_
o5f:__ZN24MACTripleDES_t16312623979set_mac_6EP24MACAlgorithm_t2441219148
XYd:__Z13bankers_roundd
Pf:_emscripten_glGenFramebuffers
k2:__ZN17BaseObjectManager16StaticInitializeEPv
H_b:__ZNSt3__26vectorIN9ShaderLab26SerializedShaderDependencyENS_9allocatorIS2_EEE26__swap_out_circular_bufferERNS_14__split_bufferIS2_RS4_EE
LOe:__ZN25SslStreamBase_t166741340713set_context_5EP19Context_t3971234707
l2d:_OperatingSystem_GetObjectData_m1571196722
eBh:_UnitySerializationHolder__ctor_m3869442095
Hga:__ZN9Behaviour23VirtualRedirectTransferER17RemapPPtrTransfer
Ata:__ZN14RenderSettings8TransferI18StreamedBinaryReadEEvRT_
Hnc:__Z18Transfer_BlittableI9JSONWriteLb0EyEvRK29SerializationCommandArgumentsR31RuntimeSerializationCommandInfo
FHe:__ZNK19Context_t397123470720get_clientWriteIV_25Ev
R0e:_X509BasicConstraintsExtension__ctor_m3721156175
vCa:__ZN12CubemapArray23VirtualRedirectTransferER14SafeBinaryRead
Z3h:_TlsServerSettings_get_CertificateRSA_m597274968
Qhk:__ZNK33DefaultValueAttribute_t233722521618get_DefaultValue_0Ev
lvf:_Path_GetFileName_m1354558116
tSk:__ZL96CullingGroup_t2096318768_CustomAttributesCacheGenerator_CullingGroup_DisposeInternal_m1966833260P21CustomAttributesCache
Rea:__ZN9Scripting5Unity11Collections8LowLevel6Unsafe39NativeContainerIsReadOnlyAttributeProxy12CleanupProxyEv
njl:_emscripten_glUniform3i__wrapper
MYk:__ZL100NativeContainerSupportsDeallocateOnJobCompletionAttribute_t1480492758_CustomAttributesCacheGeneratorP21CustomAttributesCache
Gok:_Rect_Contains_m1232228501_AdjustorThunk
xpg:_U3CGetEnumeratorU3Ec__Iterator0__ctor_m3091529227_gshared
bxe:__ZN16Slot_t397588875011set_value_1EP12Il2CppObject
tZd:_MissingMemberException_GetObjectData_m2957220379
aXd:_Int64_System_IConvertible_ToType_m3223988955_AdjustorThunk
ffj:__ZN39AnalyticsEvent_t4058973021_StaticFields17set_m_EventData_1EP24Dictionary_2_t2865362463
Zga:__ZN24GenerateTypeTreeTransfer18BeginArrayTransferEPKcS1_Ri17TransferMetaFlags
ZUi:_Array_InternalArray__get_Item_TisPlayableBinding_t354260709_m3837494573_gshared
FRh:__ZNK19Stack_1_t392349561911get__size_1Ev
Wzi:__ZN16Node_t204908641514set_previous_1EPS_
JAi:_MatchCollection_get_FullList_m1829231879
ce:___syscall54
Ple:_Array_GetValue_m2528415604
fRk:__ZL108StaticAccessorAttribute_t2432663902_CustomAttributesCacheGenerator_StaticAccessorAttribute__ctor_m1713503113P21CustomAttributesCache
iFk:__ZL55IMessageSink_t2514424906_CustomAttributesCacheGeneratorP21CustomAttributesCache
qag:_SymmetricAlgorithm_Clear_m3302238152
Oth:__ZN22WaitHandle_t174340348714set_disposed_4Eb
ZP:__Z25RegisterEventCallbackImplPK23UnityProfilerMarkerDescPFvS1_ttPK23UnityProfilerMarkerDataPvES5_
_Gf:_Guid_AppendShort_m791023083
ozf:__ZN27NumberFormatInfo_t43587713828set_numberNegativePattern_20Ei
j4g:_SimpleCollator_MatchesPrimitive_m3079388596
zh:_emscripten_glValidateProgram
f9i:__ZNK15dense_hashtableI10KeyWrapperIPK17Il2CppGenericInstES4_N6il2cpp8metadata21Il2CppGenericInstHashEN14dense_hash_setIS4_S7_NS4_14EqualsComparerINS6_24Il2CppGenericInstCompareEEENSt3__29allocatorIS4_EEE8IdentityESB_SE_E10test_emptyERK24dense_hashtable_iteratorIS4_S4_S7_SG_SB_SE_E
Knh:_UTF32Encoding_GetBytes_m2832872594
stj:__ZNK10KeyWrapperINSt3__24pairIPK11Il2CppImageP11Il2CppClassEEE8isNormalEv
dUc:__ZN30UnityAnalyticsScriptingClasses23CallSessionStateChangedEixxbP21ScriptingExceptionPtr
FHc:__ZN4PPtrI17PhysicsMaterial2DE8TransferI18StreamedBinaryReadEEvRT_
Sab:__Z18Transfer_BlittableI14SafeBinaryReadLb0E10ColorRGBAfEvRK29SerializationCommandArgumentsR31RuntimeSerializationCommandInfo
Va:invoke_iiiiiiiiii
MD:__ZN11AudioSource25GetNumExtensionPropertiesEv
lba:__ZN9Scripting11UnityEngine9MeshProxy12CleanupProxyEv
XC:__ZNK7Texture10GetVRUsageEv
ere:_Char_ToLowerInvariant_m1926695830
Yue:__ZN48CaseInsensitiveComparer_t3670035800_StaticFields21set_defaultComparer_0EP35CaseInsensitiveComparer_t3670035800
mYg:_DefaultComparer__ctor_m41012692_gshared
IUa:__ZN18LoadSceneOperation19IntegrateTimeSlicedEi
E3d:__ZN40AssemblyDescriptionAttribute_t104699684410set_name_0EP8String_t
_Dh:_RijndaelManagedTransform__ctor_m1033522223
yjj:___cxx_global_var_init_1_9966
HYb:__ZN10FileSystem19SetCurrentDirectoryERKN4core12basic_stringIcNS0_20StringStorageDefaultIcEEEE
ica:__ZN9Scripting11UnityEngine12Experimental9Rendering26RenderPipelineManagerProxy9InitProxyEv
ubk:_Component_get_gameObject_m442555142
zV:__ZN16ScriptingManager24NotifyScriptCacheReleaseEi
N5b:__ZN23TransformChangeDispatch24RemovePermanentInterestsE15TransformAccessPKN5Unity4TypeE
Fjc:__Z47Register_UnityEngine_Coroutine_ReleaseCoroutinev
ow:__ZN15AudioReverbZone13SetFMODValuesEv
$T:__ZN14SafeBinaryRead4InitERK16TypeTreeIteratorxx24TransferInstructionFlags10MemLabelId
EO:__ZL19StaticDestroyShaderPv
zk:_glRenderbufferStorageMultisample
IGg:__ZNK32InternalEnumerator_1_t30847890759get_idx_1Ev
lRc:__ZN11UnityEngine9Analytics17XRDeviceInfoEventD2Ev
V0g:__Z25Il2CppCodeGenWriteBarrierI28CodePointIndexer_t4134431086EvPPT_S2_
mrj:__ZNK15dense_hashtableINSt3__24pairIK10KeyWrapperIPK10Il2CppTypeEjEES6_N6il2cpp8metadata14Il2CppTypeHashEN14dense_hash_mapIS6_jSB_NS6_14EqualsComparerINSA_26Il2CppTypeEqualityComparerEEENS0_9allocatorIS8_EEE9SelectKeyESF_SH_E10test_emptyEj
HCk:__ZL62ParameterAttributes_t1826424051_CustomAttributesCacheGeneratorP21CustomAttributesCache
jRe:__ZNK27SslClientStream_t391462466128get_ServerCertValidation2_19Ev
QLb:__ZN22MotionVectorRenderLoopD2Ev
oMf:_MemoryStream_get_CanRead_m1639425566
j9j:_Debug_LogException_m2207318968
Lmg:_DecoderReplacementFallback_GetHashCode_m1611165826
jFc:__ZNK6b2Body13ShouldCollideEPKS_
ldl:_pthread_cond_broadcast__wrapper
rhh:_Array_InternalArray__ICollection_Add_TisClientCertificateType_t1004704908_m2622721177_gshared
GFc:__ZNK21b2FindNewContactsTask13GetRangeCountEv
iJj:__ZNK15dense_hashtableINSt3__24pairIK10KeyWrapperIP14Il2CppIUnknownEjEES5_N6il2cpp5utils11PointerHashIS3_EEN14dense_hash_mapIS5_jSB_NS5_14EqualsComparerINS0_8equal_toIS4_EEEENS0_9allocatorIS7_EEE9SelectKeyESG_SI_E10test_emptyEj
nKe:__ZNK33SendRecordAsyncResult_t371835246712get_handle_4Ev
o_i:__ZL25UnresolvedVirtualCall_192P12Il2CppObject22OrderBlock_t1585977831PK10MethodInfo
nFa:__ZN7Cubemap23VirtualRedirectTransferER17RemapPPtrTransfer
rZc:__ZL54__ManagedRegistrationHelperFunction_Video3DLayoutProxyPv
Cic:__Z37Register_UnityEngine_Screen_get_widthv
BVi:_UnityAnalyticsHandler_SendCustomEvent_m1223269116
VJi:_Uri_get_Authority_m3816772302
Wfa:__ZN5Unity9Component8TransferI18StreamedBinaryReadEEvRT_
Tbc:__ZN22BlockMemoryCacheWriter11GetPathNameEv
vZj:__ZNSt3__26vectorIPN6il2cpp2os6HandleENS_9allocatorIS4_EEE18__construct_at_endEj
Lye:_BigInteger_op_Division_m3713793389
Yhd:_ParameterInfo__ctor_m3269320476
BUk:__ZL60ProcessRemoteInput_t950001846_CustomAttributesCacheGeneratorP21CustomAttributesCache
vda:__ZN9Scripting11UnityEngine14CoroutineProxy12CleanupProxyEv
nhg:_Single_CompareTo_m2785801815
w6h:_PKCS12_MAC_m3355614022
Xbk:__ZNK24CullingGroup_t209631876811get_m_Ptr_0Ev
OZh:_UnityAction_1_Invoke_m272661351_gshared
TCd:__ZN21RealProxy_t231205025320set_class_to_proxy_0EP6Type_t
no:stackAlloc
_1a:__ZN25SingleBlockMemoryFileData4LockEPPv
J_a:__ZN12HandlerChain5TouchER13FileEntryData
fil:_glProgramParameteri__wrapper
fq:__ZN17CallbackArrayBaseIPFvP10UnitySceneS1_EPFvPKvS1_S1_EE8RegisterES3_S7_S5_
L8j:_AnimationCurve_t3046754366_marshal_pinvoke
uck:_Debug_LogError_m2850623458
Qkb:__Z18Transfer_BlittableI18StreamedBinaryReadLb1EsEvRK29SerializationCommandArgumentsR31RuntimeSerializationCommandInfo
jYi:__ZL24UnresolvedVirtualCall_79P12Il2CppObjectPK10MethodInfo
s_b:__ZNSt3__26__treeINS_12__value_typeIN4core12basic_stringIcNS2_20StringStorageDefaultIcEEEE4PPtrI7TextureEEENS_19__map_value_compareIS6_SA_NS_4lessIS6_EELb1EEENS_9allocatorISA_EEE7destroyEPNS_11__tree_nodeISA_PvEE
zRi:__ZN25GenericVirtActionInvoker1IP24SingleU5BU5D_t1444911251E6InvokeEPK10MethodInfoP12Il2CppObjectS1_
QTk:__ZL101MonoBehaviour_t3962482529_CustomAttributesCacheGenerator_MonoBehaviour_StartCoroutine_Auto_m594129169P21CustomAttributesCache
DTi:__Z22List_1__ctor_m69557434P17List_1_t242016280PK10MethodInfo
e7k:_stat
Uyf:__ZN30DateTimeFormatInfo_t240585370115set_calendar_26EP20Calendar_t1661121569
coa:__ZN9ShaderLab10SubProgram7CompileEv
Thl:_glUniform2fv__wrapper
TIk:__ZL85Encoding_t1523322056_CustomAttributesCacheGenerator_Encoding_GetByteCount_m1966030650P21CustomAttributesCache
OAd:__ZNK19ArgInfo_t326113421713get__method_2Ev
nad:_PropertyBuilder_get_CanRead_m3783190070
oTf:__ZN16VirtFuncInvoker1IbP24TypeMetadata_t2187352167E6InvokeEjP12Il2CppObjectS1_
bIe:_CipherSuiteCollection_System_Collections_IList_get_Item_m2175128671
Hxc:__ZN15b2DistanceJoint23InitVelocityConstraintsERK12b2SolverData
mla:__ZN6CameraD2Ev
fic:__Z50Register_UnityEngine_Camera_get_pixelRect_Injectedv
p6e:__ZNK19Capture_t223201605011get_index_0Ev
J8j:__ZN27AddComponentMenu_t41504013224set_m_AddComponentMenu_0EP8String_t
Xa:invoke_iiiiiiiiiiii
Imf:_DateTime_System_IConvertible_ToType_m1242864300_AdjustorThunk
EYf:_MessageFormatter_ReadMethodResponse_m1259800219
eKg:_InternalEnumerator_1_get_Current_m2446410893_AdjustorThunk
Hpa:__Z29CalculateDefaultChannelsToAdd17ShaderChannelMaskS_
pia:__ZN10TagManager13RegisterLayerEjRKN4core12basic_stringIcNS0_20StringStorageDefaultIcEEEE
OFg:__Z68InternalEnumerator_1_System_Collections_IEnumerator_Reset_m396346696P30InternalEnumerator_1_t83702344PK10MethodInfo
_0g:__ZN26SimpleCollator_t287783472928get_address_of_cjkCatTable_4Ev
qDb:__ZNSt3__26__treeI20DeviceBlendStateGLES14MemoryCompLessI16DeviceBlendStateENS_9allocatorIS1_EEE7destroyEPNS_11__tree_nodeIS1_PvEE
AA:__ZN10AudioMixer12RebindOutputEv
kCj:__ZNK15dense_hashtableINSt3__24pairIK10KeyWrapperIP11Il2CppClassES4_EES5_N6il2cpp8metadata16SZArrayClassHashEN14dense_hash_mapIS5_S4_SA_NS5_14EqualsComparerINS9_19SZArrayClassCompareEEENS0_9allocatorIS7_EEE9SelectKeyESE_SG_E5beginEv
Tvg:_InternalEnumerator_1__ctor_m819716934_gshared
g2i:__ZN6il2cpp2vm17SetupFieldsLockedEP11Il2CppClassRKNS_2os12FastAutoLockE
Q8j:_AnimationCurve__ctor_m1565662948
sAb:__ZN18GlslGpuProgramGLES13SwitchProgramEj
W8i:__ZN6il2cpp5utils11collections13ArrayValueMapIPK10Il2CppType17Il2CppInteropData26InteropDataToTypeConverterNS_8metadata14Il2CppTypeLessENS8_26Il2CppTypeEqualityComparerEE15assign_externalEPS6_jS7_S9_SA_
YDb:__ZN20ArchiveStorageReaderC2E10MemLabelId
wdi:__Z132RuntimeInvoker_Int32_t2950945753_RuntimeObject_Int32_t2950945753_Int32_t2950945753_RuntimeObject_Int32_t2950945753_Int32_t2950945753PFvvEPK10MethodInfoPvPS4_
J2a:__ZN16MemoryFileSystem4NameEv
uVe:__ZNK38FtpWebRequest_t1577818305_StaticFields28get_U3CU3Ef__amU24cache1C_16Ev
QLi:_AesTransform_SubByte_m3350159546
Vsi:__Z44RuntimeInvoker_RuntimeObject_Ray_t3785851493PFvvEPK10MethodInfoPvPS4_
lKh:_Enumerator_get_Current_m2468920150_AdjustorThunk
wwe:__ZNK21Hashtable_t185388976623get_equalityComparer_12Ev
R3h:_TlsException__ctor_m818940807
ghe:_X509CertificateEnumerator_System_Collections_IEnumerator_get_Current_m418791713
_Zf:__ZNK28SerializationInfo_t95087717915get_converter_4Ev
gKc:__Z18RegisterUnityClassI14EdgeCollider2DEvPKc
YXk:__ZL73ArgumentCache_t2187958399_CustomAttributesCacheGenerator_m_ObjectArgumentP21CustomAttributesCache
qck:_StateChanged_EndInvoke_m3313423087
QJi:__ZN27Uri_t100236324_StaticFields30set_U3CU3Ef__switchU24map14_30EP24Dictionary_2_t2736202052
WSi:_AudioListener_ReadExtensionName_m929423100
Y8d:_EnumBuilder_get_DeclaringType_m4266754303
mH:__ZNSt3__26__sortIR14SortByHashPredI13FileEntryInfoN11UnityEngine15CloudWebService14DataDispatcher6HasherEEPS2_EEvT0_SA_T_
Nza:__ZNSt3__27__sort4IRPFbRKNS_4pairIN9ShaderLab16FastPropertyNameEN18UnityPropertySheet11UnityTexEnvEEES8_EPS6_EEjT0_SD_SD_SD_T_
NDi:_Assertion_get_TrueExpression_m2743006331
z$i:_NativeHeaderAttribute_set_Header_m3310668383
bZa:__Z11StringToIntRKN4core16basic_string_refIcEE
h1e:__ZNK40X509Certificate2_t714049126_StaticFields18get_empty_error_14Ev
t_e:__ZN35WebRequest_t1939381076_StaticFields13set_lockobj_5EP12Il2CppObject
Te:_emscripten_glBufferSubData
ojg:_String_ReplaceUnchecked_m1381393810
$wa:__ZN7Texture23VirtualRedirectTransferER19StreamedBinaryWrite
jch:_SymmetricTransform_CBC_m435753239
gDj:__ZN14dense_hash_mapI10KeyWrapperIP11Il2CppClassES2_N6il2cpp8metadata16SZArrayClassHashENS3_14EqualsComparerINS5_19SZArrayClassCompareEEENSt3__29allocatorINSA_4pairIKS3_S2_EEEEE3endEv
RAg:__Z38InternalEnumerator_1__ctor_m1594304290P32InternalEnumerator_1_t1765566171P11Il2CppArrayPK10MethodInfo
sfb:__Z18Transfer_BlittableI17RemapPPtrTransferLb1EyEvRK29SerializationCommandArgumentsR31RuntimeSerializationCommandInfo
w2e:__ZNK38X509ChainElementEnumerator_t301425345616get_enumerator_0Ev
XCh:__ZN36RSACryptoServiceProvider_t268351287411set_store_2EP30KeyPairPersistence_t2094547461
o5:__ZN6prcoreL12RemapGenericI15TexFormatRGB88817TexFormatARGB8888EEvPKNS_9InnerInfoE
cp:__Z17CalculateGlobalRS23TransformAccessReadOnly
A4j:__ZNSt3__210__list_impIPN6il2cpp5utils10MemoryPool6RegionENS_9allocatorIS5_EEE5clearEv
R8j:_AnimationCurve_Internal_Create_m3956683041
ypb:__ZNK25PathNamePersistentManager24PathIDToPathNameInternalEi
JIg:_InternalEnumerator_1_get_Current_m1523142935_gshared
H_a:__ZNK12HandlerChain7ToLocalERK13FileEntryDataRN4core12basic_stringIcNS3_20StringStorageDefaultIcEEEERyS9_
Rje:__ZN34AppDomain_t1571427825_StaticFields19set__process_guid_2EP8String_t
iZc:__ZN13RuntimeStaticINSt3__26vectorIN5physx25PxVehicleWheelQueryResultENS0_9allocatorIS3_EEEELb0EE16StaticInitializeEPv
cSd:__ZNK31OpCodes_t126150456_StaticFields15get_Ldc_I4_S_31Ev
Afi:__Z38RuntimeInvoker_MemberTypes_t3790569052PFvvEPK10MethodInfoPvPS4_
mXa:__ZN22MemoryCacherReadBlocks14LockCacheBlockEjPPhS1_
SKf:_StreamAsyncResult_get_NBytes_m548041729
cQk:__ZL141U3CCreateWhereIteratorU3Ec__Iterator1D_1_t945640688_CustomAttributesCacheGenerator_U3CCreateWhereIteratorU3Ec__Iterator1D_1_Reset_m2877846340P21CustomAttributesCache
GMa:__ZNK9GfxDevice26GetSinglePassStereoEyeMaskEv
o$d:__Z25Il2CppCodeGenWriteBarrierI24MonoTypeInfo_t3366989025EvPPT_S2_
Hck:_DebugLogHandler_Internal_Log_m4175774469
C6i:__ZN15dense_hashtableINSt3__24pairIK10KeyWrapperIP9FieldInfoEiEES5_N6il2cpp5utils11PointerHashIS3_EEN14dense_hash_mapIS5_iSB_NS5_14EqualsComparerINS0_8equal_toIS4_EEEENS0_9allocatorIS7_EEE9SelectKeyESG_SI_E13set_empty_keyERKS7_
v4k:__ZNK17Timer_t418593234313get_started_7Ev
dYj:__ZN4utf88internal15increase_safelyIPKcEENS0_9utf_errorERT_S5_
h2i:__ZN6il2cpp2vmL21SetupPropertiesLockedEP11Il2CppClassRKNS_2os12FastAutoLockE
ffg:_SecurityContext_get_CompressedStack_m3401528670
wre:_CharEnumerator_get_Current_m525608209
Krd:__Z25Il2CppCodeGenWriteBarrierI31CrossContextChannel_t4063984580EvPPT_S2_
zDg:_InternalEnumerator_1_Dispose_m887344916_AdjustorThunk
a1c:__Z21ArrayElementTypeCheckP11Il2CppArrayPv
Ekl:_emscripten_glTexSubImage2D__wrapper
j1c:__Z23il2cpp_codegen_subtractIiiEN11pick_biggerIT_T0_E4typeES1_S2_
Erf:_StackTrace_init_frames_m641783388
F0e:_PublicKey_DecodeRSA_m1824703659
W8k:__ZNSt3__212basic_stringIcNS_11char_traitsIcEENS_9allocatorIcEEE6appendEjc
tZj:__ZNSt3__213__vector_baseIPN6il2cpp2os6HandleENS_9allocatorIS4_EEED2Ev
x4b:__Z18RegisterUnityClassI10GUIElementEvPKc
AKk:__ZL78Convert_t2465617642_CustomAttributesCacheGenerator_Convert_ToBoolean_m40300963P21CustomAttributesCache
Mse:_ArrayListWrapper_set_Item_m3849584877
r8e:__ZNK22Interpreter_t58271570112get_repeat_9Ev
id:_TTF_RenderText_Solid
nfj:__ZNK6il2cpp2os19SocketHandleWrapper7IsValidEv
z9:__ZN9Scripting11UnityEngine14Texture2DProxy12CleanupProxyEv
xri:__Z109RuntimeInvoker_Boolean_t97287965_RuntimeObject_Int32_t2950945753_Int32_t2950945753_Int32_t2950945753_IntPtr_tPFvvEPK10MethodInfoPvPS4_
zah:__ZN34EncryptedPrivateKeyInfo_t86211683511set__data_3EP22ByteU5BU5D_t4116647657
jci:__Z78RuntimeInvoker_Int32_t2950945753_RuntimeObject_Int32_t2950945753_RuntimeObjectPFvvEPK10MethodInfoPvPS4_
aMh:_List_1__ctor_m3947764094_gshared
WYi:__ZL25UnresolvedVirtualCall_118P12Il2CppObjectPK10MethodInfo
SLc:__Z56Register_UnityEngine_Physics2D_Raycast_Internal_Injectedv
zDi:_Parser_IsIgnorePatternWhitespace_m2107132682
UUc:__ZN14UnityAnalytics15Internal_CreateE18ScriptingObjectPtr
UVe:_HttpRequestCreator_Create_m400548686
gBh:__ZN35UnitySerializationHolder_t43191283416set__unityType_1Eh
XKf:__ZN28StreamAsyncResult_t78024851210set_done_2Eb
Vji:__Z49RuntimeInvoker_RuntimeObject_StringU26_t181565287PFvvEPK10MethodInfoPvPS4_
lnc:__Z18Transfer_BlittableI9JSONWriteLb0E5RectTIiEEvRK29SerializationCommandArgumentsR31RuntimeSerializationCommandInfo
P4g:_BigInteger_get_Rng_m4216817480
$dh:_Array_InternalArray__ICollection_Remove_TisDateTime_t3738529785_m2250893026_gshared
IHk:__ZL67RijndaelManagedTransform_t4102601014_CustomAttributesCacheGeneratorP21CustomAttributesCache
X6c:__ZN31OpCodes_t126150456_StaticFields15set_Blt_Un_S_54E17OpCode_t123070264
dub:__Z15IsIEEE754Format14GraphicsFormat
vW:__ZL12CreateStringPjR13dynamic_arrayIcLj0EEPKc
Gfb:__Z19TransferField_ArrayI17RemapPPtrTransfer27Converter_UnityEngineObjectEvRK23StaticTransferFieldInfoR31RuntimeSerializationCommandInfoRT0_
lQd:__ZN28ArrayFixupRecord_t427125626912set__index_4Ei
nwe:_KeyNotFoundException__ctor_m541499307
IY:__ZN13RuntimeStaticINSt3__23mapIN4core12basic_stringIcNS2_20StringStorageDefaultIcEEEES6_NS0_4lessIS6_EE13stl_allocatorINS0_4pairIKS6_S6_EEL18MemLabelIdentifier13ELi16EEEELb0EE16StaticInitializeEPv
Lvf:__ZN11Exception_t13set_message_2EP8String_t
Sdi:__Z61RuntimeInvoker_Single_t1397266774_RuntimeObject_RuntimeObjectPFvvEPK10MethodInfoPvPS4_
n3j:__ZN6il2cpp2os6HandleD2Ev
szi:_Enumerator__ctor_m1228633090
OCg:_InternalEnumerator_1_get_Current_m2316281569_AdjustorThunk
bgf:_DateTime__ctor_m1095105629
xvb:__ZN13GfxDeviceGLES15UploadTexture2DE9TextureID16TextureDimensionPKhiii14GraphicsFormati18TextureUploadFlags16TextureUsageMode
qUj:__ZN6il2cpp5utils13dynamic_arrayIPNS_2os6ThreadELj4EE8allocateEj
Bfj:__ZNSt3__214__split_bufferIN6il2cpp2os19SocketHandleWrapperERNS_9allocatorIS3_EEEC2EjjS6_
rMf:__ZNK22MemoryStream_t9497314714get_canWrite_1Ev
IRh:_Enumerator_get_Current_m42805805_AdjustorThunk
dvg:__ZN32InternalEnumerator_1_t14513820819set_idx_1Ei
rz:__ZN4FMOD6System9createDSPEP20FMOD_DSP_DESCRIPTIONPPNS_3DSPE
TJk:__ZL87Thread_t2300836069_CustomAttributesCacheGenerator_Thread_GetCompressedStack_m2923422412P21CustomAttributesCache
Zqk:_HitInfo_t3229609740_marshal_pinvoke_back
nRe:_SslClientStream_get_ClientCertificates_m998716871
Hc:_JS_SystemInfo_HasCursorLock
zx:__ZN4FMOD8ChannelI11EndCallbackEv
ZSe:__ZN36NameObjectCollectionBase_t209184736416set_m_readonly_6Eb
Tbh:__ZNK30SymmetricTransform_t380259184219get_BlockSizeByte_2Ev
ENh:_List_1_ToArray_m2860284581_gshared
q4e:_X509Chain_GetAuthorityKeyIdentifier_m2237883181
UGa:__ZN15QualitySettings23VirtualRedirectTransferER24GenerateTypeTreeTransfer
kve:__Z25Il2CppCodeGenWriteBarrierI20TextInfo_t3810425522EvPPT_S2_
lXf:_ObjectReader_ReadValue_m3145979203
Jtk:_TypeInferenceRuleAttribute_ToString_m4089326196
d3f:__ZNK36DSACryptoServiceProvider_t39926689239get_dsa_7Ev
qbh:__ZN22RSAManaged_t175709381922set_keypairGenerated_4Eb
kqd:__ZNK40ChannelServices_t3942013484_StaticFields21get_CrossContextUrl_3Ev
Dzd:_Lease_set_RenewOnCallTime_m1737118470
tUg:_Transform_1_BeginInvoke_m500585065_gshared
NSg:__ZN16VirtFuncInvoker2I26KeyValuePair_2_t3842366416P12Il2CppObjectbE6InvokeEjS2_S2_b
pjc:__Z59Register_UnityEngine_MonoBehaviour_Internal_CancelInvokeAllv
Aoj:__ZNK24dense_hashtable_iteratorINSt3__24pairIK10KeyWrapperINS1_IPK14Il2CppAssemblyP11Il2CppClassEEEjEES9_17ReflectionMapHashIS8_EN14dense_hash_mapIS9_jSD_NS9_14EqualsComparerINS0_8equal_toIS8_EEEENS0_9allocatorISB_EEE9SelectKeyESI_SK_EneERKSN_
jIf:_BinaryWriter_Dispose_m1020700223
i7i:__ZN30dense_hashtable_const_iteratorINSt3__24pairIK10KeyWrapperIPK19Il2CppGenericMethodEPK26Il2CppGenericMethodIndicesEES6_N6il2cpp8metadata23Il2CppGenericMethodHashEN14dense_hash_mapIS6_SA_SE_NS6_14EqualsComparerINSD_26Il2CppGenericMethodCompareEEENS0_9allocatorISB_EEE9SelectKeyESI_SK_EppEv
oUf:_TypeMetadata__ctor_m3381216780
k$k:__ZL120RemoteSettings_t1718627291_CustomAttributesCacheGenerator_RemoteSettings_RemoteSettingsBeforeFetchFromServer_m4228537265P21CustomAttributesCache
SLi:__ZNK37AesTransform_t2957123611_StaticFields10get_iT0_22Ev
xIj:__ZN6il2cpp6icalls8mscorlib6System10Reflection10MonoMethod29get_IsGenericMethodDefinitionEP22Il2CppReflectionMethod
MAj:__ZN6il2cpp2vm6Thread21AllocThreadStaticDataEi
vJd:_MonoMethodMessage_get_CallType_m3702481004
IDc:__ZNK39b2PrepareDiscreteIslandContactIndexTask13GetRangeCountEv
_Df:_NumberFormatInfo_get_PercentNegativePattern_m1304634118
R4d:_Default_SelectMethod_m469311730
I2i:__ZN6il2cpp5utils13dynamic_arrayIP11Il2CppClassLj4EE8allocateEj
Ihk:_Input_get_mousePosition_m1616496925
RWj:__ZN30dense_hashtable_const_iteratorINSt3__24pairIK10KeyWrapperIPK19Il2CppGenericMethodEP10MethodInfoEES6_N6il2cpp8metadata23Il2CppGenericMethodHashEN14dense_hash_mapIS6_S9_SD_NS6_14EqualsComparerINSC_26Il2CppGenericMethodCompareEEENS0_9allocatorISA_EEE9SelectKeyESH_SJ_EppEv
zzh:_UInt32_ToString_m2066897296_AdjustorThunk
ORd:__ZN18VirtActionInvoker3I17OpCode_t123070264P12MethodInfo_tP22TypeU5BU5D_t3940880105E6InvokeEjP12Il2CppObjectS0_S2_S4_
mQc:__ZN11UnityEngine9Analytics15DeviceInfoEventD0Ev
J7c:__ZN31OpCodes_t126150456_StaticFields10set_And_94E17OpCode_t123070264
Kmc:__Z18Transfer_BlittableI9JSONWriteLb0E8Vector3fEvRK29SerializationCommandArgumentsR31RuntimeSerializationCommandInfo
xZ:__ZN13RuntimeStaticI17UniqueIDGeneratorLb0EE13StaticDestroyEPv
th:_emscripten_glUniform4i
Xkd:__ZN40ResourceManager_t4037989559_StaticFields17set_NonExistent_1EP21Hashtable_t1853889766
rh:_emscripten_glUniform4f
E8b:__Z13GrayscaleRampP9Texture2DPhiiii
g2h:_TlsCipherSuite_ComputeServerRecordMAC_m3941098609
bXb:__ZN13sorted_vectorINSt3__24pairIN4core12basic_stringIcNS2_20StringStorageDefaultIcEEEES6_EEN10vector_mapIS6_S6_27compare_tstring_insensitiveIS6_E13stl_allocatorIS7_L18MemLabelIdentifier38ELi16EEE13value_compareESD_E9erase_oneIS6_EEjRKT_
yYg:_DefaultComparer__ctor_m963958896_gshared
dcg:_X509Certificate_Equals_m3784196370
S5h:__ZN29KeyUsageExtension_t179561591223get_address_of_kubits_3Ev
Bri:__Z135RuntimeInvoker_Void_t1185182177_RuntimeObject_Int32_t2950945753_Int32_t2950945753_Int32_t2950945753_Int32_t2950945753_Int32_t2950945753PFvvEPK10MethodInfoPvPS4_
L7f:_SHA1Internal_ProcessFinalBlock_m1403775421
RMk:__ZL69Math_t1671470975_CustomAttributesCacheGenerator_Math_Sqrt_m1297338011P21CustomAttributesCache
z2f:__ZN37DESTransform_t4088905499_StaticFields12set_fpTab_24EP24UInt32U5BU5D_t2770800703
ICd:_RemotingServices_GetOrCreateClientIdentity_m648299611
UQh:__ZN19Queue_1_t120077810612set__array_0EP29WorkRequestU5BU5D_t3723878365
Qic:__Z45Register_UnityEngine_Display_GetSystemExtImplv
Gbh:_RSAManaged_ImportParameters_m1844641996
XBk:__ZL67AssemblyProductAttribute_t1000945320_CustomAttributesCacheGeneratorP21CustomAttributesCache
T6a:__ZN9GfxDevice31DrawIndexedNullGeometryIndirectE16GfxPrimitiveTypeP9GfxBuffer15ComputeBufferIDj
Czi:__ZNK21Enumerator_t73772527610get_list_0Ev
Ara:__ZN14SafeBinaryRead21TransferSTLStyleArrayI13dynamic_arrayI21PlatformShaderDefinesLj0EEEEvRT_17TransferMetaFlags
KNj:__ZN30dense_hashtable_const_iteratorI10KeyWrapperIP18Il2CppGenericClassES3_N6il2cpp8metadata22Il2CppGenericClassHashEN14dense_hash_setIS3_S6_NS3_14EqualsComparerINS5_25Il2CppGenericClassCompareEEENSt3__29allocatorIS3_EEE8IdentityESA_SD_EC2ERK24dense_hashtable_iteratorIS3_S3_S6_SF_SA_SD_E
Z3d:_AssemblyName_set_Name_m1981626655
Tjb:__Z29Transfer_Blittable_ArrayFieldI19StreamedBinaryWrite11ColorRGBA32EvRT_R9ArrayInfoRK23StaticTransferFieldInfo
YLc:__GLOBAL__sub_I_Runtime_Dynamics_0_cpp
K5d:__ZNK40CustomAttributeTypedArgument_t272315015718get_argumentType_0Ev
L_i:__ZL17log2withScale_128yyi
KGf:_Guid_Equals_m1866984197
STc:__ZN14UnityAnalytics19ConfigChangedStaticEPS_RKN4core12basic_stringIcNS1_20StringStorageDefaultIcEEEER8JSONReadb
JNg:_Enumerator__ctor_m65667165_gshared
Phj:__ZN6il2cpp6icalls8mscorlib6SystemL8IsStaticEPK9FieldInfo
vtc:__GLOBAL__sub_I_ParticleSystemScriptingClasses_cpp
A2d:_PlatformNotSupportedException__ctor_m1787918017
gyi:__ZNK29InterpreterFactory_t53321662413get_pattern_1Ev
Y$:__ZN13RuntimeStaticI15DirectorManagerLb0EE16StaticInitializeEPv
cBd:__ZNK23AsyncResult_t419430957220get_sync_completed_5Ev
J1e:__ZN27X509Certificate2_t71404912619set_subject_name_11EP32X500DistinguishedName_t875709727
